; Listing generated by Microsoft (R) Optimizing Compiler Version 19.00.24215.1 

	TITLE	D:\TouchGFX\4.8.0\app\template\PowerSupplySystem\generated\images\src\Background_Rev1.cpp
	.686P
	.XMM
	include listing.inc
	.model	flat

INCLUDELIB MSVCRTD
INCLUDELIB OLDNAMES

PUBLIC	?_Background_Rev1@@3QBEB			; _Background_Rev1
CONST	SEGMENT
?_Background_Rev1@@3QBEB DB 00H				; _Background_Rev1
	DB	04H
	DB	00H
	DB	04H
	DB	00H
	DB	04H
	DB	0e0H
	DB	03H
	DB	0e0H
	DB	03H
	DB	00H
	DB	04H
	DB	0e0H
	DB	03H
	DB	0e0H
	DB	0bH
	DB	0e0H
	DB	03H
	DB	0e0H
	DB	0bH
	DB	0c0H
	DB	0bH
	DB	0c0H
	DB	03H
	DB	0e0H
	DB	0bH
	DB	0c0H
	DB	0bH
	DB	0c0H
	DB	0bH
	DB	0c0H
	DB	0bH
	DB	0c0H
	DB	0bH
	DB	0a0H
	DB	0bH
	DB	0a0H
	DB	0bH
	DB	0a0H
	DB	0bH
	DB	0a0H
	DB	0bH
	DB	0a0H
	DB	013H
	DB	0a0H
	DB	0bH
	DB	0a0H
	DB	0bH
	DB	0a0H
	DB	013H
	DB	080H
	DB	013H
	DB	080H
	DB	013H
	DB	080H
	DB	013H
	DB	080H
	DB	013H
	DB	080H
	DB	013H
	DB	080H
	DB	013H
	DB	080H
	DB	013H
	DB	080H
	DB	013H
	DB	060H
	DB	013H
	DB	060H
	DB	013H
	DB	060H
	DB	013H
	DB	060H
	DB	013H
	DB	060H
	DB	01bH
	DB	060H
	DB	01bH
	DB	060H
	DB	013H
	DB	040H
	DB	01bH
	DB	040H
	DB	01bH
	DB	040H
	DB	01bH
	DB	040H
	DB	01bH
	DB	040H
	DB	01bH
	DB	040H
	DB	01bH
	DB	040H
	DB	01bH
	DB	020H
	DB	01bH
	DB	020H
	DB	01bH
	DB	020H
	DB	01bH
	DB	020H
	DB	01bH
	DB	020H
	DB	01bH
	DB	020H
	DB	023H
	DB	020H
	DB	01bH
	DB	00H
	DB	023H
	DB	00H
	DB	023H
	DB	00H
	DB	023H
	DB	00H
	DB	023H
	DB	00H
	DB	023H
	DB	00H
	DB	023H
	DB	00H
	DB	023H
	DB	00H
	DB	023H
	DB	0e0H
	DB	022H
	DB	0e0H
	DB	022H
	DB	0e0H
	DB	022H
	DB	0e0H
	DB	022H
	DB	0e0H
	DB	022H
	DB	0e0H
	DB	02aH
	DB	0e0H
	DB	02aH
	DB	0c0H
	DB	022H
	DB	0c0H
	DB	02aH
	DB	0c0H
	DB	02aH
	DB	0c0H
	DB	02aH
	DB	0c0H
	DB	02aH
	DB	0c0H
	DB	02aH
	DB	0c0H
	DB	02aH
	DB	0c0H
	DB	02aH
	DB	0a0H
	DB	02aH
	DB	0a0H
	DB	02aH
	DB	0a0H
	DB	02aH
	DB	0a0H
	DB	02aH
	DB	0a0H
	DB	032H
	DB	0a0H
	DB	032H
	DB	0a0H
	DB	02aH
	DB	080H
	DB	032H
	DB	080H
	DB	032H
	DB	0a0H
	DB	032H
	DB	080H
	DB	032H
	DB	080H
	DB	032H
	DB	080H
	DB	032H
	DB	080H
	DB	032H
	DB	060H
	DB	032H
	DB	060H
	DB	032H
	DB	060H
	DB	032H
	DB	060H
	DB	032H
	DB	060H
	DB	03aH
	DB	060H
	DB	032H
	DB	060H
	DB	03aH
	DB	060H
	DB	03aH
	DB	060H
	DB	03aH
	DB	040H
	DB	03aH
	DB	040H
	DB	03aH
	DB	040H
	DB	03aH
	DB	040H
	DB	03aH
	DB	040H
	DB	03aH
	DB	040H
	DB	03aH
	DB	020H
	DB	03aH
	DB	020H
	DB	03aH
	DB	020H
	DB	03aH
	DB	020H
	DB	042H
	DB	020H
	DB	03aH
	DB	020H
	DB	03aH
	DB	020H
	DB	042H
	DB	020H
	DB	042H
	DB	00H
	DB	042H
	DB	00H
	DB	042H
	DB	00H
	DB	042H
	DB	00H
	DB	042H
	DB	00H
	DB	042H
	DB	00H
	DB	042H
	DB	00H
	DB	042H
	DB	0e0H
	DB	041H
	DB	0e0H
	DB	041H
	DB	0e0H
	DB	041H
	DB	0e0H
	DB	049H
	DB	0e0H
	DB	041H
	DB	0e0H
	DB	041H
	DB	0e0H
	DB	049H
	DB	0c0H
	DB	049H
	DB	0c0H
	DB	049H
	DB	0c0H
	DB	049H
	DB	0c0H
	DB	049H
	DB	0c0H
	DB	049H
	DB	0c0H
	DB	049H
	DB	0c0H
	DB	049H
	DB	0a0H
	DB	049H
	DB	0c0H
	DB	049H
	DB	0a0H
	DB	049H
	DB	0a0H
	DB	049H
	DB	0a0H
	DB	049H
	DB	0a0H
	DB	051H
	DB	0a0H
	DB	049H
	DB	0a0H
	DB	051H
	DB	0a0H
	DB	051H
	DB	080H
	DB	051H
	DB	080H
	DB	051H
	DB	080H
	DB	051H
	DB	080H
	DB	051H
	DB	080H
	DB	051H
	DB	080H
	DB	051H
	DB	080H
	DB	051H
	DB	060H
	DB	051H
	DB	060H
	DB	051H
	DB	060H
	DB	051H
	DB	060H
	DB	051H
	DB	060H
	DB	059H
	DB	060H
	DB	051H
	DB	060H
	DB	059H
	DB	060H
	DB	059H
	DB	040H
	DB	059H
	DB	040H
	DB	059H
	DB	040H
	DB	059H
	DB	040H
	DB	059H
	DB	040H
	DB	059H
	DB	040H
	DB	059H
	DB	040H
	DB	059H
	DB	020H
	DB	059H
	DB	020H
	DB	059H
	DB	020H
	DB	059H
	DB	020H
	DB	059H
	DB	020H
	DB	061H
	DB	020H
	DB	059H
	DB	020H
	DB	061H
	DB	00H
	DB	061H
	DB	00H
	DB	061H
	DB	020H
	DB	061H
	DB	00H
	DB	061H
	DB	00H
	DB	061H
	DB	00H
	DB	061H
	DB	00H
	DB	061H
	DB	00H
	DB	061H
	DB	00H
	DB	061H
	DB	0e0H
	DB	060H
	DB	0e0H
	DB	060H
	DB	0e0H
	DB	068H
	DB	0e0H
	DB	060H
	DB	0e0H
	DB	060H
	DB	0e0H
	DB	068H
	DB	0e0H
	DB	068H
	DB	0c0H
	DB	060H
	DB	0c0H
	DB	068H
	DB	0c0H
	DB	068H
	DB	0c0H
	DB	068H
	DB	0c0H
	DB	068H
	DB	0c0H
	DB	068H
	DB	0c0H
	DB	068H
	DB	0a0H
	DB	068H
	DB	0a0H
	DB	068H
	DB	0c0H
	DB	068H
	DB	0a0H
	DB	070H
	DB	0a0H
	DB	068H
	DB	0a0H
	DB	068H
	DB	0a0H
	DB	070H
	DB	0a0H
	DB	070H
	DB	080H
	DB	070H
	DB	080H
	DB	070H
	DB	080H
	DB	070H
	DB	080H
	DB	070H
	DB	080H
	DB	070H
	DB	080H
	DB	070H
	DB	080H
	DB	070H
	DB	080H
	DB	070H
	DB	060H
	DB	070H
	DB	060H
	DB	070H
	DB	060H
	DB	070H
	DB	060H
	DB	070H
	DB	060H
	DB	078H
	DB	060H
	DB	078H
	DB	060H
	DB	070H
	DB	040H
	DB	078H
	DB	040H
	DB	078H
	DB	040H
	DB	078H
	DB	040H
	DB	078H
	DB	040H
	DB	078H
	DB	040H
	DB	078H
	DB	040H
	DB	078H
	DB	040H
	DB	078H
	DB	020H
	DB	078H
	DB	020H
	DB	078H
	DB	020H
	DB	078H
	DB	020H
	DB	080H
	DB	020H
	DB	078H
	DB	020H
	DB	078H
	DB	00H
	DB	080H
	DB	00H
	DB	080H
	DB	020H
	DB	080H
	DB	00H
	DB	080H
	DB	00H
	DB	080H
	DB	00H
	DB	080H
	DB	00H
	DB	080H
	DB	00H
	DB	080H
	DB	00H
	DB	080H
	DB	00H
	DB	080H
	DB	00H
	DB	080H
	DB	00H
	DB	080H
	DB	00H
	DB	078H
	DB	01H
	DB	080H
	DB	00H
	DB	080H
	DB	00H
	DB	078H
	DB	01H
	DB	078H
	DB	01H
	DB	078H
	DB	01H
	DB	078H
	DB	01H
	DB	078H
	DB	01H
	DB	078H
	DB	01H
	DB	078H
	DB	01H
	DB	078H
	DB	01H
	DB	078H
	DB	01H
	DB	078H
	DB	01H
	DB	078H
	DB	01H
	DB	078H
	DB	01H
	DB	078H
	DB	01H
	DB	070H
	DB	01H
	DB	078H
	DB	02H
	DB	078H
	DB	01H
	DB	070H
	DB	02H
	DB	070H
	DB	02H
	DB	070H
	DB	02H
	DB	070H
	DB	02H
	DB	070H
	DB	02H
	DB	070H
	DB	02H
	DB	070H
	DB	02H
	DB	070H
	DB	02H
	DB	070H
	DB	02H
	DB	070H
	DB	02H
	DB	070H
	DB	02H
	DB	070H
	DB	02H
	DB	070H
	DB	02H
	DB	068H
	DB	02H
	DB	070H
	DB	03H
	DB	070H
	DB	02H
	DB	068H
	DB	02H
	DB	068H
	DB	03H
	DB	070H
	DB	03H
	DB	068H
	DB	03H
	DB	068H
	DB	03H
	DB	068H
	DB	03H
	DB	068H
	DB	03H
	DB	068H
	DB	03H
	DB	068H
	DB	03H
	DB	068H
	DB	03H
	DB	068H
	DB	03H
	DB	068H
	DB	03H
	DB	068H
	DB	03H
	DB	068H
	DB	03H
	DB	060H
	DB	03H
	DB	068H
	DB	03H
	DB	068H
	DB	04H
	DB	060H
	DB	03H
	DB	060H
	DB	04H
	DB	060H
	DB	04H
	DB	060H
	DB	04H
	DB	060H
	DB	04H
	DB	060H
	DB	04H
	DB	060H
	DB	04H
	DB	060H
	DB	04H
	DB	060H
	DB	04H
	DB	060H
	DB	04H
	DB	060H
	DB	04H
	DB	060H
	DB	04H
	DB	060H
	DB	04H
	DB	060H
	DB	04H
	DB	060H
	DB	04H
	DB	058H
	DB	05H
	DB	058H
	DB	04H
	DB	060H
	DB	05H
	DB	058H
	DB	05H
	DB	058H
	DB	05H
	DB	058H
	DB	05H
	DB	058H
	DB	05H
	DB	058H
	DB	05H
	DB	058H
	DB	05H
	DB	058H
	DB	05H
	DB	058H
	DB	05H
	DB	058H
	DB	05H
	DB	058H
	DB	05H
	DB	058H
	DB	05H
	DB	058H
	DB	05H
	DB	058H
	DB	05H
	DB	050H
	DB	05H
	DB	058H
	DB	05H
	DB	058H
	DB	06H
	DB	050H
	DB	06H
	DB	050H
	DB	05H
	DB	050H
	DB	06H
	DB	050H
	DB	06H
	DB	050H
	DB	06H
	DB	050H
	DB	06H
	DB	050H
	DB	06H
	DB	050H
	DB	06H
	DB	050H
	DB	06H
	DB	050H
	DB	06H
	DB	050H
	DB	06H
	DB	050H
	DB	06H
	DB	050H
	DB	06H
	DB	050H
	DB	06H
	DB	050H
	DB	06H
	DB	048H
	DB	07H
	DB	048H
	DB	06H
	DB	050H
	DB	06H
	DB	048H
	DB	07H
	DB	048H
	DB	07H
	DB	048H
	DB	07H
	DB	048H
	DB	07H
	DB	048H
	DB	07H
	DB	048H
	DB	07H
	DB	048H
	DB	07H
	DB	048H
	DB	07H
	DB	048H
	DB	07H
	DB	048H
	DB	07H
	DB	048H
	DB	07H
	DB	048H
	DB	07H
	DB	040H
	DB	07H
	DB	048H
	DB	07H
	DB	040H
	DB	08H
	DB	040H
	DB	08H
	DB	048H
	DB	07H
	DB	040H
	DB	08H
	DB	040H
	DB	08H
	DB	040H
	DB	08H
	DB	040H
	DB	08H
	DB	040H
	DB	08H
	DB	040H
	DB	08H
	DB	040H
	DB	08H
	DB	040H
	DB	08H
	DB	040H
	DB	08H
	DB	040H
	DB	08H
	DB	040H
	DB	08H
	DB	040H
	DB	09H
	DB	038H
	DB	08H
	DB	038H
	DB	09H
	DB	038H
	DB	09H
	DB	038H
	DB	09H
	DB	038H
	DB	09H
	DB	038H
	DB	09H
	DB	038H
	DB	09H
	DB	038H
	DB	09H
	DB	038H
	DB	09H
	DB	038H
	DB	09H
	DB	038H
	DB	09H
	DB	038H
	DB	09H
	DB	038H
	DB	09H
	DB	030H
	DB	09H
	DB	030H
	DB	0aH
	DB	030H
	DB	0aH
	DB	030H
	DB	0aH
	DB	030H
	DB	0aH
	DB	030H
	DB	0aH
	DB	030H
	DB	0aH
	DB	030H
	DB	0aH
	DB	030H
	DB	0aH
	DB	030H
	DB	0aH
	DB	030H
	DB	0aH
	DB	030H
	DB	0aH
	DB	030H
	DB	0aH
	DB	030H
	DB	0bH
	DB	028H
	DB	0bH
	DB	028H
	DB	0aH
	DB	028H
	DB	0bH
	DB	028H
	DB	0bH
	DB	028H
	DB	0bH
	DB	028H
	DB	0bH
	DB	028H
	DB	0bH
	DB	028H
	DB	0bH
	DB	028H
	DB	0bH
	DB	028H
	DB	0bH
	DB	028H
	DB	0bH
	DB	028H
	DB	0bH
	DB	028H
	DB	0cH
	DB	020H
	DB	0bH
	DB	020H
	DB	0cH
	DB	020H
	DB	0cH
	DB	020H
	DB	0bH
	DB	020H
	DB	0cH
	DB	020H
	DB	0cH
	DB	020H
	DB	0cH
	DB	020H
	DB	0cH
	DB	020H
	DB	0cH
	DB	020H
	DB	0cH
	DB	020H
	DB	0cH
	DB	020H
	DB	0cH
	DB	018H
	DB	0cH
	DB	020H
	DB	0cH
	DB	018H
	DB	0dH
	DB	018H
	DB	0dH
	DB	018H
	DB	0cH
	DB	018H
	DB	0dH
	DB	018H
	DB	0dH
	DB	018H
	DB	0dH
	DB	018H
	DB	0dH
	DB	018H
	DB	0dH
	DB	018H
	DB	0dH
	DB	018H
	DB	0dH
	DB	018H
	DB	0dH
	DB	018H
	DB	0dH
	DB	010H
	DB	0eH
	DB	018H
	DB	0eH
	DB	010H
	DB	0dH
	DB	010H
	DB	0eH
	DB	010H
	DB	0eH
	DB	010H
	DB	0eH
	DB	010H
	DB	0eH
	DB	010H
	DB	0eH
	DB	010H
	DB	0eH
	DB	010H
	DB	0eH
	DB	010H
	DB	0eH
	DB	010H
	DB	0eH
	DB	010H
	DB	0eH
	DB	08H
	DB	0eH
	DB	08H
	DB	0fH
	DB	010H
	DB	0eH
	DB	08H
	DB	0fH
	DB	08H
	DB	0fH
	DB	08H
	DB	0fH
	DB	08H
	DB	0fH
	DB	08H
	DB	0fH
	DB	08H
	DB	0fH
	DB	08H
	DB	0fH
	DB	08H
	DB	0fH
	DB	08H
	DB	0fH
	DB	08H
	DB	0fH
	DB	08H
	DB	0fH
	DB	00H
	DB	010H
	DB	00H
	DB	010H
	DB	08H
	DB	0fH
	DB	00H
	DB	010H
	DB	00H
	DB	010H
	DB	00H
	DB	010H
	DB	00H
	DB	010H
	DB	00H
	DB	010H
	DB	00H
	DB	00H
	DB	04H
	DB	00H
	DB	04H
	DB	00H
	DB	04H
	DB	0e0H
	DB	03H
	DB	00H
	DB	04H
	DB	0e0H
	DB	0bH
	DB	0e0H
	DB	03H
	DB	0e0H
	DB	03H
	DB	0e0H
	DB	0bH
	DB	0e0H
	DB	03H
	DB	0e0H
	DB	0bH
	DB	0c0H
	DB	0bH
	DB	0e0H
	DB	0bH
	DB	0c0H
	DB	0bH
	DB	0c0H
	DB	0bH
	DB	0c0H
	DB	0bH
	DB	0c0H
	DB	0bH
	DB	0c0H
	DB	0bH
	DB	0c0H
	DB	0bH
	DB	0c0H
	DB	0bH
	DB	0a0H
	DB	0bH
	DB	0a0H
	DB	013H
	DB	0a0H
	DB	0bH
	DB	0a0H
	DB	013H
	DB	0a0H
	DB	013H
	DB	0a0H
	DB	0bH
	DB	0a0H
	DB	013H
	DB	080H
	DB	013H
	DB	080H
	DB	013H
	DB	080H
	DB	013H
	DB	080H
	DB	013H
	DB	080H
	DB	013H
	DB	080H
	DB	013H
	DB	060H
	DB	013H
	DB	080H
	DB	013H
	DB	060H
	DB	01bH
	DB	060H
	DB	013H
	DB	060H
	DB	013H
	DB	060H
	DB	01bH
	DB	060H
	DB	01bH
	DB	040H
	DB	013H
	DB	060H
	DB	01bH
	DB	040H
	DB	01bH
	DB	040H
	DB	01bH
	DB	040H
	DB	01bH
	DB	040H
	DB	01bH
	DB	040H
	DB	01bH
	DB	020H
	DB	01bH
	DB	040H
	DB	01bH
	DB	020H
	DB	023H
	DB	020H
	DB	01bH
	DB	020H
	DB	01bH
	DB	020H
	DB	023H
	DB	020H
	DB	023H
	DB	020H
	DB	01bH
	DB	020H
	DB	023H
	DB	00H
	DB	023H
	DB	020H
	DB	023H
	DB	00H
	DB	023H
	DB	00H
	DB	023H
	DB	00H
	DB	023H
	DB	00H
	DB	023H
	DB	0e0H
	DB	022H
	DB	00H
	DB	023H
	DB	0e0H
	DB	02aH
	DB	0e0H
	DB	02aH
	DB	0e0H
	DB	022H
	DB	0e0H
	DB	02aH
	DB	0e0H
	DB	02aH
	DB	0e0H
	DB	022H
	DB	0c0H
	DB	02aH
	DB	0e0H
	DB	02aH
	DB	0c0H
	DB	02aH
	DB	0c0H
	DB	02aH
	DB	0c0H
	DB	02aH
	DB	0c0H
	DB	02aH
	DB	0c0H
	DB	02aH
	DB	0a0H
	DB	02aH
	DB	0c0H
	DB	02aH
	DB	0a0H
	DB	032H
	DB	0a0H
	DB	02aH
	DB	0a0H
	DB	02aH
	DB	0a0H
	DB	032H
	DB	0a0H
	DB	032H
	DB	080H
	DB	032H
	DB	0a0H
	DB	032H
	DB	080H
	DB	032H
	DB	080H
	DB	032H
	DB	080H
	DB	032H
	DB	080H
	DB	032H
	DB	080H
	DB	032H
	DB	060H
	DB	032H
	DB	080H
	DB	032H
	DB	080H
	DB	03aH
	DB	060H
	DB	032H
	DB	060H
	DB	03aH
	DB	060H
	DB	03aH
	DB	060H
	DB	032H
	DB	060H
	DB	032H
	DB	040H
	DB	03aH
	DB	040H
	DB	03aH
	DB	040H
	DB	03aH
	DB	040H
	DB	03aH
	DB	040H
	DB	03aH
	DB	040H
	DB	03aH
	DB	040H
	DB	03aH
	DB	040H
	DB	03aH
	DB	020H
	DB	03aH
	DB	020H
	DB	042H
	DB	020H
	DB	042H
	DB	020H
	DB	03aH
	DB	020H
	DB	042H
	DB	020H
	DB	042H
	DB	020H
	DB	042H
	DB	00H
	DB	042H
	DB	020H
	DB	03aH
	DB	00H
	DB	042H
	DB	00H
	DB	042H
	DB	00H
	DB	042H
	DB	00H
	DB	042H
	DB	00H
	DB	042H
	DB	00H
	DB	042H
	DB	0e0H
	DB	041H
	DB	0e0H
	DB	049H
	DB	0e0H
	DB	049H
	DB	0e0H
	DB	041H
	DB	0e0H
	DB	049H
	DB	0e0H
	DB	049H
	DB	0e0H
	DB	041H
	DB	0c0H
	DB	049H
	DB	0c0H
	DB	049H
	DB	0c0H
	DB	049H
	DB	0c0H
	DB	049H
	DB	0c0H
	DB	049H
	DB	0c0H
	DB	049H
	DB	0c0H
	DB	049H
	DB	0a0H
	DB	049H
	DB	0c0H
	DB	049H
	DB	0a0H
	DB	051H
	DB	0a0H
	DB	051H
	DB	0a0H
	DB	049H
	DB	0a0H
	DB	051H
	DB	0a0H
	DB	049H
	DB	0a0H
	DB	051H
	DB	080H
	DB	051H
	DB	080H
	DB	051H
	DB	080H
	DB	051H
	DB	080H
	DB	051H
	DB	080H
	DB	051H
	DB	080H
	DB	051H
	DB	080H
	DB	051H
	DB	060H
	DB	051H
	DB	060H
	DB	059H
	DB	060H
	DB	051H
	DB	060H
	DB	051H
	DB	060H
	DB	059H
	DB	060H
	DB	059H
	DB	060H
	DB	051H
	DB	040H
	DB	059H
	DB	060H
	DB	059H
	DB	060H
	DB	051H
	DB	040H
	DB	059H
	DB	040H
	DB	059H
	DB	040H
	DB	059H
	DB	040H
	DB	059H
	DB	020H
	DB	059H
	DB	040H
	DB	059H
	DB	020H
	DB	059H
	DB	020H
	DB	061H
	DB	020H
	DB	059H
	DB	020H
	DB	061H
	DB	020H
	DB	061H
	DB	020H
	DB	059H
	DB	020H
	DB	061H
	DB	00H
	DB	061H
	DB	00H
	DB	061H
	DB	00H
	DB	061H
	DB	00H
	DB	061H
	DB	00H
	DB	061H
	DB	00H
	DB	061H
	DB	00H
	DB	061H
	DB	0e0H
	DB	060H
	DB	0e0H
	DB	060H
	DB	0e0H
	DB	060H
	DB	0e0H
	DB	068H
	DB	0e0H
	DB	068H
	DB	0e0H
	DB	060H
	DB	0e0H
	DB	068H
	DB	0e0H
	DB	068H
	DB	0c0H
	DB	068H
	DB	0e0H
	DB	068H
	DB	0c0H
	DB	068H
	DB	0c0H
	DB	068H
	DB	0c0H
	DB	068H
	DB	0c0H
	DB	068H
	DB	0c0H
	DB	068H
	DB	0c0H
	DB	068H
	DB	0a0H
	DB	068H
	DB	0a0H
	DB	070H
	DB	0a0H
	DB	068H
	DB	0a0H
	DB	070H
	DB	0a0H
	DB	068H
	DB	0a0H
	DB	070H
	DB	0a0H
	DB	070H
	DB	080H
	DB	068H
	DB	080H
	DB	070H
	DB	080H
	DB	070H
	DB	080H
	DB	070H
	DB	080H
	DB	070H
	DB	080H
	DB	070H
	DB	080H
	DB	070H
	DB	060H
	DB	070H
	DB	060H
	DB	070H
	DB	060H
	DB	078H
	DB	060H
	DB	070H
	DB	060H
	DB	070H
	DB	060H
	DB	078H
	DB	060H
	DB	078H
	DB	060H
	DB	078H
	DB	040H
	DB	078H
	DB	060H
	DB	078H
	DB	040H
	DB	078H
	DB	040H
	DB	078H
	DB	040H
	DB	078H
	DB	040H
	DB	078H
	DB	040H
	DB	078H
	DB	020H
	DB	078H
	DB	040H
	DB	078H
	DB	020H
	DB	078H
	DB	020H
	DB	080H
	DB	020H
	DB	078H
	DB	020H
	DB	080H
	DB	020H
	DB	080H
	DB	020H
	DB	080H
	DB	00H
	DB	080H
	DB	020H
	DB	078H
	DB	00H
	DB	080H
	DB	00H
	DB	080H
	DB	00H
	DB	080H
	DB	00H
	DB	080H
	DB	00H
	DB	080H
	DB	00H
	DB	080H
	DB	00H
	DB	080H
	DB	00H
	DB	080H
	DB	00H
	DB	080H
	DB	01H
	DB	078H
	DB	00H
	DB	078H
	DB	01H
	DB	080H
	DB	00H
	DB	078H
	DB	01H
	DB	078H
	DB	00H
	DB	080H
	DB	01H
	DB	078H
	DB	01H
	DB	078H
	DB	01H
	DB	078H
	DB	01H
	DB	078H
	DB	01H
	DB	078H
	DB	01H
	DB	078H
	DB	01H
	DB	078H
	DB	01H
	DB	078H
	DB	01H
	DB	078H
	DB	01H
	DB	078H
	DB	02H
	DB	070H
	DB	02H
	DB	078H
	DB	01H
	DB	070H
	DB	01H
	DB	078H
	DB	01H
	DB	078H
	DB	02H
	DB	070H
	DB	02H
	DB	070H
	DB	01H
	DB	070H
	DB	02H
	DB	070H
	DB	02H
	DB	070H
	DB	02H
	DB	070H
	DB	02H
	DB	070H
	DB	02H
	DB	070H
	DB	02H
	DB	070H
	DB	02H
	DB	070H
	DB	02H
	DB	070H
	DB	02H
	DB	070H
	DB	02H
	DB	068H
	DB	03H
	DB	070H
	DB	03H
	DB	068H
	DB	02H
	DB	070H
	DB	03H
	DB	068H
	DB	02H
	DB	068H
	DB	03H
	DB	068H
	DB	03H
	DB	068H
	DB	03H
	DB	068H
	DB	03H
	DB	068H
	DB	03H
	DB	068H
	DB	03H
	DB	068H
	DB	03H
	DB	068H
	DB	03H
	DB	068H
	DB	03H
	DB	068H
	DB	03H
	DB	068H
	DB	04H
	DB	068H
	DB	03H
	DB	060H
	DB	03H
	DB	068H
	DB	04H
	DB	068H
	DB	03H
	DB	060H
	DB	04H
	DB	068H
	DB	03H
	DB	060H
	DB	04H
	DB	060H
	DB	04H
	DB	060H
	DB	04H
	DB	060H
	DB	04H
	DB	060H
	DB	04H
	DB	060H
	DB	04H
	DB	060H
	DB	04H
	DB	060H
	DB	04H
	DB	060H
	DB	04H
	DB	060H
	DB	05H
	DB	058H
	DB	04H
	DB	060H
	DB	05H
	DB	060H
	DB	04H
	DB	058H
	DB	04H
	DB	060H
	DB	04H
	DB	058H
	DB	05H
	DB	058H
	DB	04H
	DB	060H
	DB	05H
	DB	058H
	DB	05H
	DB	058H
	DB	04H
	DB	058H
	DB	05H
	DB	058H
	DB	05H
	DB	058H
	DB	05H
	DB	058H
	DB	05H
	DB	058H
	DB	05H
	DB	058H
	DB	05H
	DB	058H
	DB	05H
	DB	050H
	DB	06H
	DB	058H
	DB	06H
	DB	058H
	DB	05H
	DB	050H
	DB	05H
	DB	058H
	DB	06H
	DB	058H
	DB	06H
	DB	050H
	DB	06H
	DB	050H
	DB	06H
	DB	050H
	DB	06H
	DB	050H
	DB	06H
	DB	050H
	DB	06H
	DB	050H
	DB	06H
	DB	050H
	DB	06H
	DB	050H
	DB	06H
	DB	050H
	DB	06H
	DB	050H
	DB	06H
	DB	050H
	DB	06H
	DB	050H
	DB	07H
	DB	048H
	DB	07H
	DB	050H
	DB	06H
	DB	050H
	DB	07H
	DB	048H
	DB	07H
	DB	048H
	DB	07H
	DB	050H
	DB	07H
	DB	048H
	DB	06H
	DB	048H
	DB	07H
	DB	048H
	DB	07H
	DB	048H
	DB	07H
	DB	048H
	DB	07H
	DB	048H
	DB	07H
	DB	048H
	DB	07H
	DB	048H
	DB	07H
	DB	048H
	DB	07H
	DB	048H
	DB	08H
	DB	048H
	DB	07H
	DB	048H
	DB	08H
	DB	040H
	DB	07H
	DB	048H
	DB	07H
	DB	048H
	DB	08H
	DB	040H
	DB	08H
	DB	040H
	DB	08H
	DB	040H
	DB	07H
	DB	040H
	DB	08H
	DB	040H
	DB	08H
	DB	040H
	DB	08H
	DB	040H
	DB	08H
	DB	040H
	DB	08H
	DB	040H
	DB	08H
	DB	040H
	DB	08H
	DB	040H
	DB	09H
	DB	038H
	DB	08H
	DB	040H
	DB	08H
	DB	040H
	DB	08H
	DB	038H
	DB	09H
	DB	040H
	DB	09H
	DB	038H
	DB	08H
	DB	038H
	DB	09H
	DB	038H
	DB	09H
	DB	038H
	DB	09H
	DB	038H
	DB	09H
	DB	038H
	DB	09H
	DB	038H
	DB	09H
	DB	038H
	DB	0aH
	DB	030H
	DB	0aH
	DB	038H
	DB	09H
	DB	038H
	DB	0aH
	DB	030H
	DB	09H
	DB	038H
	DB	0aH
	DB	030H
	DB	0aH
	DB	030H
	DB	0aH
	DB	030H
	DB	0aH
	DB	030H
	DB	0aH
	DB	030H
	DB	0aH
	DB	030H
	DB	0aH
	DB	030H
	DB	0aH
	DB	030H
	DB	0aH
	DB	028H
	DB	0aH
	DB	030H
	DB	0bH
	DB	030H
	DB	0bH
	DB	030H
	DB	0aH
	DB	028H
	DB	0bH
	DB	030H
	DB	0bH
	DB	028H
	DB	0bH
	DB	028H
	DB	0bH
	DB	028H
	DB	0bH
	DB	028H
	DB	0bH
	DB	028H
	DB	0bH
	DB	028H
	DB	0bH
	DB	028H
	DB	0bH
	DB	028H
	DB	0bH
	DB	020H
	DB	0cH
	DB	028H
	DB	0bH
	DB	028H
	DB	0cH
	DB	020H
	DB	0cH
	DB	028H
	DB	0cH
	DB	020H
	DB	0cH
	DB	020H
	DB	0cH
	DB	020H
	DB	0cH
	DB	020H
	DB	0cH
	DB	020H
	DB	0cH
	DB	020H
	DB	0cH
	DB	020H
	DB	0cH
	DB	020H
	DB	0cH
	DB	020H
	DB	0dH
	DB	020H
	DB	0dH
	DB	020H
	DB	0cH
	DB	018H
	DB	0dH
	DB	020H
	DB	0dH
	DB	018H
	DB	0dH
	DB	018H
	DB	0dH
	DB	018H
	DB	0dH
	DB	018H
	DB	0dH
	DB	018H
	DB	0dH
	DB	018H
	DB	0dH
	DB	018H
	DB	0dH
	DB	018H
	DB	0dH
	DB	018H
	DB	0dH
	DB	010H
	DB	0eH
	DB	018H
	DB	0eH
	DB	010H
	DB	0dH
	DB	018H
	DB	0eH
	DB	010H
	DB	0eH
	DB	010H
	DB	0eH
	DB	010H
	DB	0eH
	DB	010H
	DB	0eH
	DB	010H
	DB	0eH
	DB	010H
	DB	0eH
	DB	010H
	DB	0eH
	DB	010H
	DB	0fH
	DB	010H
	DB	0eH
	DB	010H
	DB	0fH
	DB	010H
	DB	0eH
	DB	08H
	DB	0fH
	DB	08H
	DB	0fH
	DB	010H
	DB	0fH
	DB	08H
	DB	0fH
	DB	08H
	DB	0fH
	DB	08H
	DB	0fH
	DB	08H
	DB	0fH
	DB	08H
	DB	0fH
	DB	08H
	DB	0fH
	DB	08H
	DB	0fH
	DB	08H
	DB	010H
	DB	00H
	DB	0fH
	DB	00H
	DB	0fH
	DB	08H
	DB	010H
	DB	08H
	DB	010H
	DB	00H
	DB	0fH
	DB	00H
	DB	010H
	DB	00H
	DB	010H
	DB	00H
	DB	010H
	DB	00H
	DB	010H
	DB	00H
	DB	00H
	DB	04H
	DB	00H
	DB	04H
	DB	00H
	DB	04H
	DB	0e0H
	DB	03H
	DB	00H
	DB	04H
	DB	0e0H
	DB	03H
	DB	0e0H
	DB	0bH
	DB	0e0H
	DB	0bH
	DB	0e0H
	DB	03H
	DB	0e0H
	DB	0bH
	DB	0c0H
	DB	03H
	DB	0e0H
	DB	0bH
	DB	0c0H
	DB	0bH
	DB	0c0H
	DB	03H
	DB	0c0H
	DB	0bH
	DB	0c0H
	DB	0bH
	DB	0c0H
	DB	0bH
	DB	0c0H
	DB	0bH
	DB	0a0H
	DB	0bH
	DB	0c0H
	DB	0bH
	DB	0a0H
	DB	013H
	DB	0a0H
	DB	0bH
	DB	0a0H
	DB	013H
	DB	0a0H
	DB	0bH
	DB	0a0H
	DB	0bH
	DB	080H
	DB	013H
	DB	0a0H
	DB	013H
	DB	080H
	DB	0bH
	DB	080H
	DB	013H
	DB	080H
	DB	013H
	DB	080H
	DB	013H
	DB	080H
	DB	013H
	DB	080H
	DB	013H
	DB	060H
	DB	013H
	DB	060H
	DB	01bH
	DB	060H
	DB	01bH
	DB	060H
	DB	013H
	DB	060H
	DB	013H
	DB	060H
	DB	01bH
	DB	060H
	DB	01bH
	DB	060H
	DB	01bH
	DB	040H
	DB	013H
	DB	040H
	DB	01bH
	DB	040H
	DB	01bH
	DB	040H
	DB	01bH
	DB	040H
	DB	01bH
	DB	040H
	DB	01bH
	DB	020H
	DB	01bH
	DB	040H
	DB	01bH
	DB	020H
	DB	023H
	DB	020H
	DB	023H
	DB	020H
	DB	01bH
	DB	020H
	DB	023H
	DB	020H
	DB	01bH
	DB	020H
	DB	023H
	DB	00H
	DB	01bH
	DB	00H
	DB	023H
	DB	00H
	DB	023H
	DB	00H
	DB	023H
	DB	00H
	DB	023H
	DB	00H
	DB	023H
	DB	00H
	DB	023H
	DB	00H
	DB	023H
	DB	00H
	DB	023H
	DB	00H
	DB	023H
	DB	0e0H
	DB	02aH
	DB	0e0H
	DB	022H
	DB	0e0H
	DB	02aH
	DB	0e0H
	DB	022H
	DB	0e0H
	DB	02aH
	DB	0c0H
	DB	02aH
	DB	0c0H
	DB	02aH
	DB	0c0H
	DB	02aH
	DB	0c0H
	DB	02aH
	DB	0c0H
	DB	02aH
	DB	0c0H
	DB	02aH
	DB	0a0H
	DB	02aH
	DB	0a0H
	DB	02aH
	DB	0c0H
	DB	032H
	DB	0a0H
	DB	032H
	DB	0a0H
	DB	02aH
	DB	0a0H
	DB	02aH
	DB	0a0H
	DB	032H
	DB	0a0H
	DB	02aH
	DB	0a0H
	DB	032H
	DB	080H
	DB	02aH
	DB	080H
	DB	032H
	DB	080H
	DB	032H
	DB	080H
	DB	032H
	DB	080H
	DB	032H
	DB	080H
	DB	032H
	DB	060H
	DB	032H
	DB	080H
	DB	032H
	DB	060H
	DB	03aH
	DB	060H
	DB	032H
	DB	060H
	DB	032H
	DB	060H
	DB	03aH
	DB	060H
	DB	03aH
	DB	060H
	DB	032H
	DB	040H
	DB	03aH
	DB	040H
	DB	03aH
	DB	040H
	DB	03aH
	DB	040H
	DB	03aH
	DB	040H
	DB	03aH
	DB	040H
	DB	03aH
	DB	040H
	DB	03aH
	DB	020H
	DB	03aH
	DB	040H
	DB	03aH
	DB	020H
	DB	03aH
	DB	020H
	DB	042H
	DB	020H
	DB	03aH
	DB	020H
	DB	03aH
	DB	020H
	DB	042H
	DB	00H
	DB	03aH
	DB	00H
	DB	042H
	DB	020H
	DB	042H
	DB	00H
	DB	042H
	DB	00H
	DB	042H
	DB	00H
	DB	042H
	DB	00H
	DB	042H
	DB	0e0H
	DB	041H
	DB	00H
	DB	042H
	DB	0e0H
	DB	041H
	DB	0e0H
	DB	049H
	DB	0e0H
	DB	041H
	DB	0e0H
	DB	041H
	DB	0e0H
	DB	049H
	DB	0e0H
	DB	049H
	DB	0e0H
	DB	041H
	DB	0e0H
	DB	049H
	DB	0c0H
	DB	049H
	DB	0c0H
	DB	049H
	DB	0c0H
	DB	049H
	DB	0c0H
	DB	049H
	DB	0c0H
	DB	049H
	DB	0c0H
	DB	049H
	DB	0c0H
	DB	049H
	DB	0a0H
	DB	051H
	DB	0a0H
	DB	049H
	DB	0a0H
	DB	049H
	DB	0a0H
	DB	051H
	DB	0a0H
	DB	051H
	DB	0a0H
	DB	049H
	DB	0a0H
	DB	051H
	DB	080H
	DB	051H
	DB	080H
	DB	051H
	DB	080H
	DB	051H
	DB	080H
	DB	051H
	DB	080H
	DB	051H
	DB	080H
	DB	051H
	DB	060H
	DB	051H
	DB	080H
	DB	051H
	DB	060H
	DB	051H
	DB	080H
	DB	059H
	DB	060H
	DB	051H
	DB	060H
	DB	059H
	DB	060H
	DB	051H
	DB	060H
	DB	059H
	DB	040H
	DB	051H
	DB	040H
	DB	059H
	DB	040H
	DB	059H
	DB	040H
	DB	059H
	DB	040H
	DB	059H
	DB	040H
	DB	059H
	DB	040H
	DB	059H
	DB	040H
	DB	059H
	DB	040H
	DB	059H
	DB	020H
	DB	061H
	DB	020H
	DB	059H
	DB	040H
	DB	059H
	DB	020H
	DB	061H
	DB	020H
	DB	059H
	DB	020H
	DB	059H
	DB	020H
	DB	061H
	DB	020H
	DB	059H
	DB	00H
	DB	061H
	DB	00H
	DB	061H
	DB	00H
	DB	061H
	DB	00H
	DB	061H
	DB	00H
	DB	061H
	DB	0e0H
	DB	060H
	DB	00H
	DB	061H
	DB	00H
	DB	061H
	DB	0e0H
	DB	068H
	DB	0e0H
	DB	060H
	DB	0e0H
	DB	060H
	DB	0e0H
	DB	068H
	DB	0e0H
	DB	068H
	DB	0e0H
	DB	060H
	DB	0c0H
	DB	068H
	DB	0e0H
	DB	068H
	DB	0c0H
	DB	068H
	DB	0c0H
	DB	068H
	DB	0c0H
	DB	068H
	DB	0c0H
	DB	068H
	DB	0c0H
	DB	068H
	DB	0a0H
	DB	068H
	DB	0c0H
	DB	068H
	DB	0a0H
	DB	070H
	DB	0a0H
	DB	068H
	DB	0a0H
	DB	070H
	DB	0a0H
	DB	070H
	DB	0a0H
	DB	068H
	DB	0a0H
	DB	070H
	DB	0a0H
	DB	068H
	DB	0a0H
	DB	070H
	DB	080H
	DB	070H
	DB	080H
	DB	070H
	DB	080H
	DB	070H
	DB	080H
	DB	070H
	DB	080H
	DB	070H
	DB	060H
	DB	070H
	DB	080H
	DB	070H
	DB	060H
	DB	078H
	DB	060H
	DB	078H
	DB	060H
	DB	070H
	DB	060H
	DB	070H
	DB	060H
	DB	070H
	DB	060H
	DB	078H
	DB	040H
	DB	070H
	DB	040H
	DB	078H
	DB	060H
	DB	078H
	DB	040H
	DB	078H
	DB	040H
	DB	078H
	DB	040H
	DB	078H
	DB	040H
	DB	078H
	DB	020H
	DB	078H
	DB	040H
	DB	080H
	DB	020H
	DB	080H
	DB	020H
	DB	078H
	DB	020H
	DB	078H
	DB	020H
	DB	080H
	DB	020H
	DB	078H
	DB	020H
	DB	078H
	DB	00H
	DB	080H
	DB	020H
	DB	080H
	DB	00H
	DB	080H
	DB	00H
	DB	080H
	DB	00H
	DB	080H
	DB	00H
	DB	080H
	DB	00H
	DB	080H
	DB	00H
	DB	080H
	DB	00H
	DB	078H
	DB	01H
	DB	080H
	DB	00H
	DB	078H
	DB	00H
	DB	080H
	DB	01H
	DB	080H
	DB	01H
	DB	078H
	DB	01H
	DB	080H
	DB	00H
	DB	080H
	DB	01H
	DB	078H
	DB	01H
	DB	078H
	DB	01H
	DB	080H
	DB	01H
	DB	078H
	DB	01H
	DB	078H
	DB	01H
	DB	078H
	DB	01H
	DB	078H
	DB	01H
	DB	078H
	DB	01H
	DB	078H
	DB	01H
	DB	078H
	DB	01H
	DB	070H
	DB	01H
	DB	078H
	DB	02H
	DB	078H
	DB	02H
	DB	070H
	DB	01H
	DB	070H
	DB	02H
	DB	078H
	DB	02H
	DB	078H
	DB	01H
	DB	070H
	DB	02H
	DB	078H
	DB	02H
	DB	070H
	DB	02H
	DB	070H
	DB	02H
	DB	070H
	DB	02H
	DB	070H
	DB	02H
	DB	070H
	DB	02H
	DB	070H
	DB	02H
	DB	070H
	DB	02H
	DB	070H
	DB	03H
	DB	068H
	DB	02H
	DB	070H
	DB	02H
	DB	070H
	DB	02H
	DB	068H
	DB	03H
	DB	070H
	DB	03H
	DB	068H
	DB	02H
	DB	068H
	DB	03H
	DB	070H
	DB	03H
	DB	068H
	DB	03H
	DB	068H
	DB	03H
	DB	068H
	DB	03H
	DB	068H
	DB	03H
	DB	068H
	DB	03H
	DB	068H
	DB	03H
	DB	068H
	DB	03H
	DB	068H
	DB	03H
	DB	068H
	DB	04H
	DB	060H
	DB	04H
	DB	068H
	DB	04H
	DB	060H
	DB	03H
	DB	060H
	DB	04H
	DB	068H
	DB	04H
	DB	060H
	DB	04H
	DB	068H
	DB	03H
	DB	060H
	DB	04H
	DB	068H
	DB	04H
	DB	060H
	DB	04H
	DB	060H
	DB	04H
	DB	060H
	DB	04H
	DB	060H
	DB	04H
	DB	060H
	DB	04H
	DB	060H
	DB	04H
	DB	058H
	DB	04H
	DB	060H
	DB	05H
	DB	060H
	DB	04H
	DB	058H
	DB	05H
	DB	060H
	DB	05H
	DB	060H
	DB	04H
	DB	058H
	DB	05H
	DB	060H
	DB	04H
	DB	058H
	DB	05H
	DB	058H
	DB	05H
	DB	058H
	DB	05H
	DB	058H
	DB	05H
	DB	058H
	DB	05H
	DB	058H
	DB	05H
	DB	058H
	DB	05H
	DB	058H
	DB	05H
	DB	058H
	DB	05H
	DB	058H
	DB	05H
	DB	058H
	DB	06H
	DB	050H
	DB	05H
	DB	058H
	DB	06H
	DB	050H
	DB	06H
	DB	050H
	DB	05H
	DB	058H
	DB	06H
	DB	050H
	DB	05H
	DB	050H
	DB	06H
	DB	058H
	DB	06H
	DB	050H
	DB	06H
	DB	050H
	DB	06H
	DB	050H
	DB	06H
	DB	050H
	DB	06H
	DB	050H
	DB	06H
	DB	050H
	DB	06H
	DB	048H
	DB	06H
	DB	050H
	DB	07H
	DB	050H
	DB	06H
	DB	050H
	DB	06H
	DB	048H
	DB	07H
	DB	050H
	DB	07H
	DB	048H
	DB	06H
	DB	048H
	DB	06H
	DB	050H
	DB	07H
	DB	048H
	DB	07H
	DB	048H
	DB	07H
	DB	048H
	DB	07H
	DB	048H
	DB	07H
	DB	048H
	DB	07H
	DB	048H
	DB	07H
	DB	048H
	DB	07H
	DB	048H
	DB	07H
	DB	040H
	DB	08H
	DB	048H
	DB	07H
	DB	048H
	DB	08H
	DB	040H
	DB	08H
	DB	048H
	DB	07H
	DB	040H
	DB	08H
	DB	048H
	DB	08H
	DB	040H
	DB	07H
	DB	048H
	DB	08H
	DB	040H
	DB	08H
	DB	040H
	DB	08H
	DB	040H
	DB	08H
	DB	040H
	DB	08H
	DB	040H
	DB	08H
	DB	040H
	DB	08H
	DB	040H
	DB	08H
	DB	040H
	DB	09H
	DB	038H
	DB	08H
	DB	040H
	DB	09H
	DB	038H
	DB	09H
	DB	040H
	DB	08H
	DB	038H
	DB	09H
	DB	040H
	DB	09H
	DB	040H
	DB	08H
	DB	038H
	DB	09H
	DB	038H
	DB	09H
	DB	038H
	DB	09H
	DB	038H
	DB	09H
	DB	038H
	DB	09H
	DB	038H
	DB	09H
	DB	038H
	DB	0aH
	DB	038H
	DB	09H
	DB	038H
	DB	0aH
	DB	030H
	DB	09H
	DB	038H
	DB	0aH
	DB	038H
	DB	0aH
	DB	030H
	DB	09H
	DB	030H
	DB	0aH
	DB	030H
	DB	0aH
	DB	030H
	DB	0aH
	DB	030H
	DB	0aH
	DB	030H
	DB	0aH
	DB	030H
	DB	0aH
	DB	030H
	DB	0bH
	DB	028H
	DB	0aH
	DB	028H
	DB	0aH
	DB	030H
	DB	0aH
	DB	028H
	DB	0bH
	DB	028H
	DB	0aH
	DB	028H
	DB	0bH
	DB	030H
	DB	0bH
	DB	028H
	DB	0bH
	DB	028H
	DB	0bH
	DB	028H
	DB	0bH
	DB	028H
	DB	0bH
	DB	028H
	DB	0bH
	DB	028H
	DB	0bH
	DB	020H
	DB	0cH
	DB	028H
	DB	0bH
	DB	028H
	DB	0bH
	DB	020H
	DB	0bH
	DB	028H
	DB	0cH
	DB	020H
	DB	0cH
	DB	028H
	DB	0cH
	DB	020H
	DB	0cH
	DB	020H
	DB	0cH
	DB	020H
	DB	0cH
	DB	020H
	DB	0cH
	DB	020H
	DB	0cH
	DB	020H
	DB	0dH
	DB	018H
	DB	0cH
	DB	018H
	DB	0cH
	DB	020H
	DB	0dH
	DB	018H
	DB	0cH
	DB	020H
	DB	0cH
	DB	018H
	DB	0dH
	DB	018H
	DB	0dH
	DB	020H
	DB	0cH
	DB	018H
	DB	0dH
	DB	018H
	DB	0dH
	DB	018H
	DB	0dH
	DB	018H
	DB	0dH
	DB	018H
	DB	0dH
	DB	018H
	DB	0dH
	DB	010H
	DB	0eH
	DB	018H
	DB	0dH
	DB	010H
	DB	0dH
	DB	018H
	DB	0eH
	DB	010H
	DB	0eH
	DB	010H
	DB	0dH
	DB	018H
	DB	0eH
	DB	010H
	DB	0eH
	DB	010H
	DB	0eH
	DB	010H
	DB	0eH
	DB	010H
	DB	0eH
	DB	010H
	DB	0eH
	DB	08H
	DB	0eH
	DB	010H
	DB	0fH
	DB	010H
	DB	0eH
	DB	010H
	DB	0fH
	DB	08H
	DB	0eH
	DB	010H
	DB	0eH
	DB	010H
	DB	0fH
	DB	08H
	DB	0eH
	DB	08H
	DB	0fH
	DB	08H
	DB	0fH
	DB	08H
	DB	0fH
	DB	08H
	DB	0fH
	DB	08H
	DB	0fH
	DB	08H
	DB	0fH
	DB	08H
	DB	010H
	DB	08H
	DB	0fH
	DB	08H
	DB	0fH
	DB	00H
	DB	010H
	DB	08H
	DB	010H
	DB	00H
	DB	010H
	DB	08H
	DB	010H
	DB	00H
	DB	010H
	DB	00H
	DB	010H
	DB	00H
	DB	010H
	DB	00H
	DB	00H
	DB	04H
	DB	00H
	DB	04H
	DB	00H
	DB	04H
	DB	00H
	DB	04H
	DB	0e0H
	DB	03H
	DB	00H
	DB	04H
	DB	0e0H
	DB	0bH
	DB	0e0H
	DB	03H
	DB	0e0H
	DB	03H
	DB	0e0H
	DB	0bH
	DB	0e0H
	DB	0bH
	DB	0c0H
	DB	03H
	DB	0c0H
	DB	0bH
	DB	0e0H
	DB	0bH
	DB	0c0H
	DB	0bH
	DB	0c0H
	DB	0bH
	DB	0c0H
	DB	0bH
	DB	0c0H
	DB	0bH
	DB	0c0H
	DB	0bH
	DB	0a0H
	DB	013H
	DB	0a0H
	DB	0bH
	DB	0a0H
	DB	0bH
	DB	0a0H
	DB	013H
	DB	0a0H
	DB	013H
	DB	0a0H
	DB	0bH
	DB	080H
	DB	013H
	DB	080H
	DB	013H
	DB	0a0H
	DB	013H
	DB	080H
	DB	013H
	DB	080H
	DB	013H
	DB	080H
	DB	013H
	DB	080H
	DB	013H
	DB	080H
	DB	013H
	DB	080H
	DB	013H
	DB	060H
	DB	013H
	DB	060H
	DB	013H
	DB	060H
	DB	01bH
	DB	060H
	DB	01bH
	DB	060H
	DB	013H
	DB	040H
	DB	01bH
	DB	060H
	DB	01bH
	DB	060H
	DB	01bH
	DB	040H
	DB	01bH
	DB	040H
	DB	01bH
	DB	040H
	DB	01bH
	DB	040H
	DB	01bH
	DB	040H
	DB	01bH
	DB	020H
	DB	01bH
	DB	040H
	DB	01bH
	DB	020H
	DB	01bH
	DB	020H
	DB	01bH
	DB	020H
	DB	023H
	DB	020H
	DB	01bH
	DB	020H
	DB	023H
	DB	020H
	DB	023H
	DB	00H
	DB	023H
	DB	00H
	DB	023H
	DB	00H
	DB	023H
	DB	00H
	DB	023H
	DB	00H
	DB	023H
	DB	00H
	DB	023H
	DB	00H
	DB	023H
	DB	00H
	DB	023H
	DB	0e0H
	DB	02aH
	DB	0e0H
	DB	022H
	DB	0e0H
	DB	022H
	DB	0e0H
	DB	02aH
	DB	0e0H
	DB	02aH
	DB	0e0H
	DB	022H
	DB	0e0H
	DB	02aH
	DB	0c0H
	DB	02aH
	DB	0e0H
	DB	02aH
	DB	0c0H
	DB	02aH
	DB	0c0H
	DB	02aH
	DB	0c0H
	DB	02aH
	DB	0c0H
	DB	02aH
	DB	0a0H
	DB	02aH
	DB	0c0H
	DB	02aH
	DB	0a0H
	DB	02aH
	DB	0a0H
	DB	02aH
	DB	0a0H
	DB	032H
	DB	0a0H
	DB	032H
	DB	0a0H
	DB	02aH
	DB	0a0H
	DB	032H
	DB	0a0H
	DB	032H
	DB	080H
	DB	032H
	DB	080H
	DB	032H
	DB	080H
	DB	032H
	DB	080H
	DB	032H
	DB	080H
	DB	032H
	DB	080H
	DB	032H
	DB	060H
	DB	032H
	DB	060H
	DB	032H
	DB	060H
	DB	032H
	DB	060H
	DB	03aH
	DB	060H
	DB	032H
	DB	060H
	DB	03aH
	DB	060H
	DB	03aH
	DB	060H
	DB	032H
	DB	040H
	DB	03aH
	DB	040H
	DB	03aH
	DB	060H
	DB	03aH
	DB	040H
	DB	03aH
	DB	040H
	DB	03aH
	DB	040H
	DB	03aH
	DB	020H
	DB	03aH
	DB	040H
	DB	042H
	DB	040H
	DB	03aH
	DB	020H
	DB	03aH
	DB	020H
	DB	03aH
	DB	020H
	DB	042H
	DB	020H
	DB	03aH
	DB	020H
	DB	042H
	DB	020H
	DB	042H
	DB	00H
	DB	042H
	DB	00H
	DB	042H
	DB	00H
	DB	042H
	DB	00H
	DB	042H
	DB	00H
	DB	042H
	DB	00H
	DB	042H
	DB	00H
	DB	042H
	DB	0e0H
	DB	049H
	DB	00H
	DB	042H
	DB	0e0H
	DB	041H
	DB	0e0H
	DB	041H
	DB	0e0H
	DB	041H
	DB	0e0H
	DB	049H
	DB	0e0H
	DB	049H
	DB	0e0H
	DB	049H
	DB	0c0H
	DB	041H
	DB	0c0H
	DB	049H
	DB	0c0H
	DB	049H
	DB	0c0H
	DB	049H
	DB	0c0H
	DB	049H
	DB	0c0H
	DB	049H
	DB	0a0H
	DB	049H
	DB	0c0H
	DB	049H
	DB	0c0H
	DB	049H
	DB	0a0H
	DB	051H
	DB	0a0H
	DB	049H
	DB	0a0H
	DB	049H
	DB	0a0H
	DB	051H
	DB	0a0H
	DB	051H
	DB	0a0H
	DB	049H
	DB	080H
	DB	051H
	DB	080H
	DB	051H
	DB	080H
	DB	049H
	DB	080H
	DB	051H
	DB	080H
	DB	051H
	DB	080H
	DB	051H
	DB	060H
	DB	051H
	DB	080H
	DB	051H
	DB	080H
	DB	059H
	DB	060H
	DB	051H
	DB	060H
	DB	059H
	DB	060H
	DB	051H
	DB	060H
	DB	051H
	DB	060H
	DB	059H
	DB	060H
	DB	059H
	DB	040H
	DB	059H
	DB	060H
	DB	059H
	DB	040H
	DB	059H
	DB	040H
	DB	059H
	DB	040H
	DB	059H
	DB	040H
	DB	059H
	DB	040H
	DB	059H
	DB	020H
	DB	059H
	DB	040H
	DB	059H
	DB	020H
	DB	061H
	DB	020H
	DB	059H
	DB	020H
	DB	061H
	DB	020H
	DB	061H
	DB	020H
	DB	061H
	DB	00H
	DB	061H
	DB	00H
	DB	061H
	DB	020H
	DB	061H
	DB	00H
	DB	061H
	DB	00H
	DB	061H
	DB	00H
	DB	061H
	DB	00H
	DB	061H
	DB	00H
	DB	061H
	DB	0e0H
	DB	060H
	DB	00H
	DB	069H
	DB	00H
	DB	061H
	DB	0e0H
	DB	060H
	DB	0e0H
	DB	060H
	DB	0e0H
	DB	068H
	DB	0e0H
	DB	060H
	DB	0c0H
	DB	060H
	DB	0c0H
	DB	068H
	DB	0e0H
	DB	068H
	DB	0e0H
	DB	068H
	DB	0c0H
	DB	068H
	DB	0c0H
	DB	068H
	DB	0c0H
	DB	068H
	DB	0c0H
	DB	068H
	DB	0a0H
	DB	068H
	DB	0c0H
	DB	068H
	DB	0c0H
	DB	068H
	DB	0a0H
	DB	068H
	DB	0a0H
	DB	070H
	DB	0a0H
	DB	068H
	DB	0a0H
	DB	070H
	DB	080H
	DB	070H
	DB	080H
	DB	070H
	DB	080H
	DB	070H
	DB	080H
	DB	068H
	DB	080H
	DB	070H
	DB	080H
	DB	070H
	DB	080H
	DB	070H
	DB	080H
	DB	070H
	DB	080H
	DB	070H
	DB	080H
	DB	070H
	DB	060H
	DB	070H
	DB	060H
	DB	070H
	DB	060H
	DB	078H
	DB	060H
	DB	078H
	DB	060H
	DB	078H
	DB	040H
	DB	070H
	DB	060H
	DB	078H
	DB	040H
	DB	078H
	DB	040H
	DB	078H
	DB	040H
	DB	078H
	DB	040H
	DB	078H
	DB	040H
	DB	078H
	DB	040H
	DB	078H
	DB	040H
	DB	078H
	DB	020H
	DB	078H
	DB	040H
	DB	078H
	DB	020H
	DB	078H
	DB	020H
	DB	078H
	DB	020H
	DB	080H
	DB	020H
	DB	078H
	DB	020H
	DB	080H
	DB	00H
	DB	080H
	DB	020H
	DB	080H
	DB	020H
	DB	080H
	DB	00H
	DB	080H
	DB	00H
	DB	080H
	DB	00H
	DB	080H
	DB	00H
	DB	080H
	DB	00H
	DB	080H
	DB	00H
	DB	080H
	DB	00H
	DB	080H
	DB	01H
	DB	080H
	DB	00H
	DB	078H
	DB	00H
	DB	080H
	DB	00H
	DB	078H
	DB	01H
	DB	080H
	DB	01H
	DB	078H
	DB	01H
	DB	078H
	DB	00H
	DB	078H
	DB	00H
	DB	078H
	DB	01H
	DB	078H
	DB	01H
	DB	078H
	DB	01H
	DB	078H
	DB	01H
	DB	078H
	DB	01H
	DB	078H
	DB	01H
	DB	078H
	DB	02H
	DB	078H
	DB	02H
	DB	070H
	DB	01H
	DB	078H
	DB	01H
	DB	078H
	DB	01H
	DB	078H
	DB	02H
	DB	070H
	DB	02H
	DB	070H
	DB	01H
	DB	070H
	DB	02H
	DB	078H
	DB	02H
	DB	070H
	DB	01H
	DB	070H
	DB	02H
	DB	070H
	DB	02H
	DB	070H
	DB	02H
	DB	070H
	DB	02H
	DB	070H
	DB	02H
	DB	070H
	DB	02H
	DB	070H
	DB	02H
	DB	068H
	DB	03H
	DB	070H
	DB	02H
	DB	070H
	DB	02H
	DB	068H
	DB	03H
	DB	070H
	DB	02H
	DB	068H
	DB	02H
	DB	070H
	DB	03H
	DB	070H
	DB	02H
	DB	068H
	DB	03H
	DB	068H
	DB	03H
	DB	068H
	DB	02H
	DB	068H
	DB	03H
	DB	068H
	DB	03H
	DB	068H
	DB	03H
	DB	068H
	DB	03H
	DB	068H
	DB	03H
	DB	068H
	DB	03H
	DB	060H
	DB	03H
	DB	068H
	DB	03H
	DB	068H
	DB	03H
	DB	068H
	DB	04H
	DB	060H
	DB	03H
	DB	060H
	DB	03H
	DB	068H
	DB	04H
	DB	060H
	DB	04H
	DB	060H
	DB	04H
	DB	060H
	DB	03H
	DB	060H
	DB	04H
	DB	060H
	DB	04H
	DB	060H
	DB	04H
	DB	060H
	DB	04H
	DB	060H
	DB	04H
	DB	060H
	DB	04H
	DB	060H
	DB	05H
	DB	060H
	DB	04H
	DB	058H
	DB	04H
	DB	060H
	DB	05H
	DB	060H
	DB	05H
	DB	058H
	DB	05H
	DB	058H
	DB	05H
	DB	060H
	DB	05H
	DB	058H
	DB	05H
	DB	058H
	DB	05H
	DB	058H
	DB	05H
	DB	058H
	DB	05H
	DB	058H
	DB	05H
	DB	058H
	DB	05H
	DB	058H
	DB	05H
	DB	058H
	DB	05H
	DB	058H
	DB	05H
	DB	050H
	DB	06H
	DB	058H
	DB	05H
	DB	058H
	DB	05H
	DB	050H
	DB	05H
	DB	058H
	DB	06H
	DB	050H
	DB	06H
	DB	050H
	DB	06H
	DB	058H
	DB	05H
	DB	050H
	DB	06H
	DB	050H
	DB	06H
	DB	050H
	DB	06H
	DB	050H
	DB	06H
	DB	050H
	DB	06H
	DB	050H
	DB	06H
	DB	050H
	DB	06H
	DB	050H
	DB	06H
	DB	050H
	DB	06H
	DB	048H
	DB	07H
	DB	050H
	DB	06H
	DB	048H
	DB	06H
	DB	050H
	DB	06H
	DB	048H
	DB	07H
	DB	048H
	DB	06H
	DB	050H
	DB	07H
	DB	048H
	DB	07H
	DB	048H
	DB	07H
	DB	050H
	DB	07H
	DB	048H
	DB	07H
	DB	048H
	DB	07H
	DB	048H
	DB	07H
	DB	048H
	DB	07H
	DB	048H
	DB	07H
	DB	048H
	DB	07H
	DB	048H
	DB	07H
	DB	048H
	DB	07H
	DB	040H
	DB	07H
	DB	040H
	DB	08H
	DB	048H
	DB	07H
	DB	040H
	DB	07H
	DB	040H
	DB	08H
	DB	048H
	DB	08H
	DB	040H
	DB	08H
	DB	040H
	DB	08H
	DB	048H
	DB	08H
	DB	040H
	DB	08H
	DB	040H
	DB	08H
	DB	040H
	DB	08H
	DB	040H
	DB	08H
	DB	040H
	DB	08H
	DB	040H
	DB	08H
	DB	040H
	DB	08H
	DB	038H
	DB	09H
	DB	040H
	DB	08H
	DB	038H
	DB	09H
	DB	038H
	DB	09H
	DB	038H
	DB	09H
	DB	038H
	DB	09H
	DB	038H
	DB	09H
	DB	038H
	DB	09H
	DB	038H
	DB	09H
	DB	038H
	DB	09H
	DB	038H
	DB	09H
	DB	038H
	DB	09H
	DB	030H
	DB	09H
	DB	038H
	DB	0aH
	DB	030H
	DB	09H
	DB	038H
	DB	09H
	DB	030H
	DB	0aH
	DB	030H
	DB	09H
	DB	030H
	DB	0aH
	DB	038H
	DB	0aH
	DB	030H
	DB	0aH
	DB	030H
	DB	0aH
	DB	030H
	DB	0aH
	DB	030H
	DB	0aH
	DB	030H
	DB	0aH
	DB	030H
	DB	0aH
	DB	030H
	DB	0bH
	DB	030H
	DB	0aH
	DB	028H
	DB	0bH
	DB	028H
	DB	0bH
	DB	030H
	DB	0aH
	DB	028H
	DB	0bH
	DB	028H
	DB	0bH
	DB	028H
	DB	0bH
	DB	028H
	DB	0bH
	DB	028H
	DB	0bH
	DB	028H
	DB	0bH
	DB	028H
	DB	0bH
	DB	028H
	DB	0cH
	DB	020H
	DB	0bH
	DB	028H
	DB	0cH
	DB	028H
	DB	0cH
	DB	020H
	DB	0bH
	DB	020H
	DB	0cH
	DB	020H
	DB	0bH
	DB	020H
	DB	0bH
	DB	020H
	DB	0cH
	DB	020H
	DB	0cH
	DB	020H
	DB	0cH
	DB	020H
	DB	0cH
	DB	020H
	DB	0cH
	DB	020H
	DB	0cH
	DB	020H
	DB	0dH
	DB	020H
	DB	0cH
	DB	018H
	DB	0dH
	DB	018H
	DB	0dH
	DB	020H
	DB	0cH
	DB	018H
	DB	0dH
	DB	018H
	DB	0dH
	DB	018H
	DB	0dH
	DB	018H
	DB	0dH
	DB	018H
	DB	0dH
	DB	018H
	DB	0dH
	DB	018H
	DB	0dH
	DB	018H
	DB	0dH
	DB	010H
	DB	0eH
	DB	018H
	DB	0dH
	DB	018H
	DB	0eH
	DB	018H
	DB	0dH
	DB	010H
	DB	0eH
	DB	010H
	DB	0eH
	DB	010H
	DB	0eH
	DB	018H
	DB	0eH
	DB	010H
	DB	0eH
	DB	010H
	DB	0eH
	DB	010H
	DB	0eH
	DB	010H
	DB	0eH
	DB	010H
	DB	0eH
	DB	010H
	DB	0eH
	DB	08H
	DB	0eH
	DB	08H
	DB	0fH
	DB	08H
	DB	0fH
	DB	010H
	DB	0fH
	DB	08H
	DB	0eH
	DB	08H
	DB	0fH
	DB	08H
	DB	0fH
	DB	010H
	DB	0fH
	DB	08H
	DB	0fH
	DB	08H
	DB	0fH
	DB	08H
	DB	0fH
	DB	08H
	DB	0fH
	DB	08H
	DB	0fH
	DB	00H
	DB	0fH
	DB	08H
	DB	010H
	DB	00H
	DB	010H
	DB	00H
	DB	0fH
	DB	00H
	DB	0fH
	DB	08H
	DB	010H
	DB	00H
	DB	010H
	DB	00H
	DB	010H
	DB	00H
	DB	010H
	DB	00H
	DB	010H
	DB	00H
	DB	00H
	DB	04H
	DB	00H
	DB	04H
	DB	00H
	DB	04H
	DB	0e0H
	DB	03H
	DB	00H
	DB	0cH
	DB	0e0H
	DB	03H
	DB	0e0H
	DB	03H
	DB	0e0H
	DB	03H
	DB	0e0H
	DB	0bH
	DB	0e0H
	DB	03H
	DB	0e0H
	DB	0bH
	DB	0e0H
	DB	0bH
	DB	0c0H
	DB	0bH
	DB	0c0H
	DB	0bH
	DB	0c0H
	DB	0bH
	DB	0c0H
	DB	0bH
	DB	0c0H
	DB	0bH
	DB	0c0H
	DB	0bH
	DB	0c0H
	DB	0bH
	DB	0a0H
	DB	0bH
	DB	0c0H
	DB	0bH
	DB	0a0H
	DB	013H
	DB	0a0H
	DB	0bH
	DB	0a0H
	DB	013H
	DB	0a0H
	DB	013H
	DB	0a0H
	DB	0bH
	DB	0a0H
	DB	013H
	DB	0a0H
	DB	013H
	DB	080H
	DB	013H
	DB	080H
	DB	013H
	DB	080H
	DB	013H
	DB	080H
	DB	013H
	DB	080H
	DB	013H
	DB	060H
	DB	01bH
	DB	080H
	DB	013H
	DB	060H
	DB	013H
	DB	060H
	DB	01bH
	DB	060H
	DB	013H
	DB	060H
	DB	01bH
	DB	060H
	DB	013H
	DB	060H
	DB	013H
	DB	040H
	DB	01bH
	DB	040H
	DB	01bH
	DB	060H
	DB	01bH
	DB	040H
	DB	01bH
	DB	040H
	DB	01bH
	DB	040H
	DB	01bH
	DB	040H
	DB	01bH
	DB	020H
	DB	023H
	DB	040H
	DB	01bH
	DB	020H
	DB	01bH
	DB	020H
	DB	023H
	DB	020H
	DB	01bH
	DB	020H
	DB	023H
	DB	020H
	DB	023H
	DB	020H
	DB	01bH
	DB	020H
	DB	023H
	DB	00H
	DB	023H
	DB	00H
	DB	023H
	DB	00H
	DB	023H
	DB	00H
	DB	023H
	DB	00H
	DB	023H
	DB	0e0H
	DB	022H
	DB	0e0H
	DB	022H
	DB	00H
	DB	02bH
	DB	0e0H
	DB	022H
	DB	0e0H
	DB	022H
	DB	0e0H
	DB	02aH
	DB	0e0H
	DB	02aH
	DB	0e0H
	DB	022H
	DB	0c0H
	DB	02aH
	DB	0c0H
	DB	022H
	DB	0c0H
	DB	02aH
	DB	0c0H
	DB	02aH
	DB	0c0H
	DB	02aH
	DB	0c0H
	DB	02aH
	DB	0c0H
	DB	02aH
	DB	0c0H
	DB	02aH
	DB	0c0H
	DB	02aH
	DB	0a0H
	DB	02aH
	DB	0a0H
	DB	032H
	DB	0a0H
	DB	02aH
	DB	0a0H
	DB	02aH
	DB	080H
	DB	032H
	DB	080H
	DB	032H
	DB	0a0H
	DB	02aH
	DB	080H
	DB	032H
	DB	080H
	DB	032H
	DB	080H
	DB	032H
	DB	080H
	DB	032H
	DB	080H
	DB	032H
	DB	060H
	DB	032H
	DB	080H
	DB	03aH
	DB	060H
	DB	032H
	DB	060H
	DB	032H
	DB	060H
	DB	032H
	DB	060H
	DB	03aH
	DB	060H
	DB	03aH
	DB	060H
	DB	032H
	DB	040H
	DB	032H
	DB	040H
	DB	03aH
	DB	060H
	DB	03aH
	DB	040H
	DB	03aH
	DB	040H
	DB	03aH
	DB	040H
	DB	03aH
	DB	040H
	DB	03aH
	DB	020H
	DB	03aH
	DB	040H
	DB	042H
	DB	020H
	DB	042H
	DB	020H
	DB	03aH
	DB	020H
	DB	042H
	DB	020H
	DB	042H
	DB	020H
	DB	03aH
	DB	020H
	DB	042H
	DB	00H
	DB	042H
	DB	00H
	DB	042H
	DB	00H
	DB	042H
	DB	00H
	DB	042H
	DB	00H
	DB	042H
	DB	00H
	DB	042H
	DB	00H
	DB	042H
	DB	00H
	DB	042H
	DB	0e0H
	DB	049H
	DB	0e0H
	DB	049H
	DB	0e0H
	DB	041H
	DB	0e0H
	DB	049H
	DB	0e0H
	DB	049H
	DB	0e0H
	DB	041H
	DB	0c0H
	DB	041H
	DB	0c0H
	DB	049H
	DB	0e0H
	DB	049H
	DB	0c0H
	DB	049H
	DB	0c0H
	DB	049H
	DB	0c0H
	DB	049H
	DB	0c0H
	DB	049H
	DB	0c0H
	DB	049H
	DB	0a0H
	DB	049H
	DB	0a0H
	DB	049H
	DB	0a0H
	DB	051H
	DB	0a0H
	DB	049H
	DB	0a0H
	DB	049H
	DB	0a0H
	DB	051H
	DB	0a0H
	DB	051H
	DB	0a0H
	DB	049H
	DB	0a0H
	DB	051H
	DB	080H
	DB	051H
	DB	080H
	DB	051H
	DB	080H
	DB	051H
	DB	080H
	DB	051H
	DB	080H
	DB	051H
	DB	080H
	DB	051H
	DB	060H
	DB	051H
	DB	060H
	DB	059H
	DB	060H
	DB	051H
	DB	060H
	DB	059H
	DB	060H
	DB	059H
	DB	060H
	DB	059H
	DB	060H
	DB	051H
	DB	060H
	DB	051H
	DB	060H
	DB	059H
	DB	060H
	DB	059H
	DB	040H
	DB	059H
	DB	040H
	DB	059H
	DB	040H
	DB	059H
	DB	040H
	DB	059H
	DB	040H
	DB	059H
	DB	040H
	DB	059H
	DB	020H
	DB	059H
	DB	040H
	DB	061H
	DB	020H
	DB	059H
	DB	020H
	DB	059H
	DB	020H
	DB	059H
	DB	020H
	DB	061H
	DB	020H
	DB	061H
	DB	00H
	DB	059H
	DB	00H
	DB	061H
	DB	00H
	DB	061H
	DB	00H
	DB	061H
	DB	00H
	DB	061H
	DB	00H
	DB	061H
	DB	00H
	DB	061H
	DB	0e0H
	DB	060H
	DB	0e0H
	DB	060H
	DB	00H
	DB	061H
	DB	0e0H
	DB	068H
	DB	0e0H
	DB	068H
	DB	0e0H
	DB	068H
	DB	0e0H
	DB	068H
	DB	0e0H
	DB	068H
	DB	0c0H
	DB	068H
	DB	0c0H
	DB	060H
	DB	0c0H
	DB	068H
	DB	0c0H
	DB	068H
	DB	0c0H
	DB	068H
	DB	0c0H
	DB	068H
	DB	0c0H
	DB	068H
	DB	0a0H
	DB	070H
	DB	0a0H
	DB	068H
	DB	0a0H
	DB	068H
	DB	0a0H
	DB	070H
	DB	0a0H
	DB	068H
	DB	0a0H
	DB	068H
	DB	0a0H
	DB	068H
	DB	0a0H
	DB	070H
	DB	0a0H
	DB	070H
	DB	0a0H
	DB	070H
	DB	080H
	DB	070H
	DB	080H
	DB	070H
	DB	080H
	DB	070H
	DB	080H
	DB	070H
	DB	080H
	DB	070H
	DB	080H
	DB	070H
	DB	060H
	DB	070H
	DB	080H
	DB	070H
	DB	060H
	DB	078H
	DB	060H
	DB	070H
	DB	060H
	DB	070H
	DB	060H
	DB	078H
	DB	040H
	DB	078H
	DB	060H
	DB	078H
	DB	060H
	DB	070H
	DB	040H
	DB	078H
	DB	040H
	DB	078H
	DB	040H
	DB	078H
	DB	040H
	DB	078H
	DB	040H
	DB	078H
	DB	020H
	DB	078H
	DB	040H
	DB	078H
	DB	020H
	DB	080H
	DB	020H
	DB	080H
	DB	040H
	DB	078H
	DB	020H
	DB	080H
	DB	020H
	DB	080H
	DB	020H
	DB	078H
	DB	020H
	DB	080H
	DB	00H
	DB	078H
	DB	00H
	DB	080H
	DB	00H
	DB	080H
	DB	00H
	DB	080H
	DB	00H
	DB	080H
	DB	00H
	DB	080H
	DB	00H
	DB	080H
	DB	00H
	DB	080H
	DB	00H
	DB	078H
	DB	00H
	DB	080H
	DB	01H
	DB	080H
	DB	00H
	DB	078H
	DB	01H
	DB	080H
	DB	00H
	DB	078H
	DB	01H
	DB	078H
	DB	01H
	DB	078H
	DB	00H
	DB	080H
	DB	01H
	DB	078H
	DB	01H
	DB	078H
	DB	01H
	DB	078H
	DB	01H
	DB	078H
	DB	01H
	DB	078H
	DB	01H
	DB	078H
	DB	01H
	DB	078H
	DB	01H
	DB	078H
	DB	01H
	DB	078H
	DB	02H
	DB	070H
	DB	01H
	DB	070H
	DB	01H
	DB	078H
	DB	02H
	DB	078H
	DB	02H
	DB	070H
	DB	01H
	DB	070H
	DB	02H
	DB	070H
	DB	02H
	DB	070H
	DB	02H
	DB	070H
	DB	02H
	DB	070H
	DB	02H
	DB	070H
	DB	02H
	DB	070H
	DB	02H
	DB	070H
	DB	02H
	DB	070H
	DB	02H
	DB	070H
	DB	02H
	DB	070H
	DB	02H
	DB	070H
	DB	03H
	DB	070H
	DB	03H
	DB	068H
	DB	03H
	DB	068H
	DB	02H
	DB	070H
	DB	03H
	DB	068H
	DB	03H
	DB	068H
	DB	02H
	DB	068H
	DB	03H
	DB	070H
	DB	03H
	DB	068H
	DB	03H
	DB	068H
	DB	03H
	DB	068H
	DB	03H
	DB	068H
	DB	03H
	DB	068H
	DB	03H
	DB	068H
	DB	03H
	DB	068H
	DB	04H
	DB	068H
	DB	03H
	DB	068H
	DB	03H
	DB	060H
	DB	04H
	DB	068H
	DB	03H
	DB	068H
	DB	03H
	DB	060H
	DB	04H
	DB	068H
	DB	04H
	DB	060H
	DB	03H
	DB	060H
	DB	04H
	DB	068H
	DB	04H
	DB	060H
	DB	04H
	DB	060H
	DB	04H
	DB	060H
	DB	04H
	DB	060H
	DB	04H
	DB	060H
	DB	04H
	DB	060H
	DB	04H
	DB	060H
	DB	04H
	DB	060H
	DB	04H
	DB	058H
	DB	04H
	DB	060H
	DB	04H
	DB	060H
	DB	04H
	DB	058H
	DB	05H
	DB	058H
	DB	04H
	DB	060H
	DB	05H
	DB	058H
	DB	04H
	DB	060H
	DB	05H
	DB	060H
	DB	05H
	DB	058H
	DB	05H
	DB	058H
	DB	05H
	DB	058H
	DB	05H
	DB	058H
	DB	05H
	DB	058H
	DB	05H
	DB	058H
	DB	05H
	DB	058H
	DB	05H
	DB	058H
	DB	05H
	DB	050H
	DB	06H
	DB	058H
	DB	06H
	DB	058H
	DB	05H
	DB	050H
	DB	05H
	DB	050H
	DB	06H
	DB	058H
	DB	06H
	DB	050H
	DB	06H
	DB	050H
	DB	06H
	DB	050H
	DB	05H
	DB	050H
	DB	06H
	DB	050H
	DB	06H
	DB	050H
	DB	06H
	DB	050H
	DB	06H
	DB	050H
	DB	06H
	DB	050H
	DB	06H
	DB	050H
	DB	06H
	DB	048H
	DB	07H
	DB	050H
	DB	07H
	DB	050H
	DB	06H
	DB	048H
	DB	07H
	DB	050H
	DB	07H
	DB	048H
	DB	06H
	DB	048H
	DB	07H
	DB	048H
	DB	06H
	DB	050H
	DB	07H
	DB	048H
	DB	07H
	DB	048H
	DB	07H
	DB	048H
	DB	07H
	DB	048H
	DB	07H
	DB	048H
	DB	07H
	DB	048H
	DB	07H
	DB	048H
	DB	08H
	DB	048H
	DB	07H
	DB	040H
	DB	07H
	DB	048H
	DB	08H
	DB	048H
	DB	08H
	DB	048H
	DB	07H
	DB	040H
	DB	08H
	DB	040H
	DB	08H
	DB	040H
	DB	07H
	DB	040H
	DB	07H
	DB	040H
	DB	08H
	DB	040H
	DB	08H
	DB	040H
	DB	08H
	DB	040H
	DB	08H
	DB	040H
	DB	08H
	DB	040H
	DB	08H
	DB	040H
	DB	08H
	DB	038H
	DB	09H
	DB	040H
	DB	08H
	DB	040H
	DB	08H
	DB	040H
	DB	09H
	DB	038H
	DB	08H
	DB	040H
	DB	08H
	DB	038H
	DB	09H
	DB	038H
	DB	09H
	DB	038H
	DB	09H
	DB	038H
	DB	09H
	DB	038H
	DB	09H
	DB	038H
	DB	09H
	DB	038H
	DB	09H
	DB	038H
	DB	0aH
	DB	030H
	DB	0aH
	DB	038H
	DB	09H
	DB	038H
	DB	0aH
	DB	030H
	DB	0aH
	DB	030H
	DB	0aH
	DB	038H
	DB	0aH
	DB	030H
	DB	0aH
	DB	030H
	DB	0aH
	DB	030H
	DB	0aH
	DB	030H
	DB	0aH
	DB	030H
	DB	0aH
	DB	030H
	DB	0aH
	DB	030H
	DB	0aH
	DB	030H
	DB	0bH
	DB	028H
	DB	0aH
	DB	030H
	DB	0bH
	DB	030H
	DB	0bH
	DB	028H
	DB	0bH
	DB	028H
	DB	0bH
	DB	030H
	DB	0bH
	DB	028H
	DB	0bH
	DB	028H
	DB	0bH
	DB	028H
	DB	0bH
	DB	028H
	DB	0bH
	DB	028H
	DB	0bH
	DB	028H
	DB	0bH
	DB	020H
	DB	0bH
	DB	028H
	DB	0cH
	DB	020H
	DB	0bH
	DB	028H
	DB	0cH
	DB	028H
	DB	0cH
	DB	020H
	DB	0bH
	DB	020H
	DB	0cH
	DB	020H
	DB	0cH
	DB	020H
	DB	0cH
	DB	020H
	DB	0cH
	DB	020H
	DB	0cH
	DB	020H
	DB	0cH
	DB	020H
	DB	0cH
	DB	020H
	DB	0dH
	DB	020H
	DB	0cH
	DB	020H
	DB	0cH
	DB	018H
	DB	0dH
	DB	020H
	DB	0dH
	DB	020H
	DB	0dH
	DB	018H
	DB	0dH
	DB	018H
	DB	0dH
	DB	018H
	DB	0dH
	DB	018H
	DB	0dH
	DB	018H
	DB	0dH
	DB	018H
	DB	0dH
	DB	018H
	DB	0dH
	DB	018H
	DB	0eH
	DB	010H
	DB	0dH
	DB	018H
	DB	0dH
	DB	010H
	DB	0eH
	DB	018H
	DB	0dH
	DB	018H
	DB	0eH
	DB	010H
	DB	0eH
	DB	010H
	DB	0eH
	DB	010H
	DB	0eH
	DB	010H
	DB	0eH
	DB	010H
	DB	0eH
	DB	010H
	DB	0eH
	DB	010H
	DB	0eH
	DB	010H
	DB	0fH
	DB	010H
	DB	0eH
	DB	010H
	DB	0eH
	DB	010H
	DB	0eH
	DB	08H
	DB	0fH
	DB	010H
	DB	0fH
	DB	08H
	DB	0fH
	DB	08H
	DB	0fH
	DB	08H
	DB	0fH
	DB	08H
	DB	0fH
	DB	08H
	DB	0fH
	DB	08H
	DB	0fH
	DB	08H
	DB	0fH
	DB	08H
	DB	0fH
	DB	08H
	DB	010H
	DB	08H
	DB	0fH
	DB	08H
	DB	010H
	DB	00H
	DB	0fH
	DB	08H
	DB	010H
	DB	00H
	DB	0fH
	DB	00H
	DB	0fH
	DB	08H
	DB	010H
	DB	00H
	DB	010H
	DB	00H
	DB	010H
	DB	00H
	DB	00H
	DB	04H
	DB	00H
	DB	04H
	DB	00H
	DB	04H
	DB	0e0H
	DB	03H
	DB	00H
	DB	04H
	DB	00H
	DB	0cH
	DB	0e0H
	DB	03H
	DB	0e0H
	DB	0bH
	DB	0e0H
	DB	0bH
	DB	0e0H
	DB	03H
	DB	0e0H
	DB	0bH
	DB	0c0H
	DB	0bH
	DB	0c0H
	DB	03H
	DB	0e0H
	DB	0bH
	DB	0c0H
	DB	0bH
	DB	0c0H
	DB	0bH
	DB	0c0H
	DB	0bH
	DB	0c0H
	DB	0bH
	DB	0a0H
	DB	0bH
	DB	0c0H
	DB	0bH
	DB	0c0H
	DB	013H
	DB	0a0H
	DB	0bH
	DB	0a0H
	DB	0bH
	DB	0a0H
	DB	0bH
	DB	0a0H
	DB	013H
	DB	0a0H
	DB	0bH
	DB	080H
	DB	013H
	DB	080H
	DB	013H
	DB	080H
	DB	013H
	DB	080H
	DB	013H
	DB	080H
	DB	013H
	DB	080H
	DB	013H
	DB	080H
	DB	013H
	DB	060H
	DB	013H
	DB	060H
	DB	013H
	DB	060H
	DB	01bH
	DB	060H
	DB	013H
	DB	060H
	DB	013H
	DB	060H
	DB	01bH
	DB	060H
	DB	01bH
	DB	040H
	DB	013H
	DB	060H
	DB	01bH
	DB	040H
	DB	01bH
	DB	040H
	DB	01bH
	DB	040H
	DB	01bH
	DB	040H
	DB	01bH
	DB	040H
	DB	01bH
	DB	020H
	DB	01bH
	DB	040H
	DB	01bH
	DB	020H
	DB	023H
	DB	020H
	DB	01bH
	DB	020H
	DB	01bH
	DB	020H
	DB	023H
	DB	020H
	DB	023H
	DB	020H
	DB	01bH
	DB	00H
	DB	023H
	DB	020H
	DB	023H
	DB	00H
	DB	023H
	DB	00H
	DB	023H
	DB	00H
	DB	023H
	DB	00H
	DB	023H
	DB	0e0H
	DB	022H
	DB	0e0H
	DB	022H
	DB	00H
	DB	023H
	DB	00H
	DB	02bH
	DB	0e0H
	DB	022H
	DB	0e0H
	DB	02aH
	DB	0e0H
	DB	022H
	DB	0e0H
	DB	02aH
	DB	0e0H
	DB	022H
	DB	0c0H
	DB	02aH
	DB	0c0H
	DB	02aH
	DB	0e0H
	DB	02aH
	DB	0c0H
	DB	02aH
	DB	0c0H
	DB	02aH
	DB	0c0H
	DB	02aH
	DB	0c0H
	DB	02aH
	DB	0a0H
	DB	032H
	DB	0a0H
	DB	02aH
	DB	0a0H
	DB	032H
	DB	0a0H
	DB	032H
	DB	0a0H
	DB	02aH
	DB	0a0H
	DB	032H
	DB	0a0H
	DB	032H
	DB	080H
	DB	02aH
	DB	0a0H
	DB	032H
	DB	0a0H
	DB	032H
	DB	080H
	DB	032H
	DB	080H
	DB	032H
	DB	080H
	DB	032H
	DB	080H
	DB	032H
	DB	080H
	DB	032H
	DB	080H
	DB	032H
	DB	060H
	DB	03aH
	DB	060H
	DB	03aH
	DB	060H
	DB	032H
	DB	060H
	DB	032H
	DB	060H
	DB	03aH
	DB	040H
	DB	03aH
	DB	060H
	DB	03aH
	DB	060H
	DB	03aH
	DB	040H
	DB	03aH
	DB	040H
	DB	03aH
	DB	040H
	DB	03aH
	DB	040H
	DB	03aH
	DB	040H
	DB	03aH
	DB	020H
	DB	03aH
	DB	020H
	DB	03aH
	DB	020H
	DB	03aH
	DB	020H
	DB	03aH
	DB	020H
	DB	03aH
	DB	020H
	DB	042H
	DB	020H
	DB	03aH
	DB	020H
	DB	042H
	DB	020H
	DB	03aH
	DB	020H
	DB	042H
	DB	00H
	DB	042H
	DB	00H
	DB	042H
	DB	00H
	DB	042H
	DB	00H
	DB	042H
	DB	0e0H
	DB	041H
	DB	00H
	DB	042H
	DB	0e0H
	DB	041H
	DB	0e0H
	DB	041H
	DB	00H
	DB	04aH
	DB	0e0H
	DB	041H
	DB	0e0H
	DB	049H
	DB	0c0H
	DB	049H
	DB	0e0H
	DB	049H
	DB	0e0H
	DB	049H
	DB	0c0H
	DB	049H
	DB	0c0H
	DB	049H
	DB	0c0H
	DB	049H
	DB	0c0H
	DB	049H
	DB	0c0H
	DB	049H
	DB	0c0H
	DB	049H
	DB	0c0H
	DB	051H
	DB	0a0H
	DB	049H
	DB	0a0H
	DB	049H
	DB	0a0H
	DB	051H
	DB	0a0H
	DB	051H
	DB	0a0H
	DB	049H
	DB	0a0H
	DB	051H
	DB	080H
	DB	051H
	DB	0a0H
	DB	049H
	DB	080H
	DB	051H
	DB	080H
	DB	051H
	DB	080H
	DB	051H
	DB	080H
	DB	051H
	DB	080H
	DB	051H
	DB	080H
	DB	051H
	DB	060H
	DB	051H
	DB	080H
	DB	051H
	DB	060H
	DB	051H
	DB	060H
	DB	051H
	DB	060H
	DB	059H
	DB	060H
	DB	051H
	DB	060H
	DB	059H
	DB	060H
	DB	059H
	DB	040H
	DB	051H
	DB	040H
	DB	059H
	DB	040H
	DB	059H
	DB	040H
	DB	059H
	DB	040H
	DB	059H
	DB	040H
	DB	059H
	DB	040H
	DB	059H
	DB	020H
	DB	061H
	DB	020H
	DB	061H
	DB	020H
	DB	059H
	DB	020H
	DB	059H
	DB	020H
	DB	061H
	DB	020H
	DB	061H
	DB	020H
	DB	059H
	DB	00H
	DB	061H
	DB	020H
	DB	061H
	DB	00H
	DB	061H
	DB	00H
	DB	061H
	DB	00H
	DB	061H
	DB	00H
	DB	061H
	DB	00H
	DB	061H
	DB	00H
	DB	061H
	DB	0e0H
	DB	060H
	DB	00H
	DB	069H
	DB	0e0H
	DB	060H
	DB	0e0H
	DB	060H
	DB	0e0H
	DB	068H
	DB	0e0H
	DB	060H
	DB	0e0H
	DB	060H
	DB	0e0H
	DB	068H
	DB	0e0H
	DB	068H
	DB	0c0H
	DB	060H
	DB	0c0H
	DB	068H
	DB	0c0H
	DB	068H
	DB	0c0H
	DB	068H
	DB	0c0H
	DB	068H
	DB	0c0H
	DB	068H
	DB	0c0H
	DB	068H
	DB	0a0H
	DB	068H
	DB	0a0H
	DB	070H
	DB	0c0H
	DB	070H
	DB	0a0H
	DB	068H
	DB	0a0H
	DB	070H
	DB	0a0H
	DB	070H
	DB	0a0H
	DB	068H
	DB	080H
	DB	068H
	DB	0a0H
	DB	070H
	DB	0a0H
	DB	070H
	DB	080H
	DB	070H
	DB	080H
	DB	070H
	DB	080H
	DB	070H
	DB	080H
	DB	070H
	DB	060H
	DB	070H
	DB	060H
	DB	078H
	DB	080H
	DB	070H
	DB	060H
	DB	078H
	DB	060H
	DB	078H
	DB	060H
	DB	070H
	DB	060H
	DB	070H
	DB	060H
	DB	078H
	DB	060H
	DB	070H
	DB	040H
	DB	078H
	DB	060H
	DB	078H
	DB	040H
	DB	078H
	DB	040H
	DB	078H
	DB	040H
	DB	078H
	DB	040H
	DB	078H
	DB	020H
	DB	078H
	DB	040H
	DB	078H
	DB	040H
	DB	080H
	DB	020H
	DB	078H
	DB	020H
	DB	078H
	DB	020H
	DB	080H
	DB	020H
	DB	080H
	DB	020H
	DB	078H
	DB	00H
	DB	080H
	DB	020H
	DB	080H
	DB	00H
	DB	080H
	DB	00H
	DB	080H
	DB	00H
	DB	080H
	DB	00H
	DB	080H
	DB	00H
	DB	080H
	DB	00H
	DB	080H
	DB	01H
	DB	080H
	DB	00H
	DB	078H
	DB	00H
	DB	080H
	DB	01H
	DB	080H
	DB	00H
	DB	078H
	DB	01H
	DB	080H
	DB	00H
	DB	080H
	DB	00H
	DB	078H
	DB	01H
	DB	078H
	DB	01H
	DB	080H
	DB	01H
	DB	080H
	DB	01H
	DB	078H
	DB	01H
	DB	078H
	DB	01H
	DB	078H
	DB	01H
	DB	078H
	DB	01H
	DB	078H
	DB	01H
	DB	078H
	DB	01H
	DB	078H
	DB	01H
	DB	078H
	DB	01H
	DB	078H
	DB	02H
	DB	070H
	DB	01H
	DB	070H
	DB	01H
	DB	078H
	DB	01H
	DB	078H
	DB	02H
	DB	070H
	DB	02H
	DB	078H
	DB	01H
	DB	078H
	DB	02H
	DB	070H
	DB	02H
	DB	070H
	DB	02H
	DB	070H
	DB	02H
	DB	070H
	DB	02H
	DB	070H
	DB	02H
	DB	070H
	DB	02H
	DB	070H
	DB	02H
	DB	068H
	DB	03H
	DB	068H
	DB	02H
	DB	070H
	DB	02H
	DB	068H
	DB	03H
	DB	070H
	DB	02H
	DB	070H
	DB	03H
	DB	068H
	DB	03H
	DB	068H
	DB	02H
	DB	070H
	DB	03H
	DB	068H
	DB	03H
	DB	068H
	DB	03H
	DB	068H
	DB	03H
	DB	068H
	DB	03H
	DB	068H
	DB	03H
	DB	068H
	DB	03H
	DB	068H
	DB	03H
	DB	060H
	DB	03H
	DB	068H
	DB	04H
	DB	068H
	DB	04H
	DB	060H
	DB	04H
	DB	068H
	DB	03H
	DB	060H
	DB	04H
	DB	068H
	DB	04H
	DB	060H
	DB	03H
	DB	060H
	DB	04H
	DB	060H
	DB	04H
	DB	068H
	DB	04H
	DB	060H
	DB	04H
	DB	060H
	DB	04H
	DB	060H
	DB	04H
	DB	060H
	DB	04H
	DB	060H
	DB	04H
	DB	060H
	DB	04H
	DB	060H
	DB	05H
	DB	058H
	DB	04H
	DB	060H
	DB	05H
	DB	058H
	DB	05H
	DB	058H
	DB	04H
	DB	060H
	DB	05H
	DB	060H
	DB	05H
	DB	058H
	DB	04H
	DB	058H
	DB	05H
	DB	058H
	DB	05H
	DB	058H
	DB	05H
	DB	058H
	DB	05H
	DB	058H
	DB	05H
	DB	058H
	DB	05H
	DB	058H
	DB	05H
	DB	058H
	DB	06H
	DB	058H
	DB	05H
	DB	050H
	DB	06H
	DB	058H
	DB	05H
	DB	050H
	DB	05H
	DB	058H
	DB	06H
	DB	058H
	DB	05H
	DB	050H
	DB	05H
	DB	058H
	DB	06H
	DB	050H
	DB	05H
	DB	050H
	DB	06H
	DB	058H
	DB	06H
	DB	050H
	DB	06H
	DB	050H
	DB	06H
	DB	050H
	DB	06H
	DB	050H
	DB	06H
	DB	050H
	DB	06H
	DB	050H
	DB	06H
	DB	050H
	DB	07H
	DB	050H
	DB	06H
	DB	050H
	DB	06H
	DB	048H
	DB	07H
	DB	050H
	DB	06H
	DB	050H
	DB	07H
	DB	048H
	DB	07H
	DB	050H
	DB	06H
	DB	050H
	DB	07H
	DB	048H
	DB	07H
	DB	048H
	DB	07H
	DB	048H
	DB	07H
	DB	048H
	DB	07H
	DB	048H
	DB	07H
	DB	048H
	DB	07H
	DB	048H
	DB	07H
	DB	048H
	DB	07H
	DB	048H
	DB	08H
	DB	040H
	DB	07H
	DB	048H
	DB	07H
	DB	048H
	DB	08H
	DB	040H
	DB	07H
	DB	048H
	DB	07H
	DB	048H
	DB	08H
	DB	040H
	DB	08H
	DB	048H
	DB	08H
	DB	040H
	DB	08H
	DB	040H
	DB	08H
	DB	048H
	DB	08H
	DB	040H
	DB	08H
	DB	040H
	DB	08H
	DB	040H
	DB	08H
	DB	040H
	DB	08H
	DB	040H
	DB	09H
	DB	040H
	DB	09H
	DB	038H
	DB	08H
	DB	040H
	DB	09H
	DB	038H
	DB	09H
	DB	040H
	DB	09H
	DB	038H
	DB	09H
	DB	038H
	DB	09H
	DB	038H
	DB	09H
	DB	038H
	DB	09H
	DB	038H
	DB	09H
	DB	038H
	DB	09H
	DB	038H
	DB	09H
	DB	038H
	DB	09H
	DB	038H
	DB	0aH
	DB	038H
	DB	09H
	DB	030H
	DB	09H
	DB	038H
	DB	0aH
	DB	038H
	DB	0aH
	DB	030H
	DB	09H
	DB	030H
	DB	0aH
	DB	030H
	DB	0aH
	DB	030H
	DB	0aH
	DB	030H
	DB	0aH
	DB	030H
	DB	0aH
	DB	030H
	DB	0aH
	DB	030H
	DB	0bH
	DB	030H
	DB	0aH
	DB	028H
	DB	0aH
	DB	030H
	DB	0bH
	DB	028H
	DB	0aH
	DB	028H
	DB	0aH
	DB	030H
	DB	0bH
	DB	028H
	DB	0aH
	DB	028H
	DB	0aH
	DB	028H
	DB	0bH
	DB	028H
	DB	0bH
	DB	028H
	DB	0bH
	DB	028H
	DB	0bH
	DB	028H
	DB	0bH
	DB	028H
	DB	0bH
	DB	028H
	DB	0bH
	DB	020H
	DB	0bH
	DB	028H
	DB	0cH
	DB	020H
	DB	0cH
	DB	020H
	DB	0bH
	DB	028H
	DB	0cH
	DB	028H
	DB	0cH
	DB	020H
	DB	0cH
	DB	020H
	DB	0cH
	DB	020H
	DB	0cH
	DB	020H
	DB	0cH
	DB	020H
	DB	0cH
	DB	020H
	DB	0cH
	DB	018H
	DB	0dH
	DB	020H
	DB	0cH
	DB	018H
	DB	0cH
	DB	018H
	DB	0dH
	DB	020H
	DB	0cH
	DB	018H
	DB	0dH
	DB	018H
	DB	0dH
	DB	018H
	DB	0dH
	DB	018H
	DB	0dH
	DB	018H
	DB	0dH
	DB	018H
	DB	0dH
	DB	018H
	DB	0dH
	DB	018H
	DB	0dH
	DB	018H
	DB	0dH
	DB	018H
	DB	0eH
	DB	010H
	DB	0eH
	DB	010H
	DB	0eH
	DB	018H
	DB	0dH
	DB	010H
	DB	0eH
	DB	010H
	DB	0dH
	DB	010H
	DB	0dH
	DB	010H
	DB	0eH
	DB	010H
	DB	0eH
	DB	010H
	DB	0eH
	DB	010H
	DB	0eH
	DB	010H
	DB	0eH
	DB	010H
	DB	0eH
	DB	08H
	DB	0fH
	DB	010H
	DB	0fH
	DB	08H
	DB	0eH
	DB	08H
	DB	0fH
	DB	010H
	DB	0eH
	DB	010H
	DB	0fH
	DB	08H
	DB	0eH
	DB	08H
	DB	0fH
	DB	08H
	DB	0fH
	DB	08H
	DB	0fH
	DB	08H
	DB	0fH
	DB	08H
	DB	0fH
	DB	08H
	DB	0fH
	DB	00H
	DB	010H
	DB	08H
	DB	0fH
	DB	08H
	DB	0fH
	DB	00H
	DB	010H
	DB	08H
	DB	010H
	DB	00H
	DB	010H
	DB	00H
	DB	010H
	DB	00H
	DB	010H
	DB	00H
	DB	010H
	DB	00H
	DB	010H
	DB	00H
	DB	00H
	DB	04H
	DB	00H
	DB	04H
	DB	00H
	DB	04H
	DB	00H
	DB	04H
	DB	0e0H
	DB	03H
	DB	0e0H
	DB	03H
	DB	0e0H
	DB	0bH
	DB	0e0H
	DB	0bH
	DB	0e0H
	DB	03H
	DB	0e0H
	DB	0bH
	DB	0e0H
	DB	03H
	DB	0c0H
	DB	0bH
	DB	0e0H
	DB	0bH
	DB	0c0H
	DB	0bH
	DB	0c0H
	DB	0bH
	DB	0c0H
	DB	0bH
	DB	0c0H
	DB	0bH
	DB	0c0H
	DB	0bH
	DB	0a0H
	DB	013H
	DB	0a0H
	DB	0bH
	DB	0c0H
	DB	0bH
	DB	0a0H
	DB	013H
	DB	0a0H
	DB	0bH
	DB	0a0H
	DB	013H
	DB	0a0H
	DB	013H
	DB	0a0H
	DB	0bH
	DB	080H
	DB	013H
	DB	0a0H
	DB	013H
	DB	080H
	DB	013H
	DB	080H
	DB	013H
	DB	080H
	DB	013H
	DB	080H
	DB	013H
	DB	060H
	DB	013H
	DB	080H
	DB	013H
	DB	080H
	DB	01bH
	DB	060H
	DB	013H
	DB	060H
	DB	013H
	DB	060H
	DB	01bH
	DB	060H
	DB	01bH
	DB	060H
	DB	01bH
	DB	060H
	DB	013H
	DB	040H
	DB	01bH
	DB	060H
	DB	01bH
	DB	040H
	DB	01bH
	DB	040H
	DB	01bH
	DB	040H
	DB	01bH
	DB	040H
	DB	01bH
	DB	020H
	DB	01bH
	DB	040H
	DB	01bH
	DB	020H
	DB	01bH
	DB	020H
	DB	023H
	DB	020H
	DB	023H
	DB	020H
	DB	01bH
	DB	020H
	DB	01bH
	DB	020H
	DB	023H
	DB	00H
	DB	023H
	DB	00H
	DB	01bH
	DB	00H
	DB	023H
	DB	00H
	DB	023H
	DB	00H
	DB	023H
	DB	00H
	DB	023H
	DB	00H
	DB	023H
	DB	0e0H
	DB	02aH
	DB	00H
	DB	02bH
	DB	0e0H
	DB	022H
	DB	0e0H
	DB	022H
	DB	0e0H
	DB	02aH
	DB	0e0H
	DB	022H
	DB	0e0H
	DB	02aH
	DB	0e0H
	DB	02aH
	DB	0c0H
	DB	02aH
	DB	0c0H
	DB	02aH
	DB	0c0H
	DB	02aH
	DB	0c0H
	DB	02aH
	DB	0c0H
	DB	02aH
	DB	0c0H
	DB	02aH
	DB	0a0H
	DB	02aH
	DB	0a0H
	DB	02aH
	DB	0c0H
	DB	02aH
	DB	0a0H
	DB	02aH
	DB	0a0H
	DB	02aH
	DB	0a0H
	DB	032H
	DB	0a0H
	DB	02aH
	DB	0a0H
	DB	032H
	DB	080H
	DB	032H
	DB	0a0H
	DB	032H
	DB	080H
	DB	032H
	DB	080H
	DB	032H
	DB	080H
	DB	032H
	DB	080H
	DB	032H
	DB	080H
	DB	032H
	DB	080H
	DB	032H
	DB	060H
	DB	032H
	DB	080H
	DB	032H
	DB	060H
	DB	03aH
	DB	060H
	DB	03aH
	DB	060H
	DB	032H
	DB	060H
	DB	03aH
	DB	060H
	DB	03aH
	DB	060H
	DB	032H
	DB	040H
	DB	03aH
	DB	040H
	DB	03aH
	DB	040H
	DB	03aH
	DB	040H
	DB	03aH
	DB	040H
	DB	03aH
	DB	040H
	DB	03aH
	DB	040H
	DB	03aH
	DB	040H
	DB	03aH
	DB	020H
	DB	042H
	DB	020H
	DB	03aH
	DB	020H
	DB	042H
	DB	020H
	DB	042H
	DB	020H
	DB	042H
	DB	020H
	DB	03aH
	DB	00H
	DB	042H
	DB	00H
	DB	042H
	DB	00H
	DB	042H
	DB	00H
	DB	042H
	DB	00H
	DB	042H
	DB	00H
	DB	042H
	DB	00H
	DB	042H
	DB	0e0H
	DB	049H
	DB	00H
	DB	042H
	DB	0e0H
	DB	041H
	DB	0e0H
	DB	041H
	DB	0e0H
	DB	049H
	DB	0e0H
	DB	041H
	DB	0e0H
	DB	049H
	DB	0c0H
	DB	041H
	DB	0e0H
	DB	049H
	DB	0e0H
	DB	049H
	DB	0c0H
	DB	049H
	DB	0c0H
	DB	049H
	DB	0c0H
	DB	049H
	DB	0c0H
	DB	049H
	DB	0c0H
	DB	049H
	DB	0a0H
	DB	049H
	DB	0a0H
	DB	051H
	DB	0c0H
	DB	049H
	DB	0a0H
	DB	049H
	DB	0a0H
	DB	049H
	DB	0a0H
	DB	051H
	DB	0a0H
	DB	051H
	DB	080H
	DB	051H
	DB	080H
	DB	051H
	DB	080H
	DB	049H
	DB	0a0H
	DB	051H
	DB	080H
	DB	051H
	DB	080H
	DB	051H
	DB	080H
	DB	051H
	DB	080H
	DB	051H
	DB	080H
	DB	051H
	DB	080H
	DB	051H
	DB	060H
	DB	059H
	DB	060H
	DB	051H
	DB	060H
	DB	051H
	DB	060H
	DB	059H
	DB	060H
	DB	059H
	DB	060H
	DB	059H
	DB	040H
	DB	059H
	DB	040H
	DB	051H
	DB	040H
	DB	059H
	DB	040H
	DB	059H
	DB	040H
	DB	059H
	DB	040H
	DB	059H
	DB	040H
	DB	059H
	DB	020H
	DB	059H
	DB	040H
	DB	059H
	DB	020H
	DB	059H
	DB	020H
	DB	061H
	DB	020H
	DB	061H
	DB	020H
	DB	059H
	DB	020H
	DB	061H
	DB	00H
	DB	059H
	DB	020H
	DB	061H
	DB	00H
	DB	061H
	DB	00H
	DB	059H
	DB	00H
	DB	061H
	DB	00H
	DB	061H
	DB	00H
	DB	061H
	DB	00H
	DB	061H
	DB	0e0H
	DB	060H
	DB	00H
	DB	061H
	DB	00H
	DB	061H
	DB	0e0H
	DB	068H
	DB	0e0H
	DB	060H
	DB	0e0H
	DB	060H
	DB	0e0H
	DB	068H
	DB	0c0H
	DB	068H
	DB	0e0H
	DB	068H
	DB	0c0H
	DB	068H
	DB	0c0H
	DB	068H
	DB	0c0H
	DB	068H
	DB	0c0H
	DB	068H
	DB	0c0H
	DB	068H
	DB	0c0H
	DB	068H
	DB	0a0H
	DB	068H
	DB	0c0H
	DB	068H
	DB	0a0H
	DB	068H
	DB	0a0H
	DB	068H
	DB	0a0H
	DB	070H
	DB	0a0H
	DB	070H
	DB	0a0H
	DB	070H
	DB	0a0H
	DB	068H
	DB	080H
	DB	070H
	DB	080H
	DB	070H
	DB	080H
	DB	070H
	DB	080H
	DB	070H
	DB	080H
	DB	070H
	DB	080H
	DB	070H
	DB	080H
	DB	070H
	DB	060H
	DB	070H
	DB	080H
	DB	070H
	DB	060H
	DB	070H
	DB	060H
	DB	070H
	DB	060H
	DB	078H
	DB	060H
	DB	078H
	DB	060H
	DB	070H
	DB	060H
	DB	078H
	DB	040H
	DB	078H
	DB	060H
	DB	078H
	DB	060H
	DB	070H
	DB	040H
	DB	078H
	DB	040H
	DB	078H
	DB	040H
	DB	078H
	DB	040H
	DB	078H
	DB	040H
	DB	078H
	DB	020H
	DB	078H
	DB	020H
	DB	078H
	DB	020H
	DB	078H
	DB	020H
	DB	078H
	DB	020H
	DB	080H
	DB	020H
	DB	078H
	DB	020H
	DB	080H
	DB	00H
	DB	080H
	DB	020H
	DB	080H
	DB	00H
	DB	078H
	DB	00H
	DB	080H
	DB	00H
	DB	080H
	DB	00H
	DB	080H
	DB	00H
	DB	080H
	DB	00H
	DB	080H
	DB	01H
	DB	080H
	DB	00H
	DB	080H
	DB	00H
	DB	078H
	DB	01H
	DB	080H
	DB	00H
	DB	078H
	DB	01H
	DB	078H
	DB	01H
	DB	080H
	DB	00H
	DB	078H
	DB	01H
	DB	078H
	DB	01H
	DB	078H
	DB	00H
	DB	078H
	DB	01H
	DB	078H
	DB	01H
	DB	078H
	DB	01H
	DB	078H
	DB	01H
	DB	078H
	DB	01H
	DB	078H
	DB	01H
	DB	078H
	DB	02H
	DB	070H
	DB	01H
	DB	078H
	DB	01H
	DB	078H
	DB	02H
	DB	078H
	DB	02H
	DB	070H
	DB	02H
	DB	070H
	DB	02H
	DB	070H
	DB	01H
	DB	078H
	DB	02H
	DB	070H
	DB	02H
	DB	070H
	DB	02H
	DB	070H
	DB	02H
	DB	070H
	DB	02H
	DB	070H
	DB	02H
	DB	070H
	DB	02H
	DB	070H
	DB	02H
	DB	070H
	DB	02H
	DB	070H
	DB	02H
	DB	070H
	DB	03H
	DB	070H
	DB	02H
	DB	070H
	DB	02H
	DB	070H
	DB	03H
	DB	068H
	DB	02H
	DB	070H
	DB	02H
	DB	070H
	DB	03H
	DB	068H
	DB	03H
	DB	068H
	DB	03H
	DB	068H
	DB	03H
	DB	068H
	DB	03H
	DB	068H
	DB	03H
	DB	068H
	DB	03H
	DB	068H
	DB	03H
	DB	068H
	DB	03H
	DB	068H
	DB	03H
	DB	068H
	DB	03H
	DB	068H
	DB	03H
	DB	060H
	DB	03H
	DB	068H
	DB	04H
	DB	068H
	DB	03H
	DB	060H
	DB	04H
	DB	060H
	DB	04H
	DB	068H
	DB	04H
	DB	060H
	DB	04H
	DB	060H
	DB	04H
	DB	060H
	DB	03H
	DB	060H
	DB	04H
	DB	060H
	DB	04H
	DB	060H
	DB	04H
	DB	060H
	DB	04H
	DB	060H
	DB	04H
	DB	060H
	DB	04H
	DB	060H
	DB	05H
	DB	060H
	DB	04H
	DB	060H
	DB	04H
	DB	060H
	DB	05H
	DB	058H
	DB	04H
	DB	058H
	DB	04H
	DB	060H
	DB	05H
	DB	058H
	DB	05H
	DB	058H
	DB	05H
	DB	058H
	DB	05H
	DB	058H
	DB	04H
	DB	058H
	DB	05H
	DB	058H
	DB	05H
	DB	058H
	DB	05H
	DB	058H
	DB	05H
	DB	058H
	DB	05H
	DB	058H
	DB	05H
	DB	058H
	DB	06H
	DB	058H
	DB	05H
	DB	050H
	DB	06H
	DB	058H
	DB	05H
	DB	050H
	DB	06H
	DB	058H
	DB	06H
	DB	058H
	DB	06H
	DB	050H
	DB	06H
	DB	050H
	DB	06H
	DB	050H
	DB	06H
	DB	050H
	DB	06H
	DB	050H
	DB	06H
	DB	050H
	DB	06H
	DB	050H
	DB	06H
	DB	050H
	DB	06H
	DB	050H
	DB	06H
	DB	050H
	DB	07H
	DB	048H
	DB	06H
	DB	050H
	DB	06H
	DB	048H
	DB	06H
	DB	050H
	DB	07H
	DB	048H
	DB	07H
	DB	048H
	DB	06H
	DB	048H
	DB	07H
	DB	050H
	DB	07H
	DB	048H
	DB	07H
	DB	048H
	DB	07H
	DB	048H
	DB	07H
	DB	048H
	DB	07H
	DB	048H
	DB	07H
	DB	048H
	DB	07H
	DB	048H
	DB	07H
	DB	048H
	DB	07H
	DB	048H
	DB	07H
	DB	048H
	DB	07H
	DB	040H
	DB	08H
	DB	048H
	DB	08H
	DB	040H
	DB	07H
	DB	040H
	DB	08H
	DB	048H
	DB	08H
	DB	040H
	DB	07H
	DB	040H
	DB	08H
	DB	048H
	DB	08H
	DB	040H
	DB	07H
	DB	040H
	DB	08H
	DB	040H
	DB	08H
	DB	040H
	DB	08H
	DB	040H
	DB	08H
	DB	040H
	DB	08H
	DB	040H
	DB	08H
	DB	040H
	DB	08H
	DB	038H
	DB	09H
	DB	038H
	DB	08H
	DB	040H
	DB	09H
	DB	038H
	DB	09H
	DB	038H
	DB	09H
	DB	040H
	DB	08H
	DB	038H
	DB	09H
	DB	038H
	DB	09H
	DB	038H
	DB	09H
	DB	038H
	DB	09H
	DB	038H
	DB	09H
	DB	038H
	DB	09H
	DB	038H
	DB	0aH
	DB	030H
	DB	0aH
	DB	030H
	DB	09H
	DB	030H
	DB	09H
	DB	030H
	DB	0aH
	DB	038H
	DB	09H
	DB	030H
	DB	0aH
	DB	030H
	DB	0aH
	DB	030H
	DB	0aH
	DB	030H
	DB	0aH
	DB	030H
	DB	0aH
	DB	030H
	DB	0aH
	DB	030H
	DB	0aH
	DB	030H
	DB	0aH
	DB	030H
	DB	0bH
	DB	030H
	DB	0bH
	DB	028H
	DB	0aH
	DB	028H
	DB	0bH
	DB	030H
	DB	0bH
	DB	030H
	DB	0bH
	DB	028H
	DB	0bH
	DB	028H
	DB	0bH
	DB	028H
	DB	0bH
	DB	028H
	DB	0bH
	DB	028H
	DB	0bH
	DB	028H
	DB	0cH
	DB	028H
	DB	0bH
	DB	028H
	DB	0cH
	DB	028H
	DB	0cH
	DB	028H
	DB	0bH
	DB	020H
	DB	0cH
	DB	028H
	DB	0cH
	DB	020H
	DB	0cH
	DB	020H
	DB	0cH
	DB	020H
	DB	0cH
	DB	020H
	DB	0cH
	DB	020H
	DB	0cH
	DB	020H
	DB	0cH
	DB	020H
	DB	0cH
	DB	020H
	DB	0cH
	DB	018H
	DB	0dH
	DB	020H
	DB	0cH
	DB	020H
	DB	0dH
	DB	018H
	DB	0dH
	DB	020H
	DB	0cH
	DB	018H
	DB	0dH
	DB	018H
	DB	0cH
	DB	020H
	DB	0dH
	DB	018H
	DB	0dH
	DB	018H
	DB	0dH
	DB	018H
	DB	0dH
	DB	018H
	DB	0dH
	DB	018H
	DB	0dH
	DB	018H
	DB	0eH
	DB	018H
	DB	0dH
	DB	018H
	DB	0dH
	DB	010H
	DB	0eH
	DB	018H
	DB	0eH
	DB	010H
	DB	0eH
	DB	010H
	DB	0eH
	DB	018H
	DB	0eH
	DB	010H
	DB	0eH
	DB	010H
	DB	0eH
	DB	010H
	DB	0eH
	DB	010H
	DB	0eH
	DB	010H
	DB	0eH
	DB	010H
	DB	0fH
	DB	010H
	DB	0eH
	DB	08H
	DB	0fH
	DB	010H
	DB	0eH
	DB	08H
	DB	0eH
	DB	08H
	DB	0fH
	DB	010H
	DB	0fH
	DB	08H
	DB	0fH
	DB	08H
	DB	0fH
	DB	08H
	DB	0fH
	DB	08H
	DB	0fH
	DB	08H
	DB	0fH
	DB	08H
	DB	0fH
	DB	08H
	DB	0fH
	DB	00H
	DB	010H
	DB	00H
	DB	0fH
	DB	08H
	DB	0fH
	DB	00H
	DB	010H
	DB	08H
	DB	0fH
	DB	08H
	DB	010H
	DB	00H
	DB	010H
	DB	00H
	DB	010H
	DB	00H
	DB	010H
	DB	00H
	DB	010H
	DB	00H
	DB	00H
	DB	04H
	DB	00H
	DB	04H
	DB	00H
	DB	04H
	DB	00H
	DB	04H
	DB	0e0H
	DB	0bH
	DB	00H
	DB	04H
	DB	0e0H
	DB	03H
	DB	0e0H
	DB	03H
	DB	0e0H
	DB	0bH
	DB	0e0H
	DB	03H
	DB	0e0H
	DB	0bH
	DB	0c0H
	DB	03H
	DB	0c0H
	DB	0bH
	DB	0c0H
	DB	0bH
	DB	0c0H
	DB	0bH
	DB	0c0H
	DB	0bH
	DB	0c0H
	DB	0bH
	DB	0c0H
	DB	0bH
	DB	0a0H
	DB	0bH
	DB	0c0H
	DB	0bH
	DB	0a0H
	DB	013H
	DB	0a0H
	DB	0bH
	DB	0a0H
	DB	0bH
	DB	0a0H
	DB	013H
	DB	0a0H
	DB	013H
	DB	0a0H
	DB	0bH
	DB	080H
	DB	013H
	DB	080H
	DB	013H
	DB	080H
	DB	013H
	DB	080H
	DB	013H
	DB	080H
	DB	013H
	DB	080H
	DB	013H
	DB	080H
	DB	013H
	DB	060H
	DB	01bH
	DB	080H
	DB	013H
	DB	060H
	DB	013H
	DB	060H
	DB	01bH
	DB	060H
	DB	013H
	DB	060H
	DB	013H
	DB	060H
	DB	01bH
	DB	040H
	DB	01bH
	DB	040H
	DB	013H
	DB	040H
	DB	01bH
	DB	040H
	DB	01bH
	DB	040H
	DB	01bH
	DB	040H
	DB	01bH
	DB	040H
	DB	01bH
	DB	040H
	DB	01bH
	DB	020H
	DB	01bH
	DB	020H
	DB	023H
	DB	040H
	DB	01bH
	DB	020H
	DB	023H
	DB	020H
	DB	01bH
	DB	020H
	DB	023H
	DB	00H
	DB	023H
	DB	00H
	DB	023H
	DB	020H
	DB	01bH
	DB	00H
	DB	023H
	DB	00H
	DB	023H
	DB	00H
	DB	023H
	DB	00H
	DB	023H
	DB	00H
	DB	023H
	DB	0e0H
	DB	022H
	DB	00H
	DB	023H
	DB	0e0H
	DB	022H
	DB	0e0H
	DB	02aH
	DB	0e0H
	DB	022H
	DB	0e0H
	DB	022H
	DB	0e0H
	DB	02aH
	DB	0c0H
	DB	022H
	DB	0e0H
	DB	02aH
	DB	0e0H
	DB	022H
	DB	0c0H
	DB	02aH
	DB	0c0H
	DB	02aH
	DB	0c0H
	DB	02aH
	DB	0c0H
	DB	02aH
	DB	0c0H
	DB	02aH
	DB	0c0H
	DB	02aH
	DB	0a0H
	DB	032H
	DB	0a0H
	DB	02aH
	DB	0a0H
	DB	032H
	DB	0a0H
	DB	032H
	DB	0a0H
	DB	02aH
	DB	0a0H
	DB	032H
	DB	0a0H
	DB	02aH
	DB	080H
	DB	032H
	DB	080H
	DB	032H
	DB	080H
	DB	02aH
	DB	080H
	DB	032H
	DB	080H
	DB	032H
	DB	080H
	DB	032H
	DB	060H
	DB	032H
	DB	060H
	DB	032H
	DB	060H
	DB	032H
	DB	060H
	DB	032H
	DB	060H
	DB	03aH
	DB	060H
	DB	032H
	DB	060H
	DB	03aH
	DB	060H
	DB	032H
	DB	060H
	DB	03aH
	DB	040H
	DB	03aH
	DB	060H
	DB	03aH
	DB	040H
	DB	03aH
	DB	040H
	DB	03aH
	DB	040H
	DB	03aH
	DB	040H
	DB	03aH
	DB	020H
	DB	03aH
	DB	040H
	DB	042H
	DB	020H
	DB	03aH
	DB	020H
	DB	03aH
	DB	020H
	DB	042H
	DB	020H
	DB	042H
	DB	020H
	DB	03aH
	DB	00H
	DB	042H
	DB	00H
	DB	042H
	DB	00H
	DB	042H
	DB	020H
	DB	042H
	DB	00H
	DB	042H
	DB	00H
	DB	042H
	DB	00H
	DB	042H
	DB	0e0H
	DB	041H
	DB	00H
	DB	042H
	DB	0e0H
	DB	049H
	DB	0e0H
	DB	049H
	DB	0e0H
	DB	041H
	DB	0e0H
	DB	049H
	DB	0e0H
	DB	049H
	DB	0e0H
	DB	041H
	DB	0e0H
	DB	049H
	DB	0c0H
	DB	049H
	DB	0e0H
	DB	041H
	DB	0c0H
	DB	049H
	DB	0c0H
	DB	049H
	DB	0c0H
	DB	049H
	DB	0c0H
	DB	049H
	DB	0c0H
	DB	049H
	DB	0a0H
	DB	049H
	DB	0c0H
	DB	049H
	DB	0a0H
	DB	051H
	DB	0a0H
	DB	049H
	DB	0a0H
	DB	051H
	DB	0a0H
	DB	049H
	DB	0a0H
	DB	049H
	DB	0a0H
	DB	051H
	DB	0a0H
	DB	051H
	DB	080H
	DB	051H
	DB	080H
	DB	051H
	DB	080H
	DB	051H
	DB	080H
	DB	051H
	DB	080H
	DB	051H
	DB	080H
	DB	051H
	DB	060H
	DB	059H
	DB	060H
	DB	051H
	DB	060H
	DB	059H
	DB	080H
	DB	051H
	DB	060H
	DB	059H
	DB	060H
	DB	051H
	DB	060H
	DB	051H
	DB	060H
	DB	059H
	DB	040H
	DB	059H
	DB	060H
	DB	059H
	DB	040H
	DB	059H
	DB	040H
	DB	059H
	DB	040H
	DB	059H
	DB	040H
	DB	059H
	DB	040H
	DB	059H
	DB	040H
	DB	059H
	DB	040H
	DB	059H
	DB	040H
	DB	061H
	DB	020H
	DB	059H
	DB	020H
	DB	059H
	DB	020H
	DB	061H
	DB	020H
	DB	061H
	DB	020H
	DB	061H
	DB	020H
	DB	059H
	DB	00H
	DB	061H
	DB	00H
	DB	061H
	DB	020H
	DB	061H
	DB	00H
	DB	061H
	DB	00H
	DB	061H
	DB	00H
	DB	061H
	DB	00H
	DB	061H
	DB	0e0H
	DB	060H
	DB	0e0H
	DB	068H
	DB	0e0H
	DB	068H
	DB	0e0H
	DB	068H
	DB	0e0H
	DB	060H
	DB	0e0H
	DB	068H
	DB	0c0H
	DB	068H
	DB	0e0H
	DB	060H
	DB	0e0H
	DB	068H
	DB	0c0H
	DB	068H
	DB	0c0H
	DB	068H
	DB	0c0H
	DB	068H
	DB	0c0H
	DB	068H
	DB	0c0H
	DB	068H
	DB	0c0H
	DB	068H
	DB	0a0H
	DB	070H
	DB	0a0H
	DB	068H
	DB	0a0H
	DB	068H
	DB	0a0H
	DB	068H
	DB	0a0H
	DB	068H
	DB	0a0H
	DB	070H
	DB	0a0H
	DB	070H
	DB	0a0H
	DB	070H
	DB	080H
	DB	068H
	DB	080H
	DB	070H
	DB	080H
	DB	070H
	DB	080H
	DB	070H
	DB	080H
	DB	070H
	DB	080H
	DB	070H
	DB	060H
	DB	070H
	DB	080H
	DB	078H
	DB	060H
	DB	070H
	DB	060H
	DB	070H
	DB	060H
	DB	078H
	DB	060H
	DB	070H
	DB	060H
	DB	070H
	DB	060H
	DB	078H
	DB	060H
	DB	078H
	DB	040H
	DB	078H
	DB	040H
	DB	078H
	DB	040H
	DB	078H
	DB	040H
	DB	078H
	DB	040H
	DB	078H
	DB	040H
	DB	078H
	DB	040H
	DB	080H
	DB	020H
	DB	078H
	DB	020H
	DB	080H
	DB	020H
	DB	080H
	DB	020H
	DB	078H
	DB	020H
	DB	078H
	DB	020H
	DB	080H
	DB	020H
	DB	078H
	DB	00H
	DB	080H
	DB	00H
	DB	080H
	DB	020H
	DB	080H
	DB	00H
	DB	080H
	DB	00H
	DB	080H
	DB	00H
	DB	080H
	DB	00H
	DB	078H
	DB	00H
	DB	080H
	DB	00H
	DB	080H
	DB	00H
	DB	078H
	DB	01H
	DB	080H
	DB	00H
	DB	080H
	DB	00H
	DB	078H
	DB	00H
	DB	080H
	DB	01H
	DB	078H
	DB	00H
	DB	080H
	DB	01H
	DB	078H
	DB	01H
	DB	078H
	DB	01H
	DB	078H
	DB	01H
	DB	078H
	DB	01H
	DB	078H
	DB	01H
	DB	078H
	DB	01H
	DB	078H
	DB	01H
	DB	078H
	DB	01H
	DB	078H
	DB	01H
	DB	078H
	DB	01H
	DB	070H
	DB	02H
	DB	070H
	DB	01H
	DB	078H
	DB	01H
	DB	078H
	DB	02H
	DB	070H
	DB	02H
	DB	078H
	DB	01H
	DB	070H
	DB	02H
	DB	070H
	DB	02H
	DB	070H
	DB	02H
	DB	078H
	DB	01H
	DB	070H
	DB	02H
	DB	070H
	DB	02H
	DB	070H
	DB	02H
	DB	070H
	DB	02H
	DB	070H
	DB	02H
	DB	070H
	DB	02H
	DB	070H
	DB	02H
	DB	068H
	DB	03H
	DB	068H
	DB	02H
	DB	070H
	DB	02H
	DB	068H
	DB	03H
	DB	068H
	DB	03H
	DB	070H
	DB	03H
	DB	068H
	DB	02H
	DB	068H
	DB	03H
	DB	070H
	DB	03H
	DB	070H
	DB	03H
	DB	068H
	DB	03H
	DB	068H
	DB	03H
	DB	068H
	DB	03H
	DB	068H
	DB	03H
	DB	068H
	DB	04H
	DB	068H
	DB	03H
	DB	068H
	DB	03H
	DB	068H
	DB	03H
	DB	068H
	DB	04H
	DB	060H
	DB	03H
	DB	060H
	DB	04H
	DB	068H
	DB	03H
	DB	068H
	DB	03H
	DB	060H
	DB	04H
	DB	060H
	DB	04H
	DB	068H
	DB	04H
	DB	060H
	DB	04H
	DB	060H
	DB	04H
	DB	060H
	DB	04H
	DB	060H
	DB	04H
	DB	060H
	DB	04H
	DB	060H
	DB	04H
	DB	058H
	DB	04H
	DB	060H
	DB	05H
	DB	058H
	DB	04H
	DB	060H
	DB	05H
	DB	060H
	DB	05H
	DB	058H
	DB	04H
	DB	058H
	DB	05H
	DB	060H
	DB	05H
	DB	060H
	DB	04H
	DB	058H
	DB	05H
	DB	058H
	DB	05H
	DB	058H
	DB	05H
	DB	058H
	DB	05H
	DB	058H
	DB	05H
	DB	058H
	DB	05H
	DB	058H
	DB	05H
	DB	058H
	DB	05H
	DB	058H
	DB	05H
	DB	058H
	DB	06H
	DB	058H
	DB	05H
	DB	050H
	DB	06H
	DB	050H
	DB	06H
	DB	058H
	DB	05H
	DB	050H
	DB	05H
	DB	050H
	DB	06H
	DB	058H
	DB	05H
	DB	050H
	DB	06H
	DB	058H
	DB	06H
	DB	050H
	DB	06H
	DB	050H
	DB	06H
	DB	050H
	DB	06H
	DB	050H
	DB	06H
	DB	050H
	DB	06H
	DB	050H
	DB	06H
	DB	050H
	DB	06H
	DB	050H
	DB	07H
	DB	050H
	DB	07H
	DB	048H
	DB	06H
	DB	050H
	DB	07H
	DB	048H
	DB	06H
	DB	048H
	DB	07H
	DB	050H
	DB	07H
	DB	048H
	DB	06H
	DB	048H
	DB	07H
	DB	050H
	DB	07H
	DB	048H
	DB	07H
	DB	048H
	DB	07H
	DB	048H
	DB	07H
	DB	048H
	DB	07H
	DB	048H
	DB	07H
	DB	048H
	DB	08H
	DB	040H
	DB	07H
	DB	048H
	DB	07H
	DB	048H
	DB	07H
	DB	040H
	DB	08H
	DB	048H
	DB	07H
	DB	048H
	DB	08H
	DB	040H
	DB	08H
	DB	040H
	DB	07H
	DB	040H
	DB	08H
	DB	040H
	DB	08H
	DB	040H
	DB	08H
	DB	040H
	DB	08H
	DB	040H
	DB	08H
	DB	040H
	DB	08H
	DB	040H
	DB	08H
	DB	038H
	DB	08H
	DB	040H
	DB	09H
	DB	040H
	DB	08H
	DB	038H
	DB	08H
	DB	040H
	DB	09H
	DB	038H
	DB	09H
	DB	038H
	DB	08H
	DB	040H
	DB	09H
	DB	038H
	DB	09H
	DB	038H
	DB	09H
	DB	038H
	DB	09H
	DB	038H
	DB	09H
	DB	038H
	DB	09H
	DB	038H
	DB	09H
	DB	038H
	DB	09H
	DB	038H
	DB	09H
	DB	038H
	DB	0aH
	DB	030H
	DB	0aH
	DB	030H
	DB	0aH
	DB	038H
	DB	0aH
	DB	038H
	DB	0aH
	DB	030H
	DB	0aH
	DB	030H
	DB	0aH
	DB	030H
	DB	0aH
	DB	030H
	DB	0aH
	DB	030H
	DB	0aH
	DB	030H
	DB	0aH
	DB	028H
	DB	0aH
	DB	030H
	DB	0aH
	DB	030H
	DB	0bH
	DB	028H
	DB	0aH
	DB	030H
	DB	0bH
	DB	028H
	DB	0bH
	DB	028H
	DB	0bH
	DB	028H
	DB	0bH
	DB	028H
	DB	0bH
	DB	028H
	DB	0bH
	DB	028H
	DB	0bH
	DB	028H
	DB	0bH
	DB	028H
	DB	0bH
	DB	020H
	DB	0bH
	DB	028H
	DB	0bH
	DB	020H
	DB	0bH
	DB	028H
	DB	0cH
	DB	020H
	DB	0bH
	DB	020H
	DB	0cH
	DB	028H
	DB	0cH
	DB	020H
	DB	0bH
	DB	020H
	DB	0cH
	DB	020H
	DB	0cH
	DB	020H
	DB	0cH
	DB	020H
	DB	0cH
	DB	020H
	DB	0cH
	DB	020H
	DB	0cH
	DB	020H
	DB	0cH
	DB	020H
	DB	0dH
	DB	020H
	DB	0cH
	DB	018H
	DB	0cH
	DB	018H
	DB	0dH
	DB	020H
	DB	0dH
	DB	020H
	DB	0dH
	DB	018H
	DB	0dH
	DB	018H
	DB	0dH
	DB	018H
	DB	0dH
	DB	018H
	DB	0dH
	DB	018H
	DB	0dH
	DB	018H
	DB	0dH
	DB	010H
	DB	0eH
	DB	018H
	DB	0dH
	DB	010H
	DB	0dH
	DB	018H
	DB	0dH
	DB	018H
	DB	0eH
	DB	010H
	DB	0eH
	DB	010H
	DB	0eH
	DB	018H
	DB	0eH
	DB	010H
	DB	0eH
	DB	010H
	DB	0eH
	DB	010H
	DB	0eH
	DB	010H
	DB	0eH
	DB	010H
	DB	0eH
	DB	010H
	DB	0eH
	DB	08H
	DB	0eH
	DB	010H
	DB	0fH
	DB	010H
	DB	0fH
	DB	010H
	DB	0eH
	DB	08H
	DB	0fH
	DB	08H
	DB	0fH
	DB	08H
	DB	0eH
	DB	08H
	DB	0fH
	DB	08H
	DB	0fH
	DB	08H
	DB	0fH
	DB	08H
	DB	0fH
	DB	08H
	DB	0fH
	DB	08H
	DB	0fH
	DB	08H
	DB	010H
	DB	08H
	DB	0fH
	DB	00H
	DB	010H
	DB	08H
	DB	010H
	DB	00H
	DB	010H
	DB	00H
	DB	0fH
	DB	08H
	DB	010H
	DB	00H
	DB	010H
	DB	00H
	DB	010H
	DB	00H
	DB	010H
	DB	00H
	DB	00H
	DB	04H
	DB	0e0H
	DB	03H
	DB	00H
	DB	04H
	DB	00H
	DB	04H
	DB	0e0H
	DB	03H
	DB	00H
	DB	0cH
	DB	0e0H
	DB	03H
	DB	0e0H
	DB	03H
	DB	0e0H
	DB	0bH
	DB	0e0H
	DB	0bH
	DB	0e0H
	DB	0bH
	DB	0e0H
	DB	0bH
	DB	0e0H
	DB	03H
	DB	0c0H
	DB	0bH
	DB	0c0H
	DB	0bH
	DB	0c0H
	DB	0bH
	DB	0c0H
	DB	0bH
	DB	0c0H
	DB	0bH
	DB	0a0H
	DB	0bH
	DB	0c0H
	DB	0bH
	DB	0c0H
	DB	013H
	DB	0a0H
	DB	0bH
	DB	0a0H
	DB	013H
	DB	0a0H
	DB	0bH
	DB	0a0H
	DB	013H
	DB	080H
	DB	013H
	DB	0a0H
	DB	013H
	DB	080H
	DB	0bH
	DB	080H
	DB	013H
	DB	080H
	DB	013H
	DB	080H
	DB	013H
	DB	080H
	DB	013H
	DB	080H
	DB	013H
	DB	060H
	DB	013H
	DB	060H
	DB	013H
	DB	080H
	DB	01bH
	DB	060H
	DB	01bH
	DB	060H
	DB	013H
	DB	060H
	DB	01bH
	DB	060H
	DB	01bH
	DB	040H
	DB	01bH
	DB	060H
	DB	01bH
	DB	040H
	DB	01bH
	DB	040H
	DB	01bH
	DB	040H
	DB	01bH
	DB	040H
	DB	01bH
	DB	040H
	DB	01bH
	DB	020H
	DB	01bH
	DB	040H
	DB	023H
	DB	040H
	DB	01bH
	DB	020H
	DB	01bH
	DB	020H
	DB	023H
	DB	020H
	DB	023H
	DB	020H
	DB	01bH
	DB	020H
	DB	023H
	DB	020H
	DB	01bH
	DB	00H
	DB	023H
	DB	00H
	DB	023H
	DB	00H
	DB	023H
	DB	00H
	DB	023H
	DB	00H
	DB	023H
	DB	00H
	DB	023H
	DB	0e0H
	DB	022H
	DB	00H
	DB	023H
	DB	0e0H
	DB	02aH
	DB	0e0H
	DB	022H
	DB	0e0H
	DB	02aH
	DB	0e0H
	DB	02aH
	DB	0e0H
	DB	02aH
	DB	0e0H
	DB	022H
	DB	0c0H
	DB	02aH
	DB	0c0H
	DB	02aH
	DB	0c0H
	DB	02aH
	DB	0c0H
	DB	02aH
	DB	0c0H
	DB	02aH
	DB	0c0H
	DB	02aH
	DB	0c0H
	DB	02aH
	DB	0a0H
	DB	02aH
	DB	0c0H
	DB	02aH
	DB	0a0H
	DB	032H
	DB	0a0H
	DB	032H
	DB	0a0H
	DB	02aH
	DB	0a0H
	DB	032H
	DB	0a0H
	DB	032H
	DB	080H
	DB	02aH
	DB	080H
	DB	032H
	DB	0a0H
	DB	032H
	DB	080H
	DB	032H
	DB	080H
	DB	032H
	DB	080H
	DB	032H
	DB	080H
	DB	032H
	DB	060H
	DB	032H
	DB	080H
	DB	03aH
	DB	060H
	DB	032H
	DB	060H
	DB	032H
	DB	060H
	DB	03aH
	DB	060H
	DB	032H
	DB	060H
	DB	03aH
	DB	060H
	DB	03aH
	DB	040H
	DB	03aH
	DB	040H
	DB	032H
	DB	040H
	DB	03aH
	DB	040H
	DB	03aH
	DB	040H
	DB	03aH
	DB	040H
	DB	03aH
	DB	040H
	DB	03aH
	DB	020H
	DB	03aH
	DB	020H
	DB	03aH
	DB	040H
	DB	03aH
	DB	020H
	DB	03aH
	DB	020H
	DB	042H
	DB	020H
	DB	03aH
	DB	020H
	DB	03aH
	DB	00H
	DB	042H
	DB	020H
	DB	042H
	DB	00H
	DB	03aH
	DB	00H
	DB	042H
	DB	00H
	DB	042H
	DB	00H
	DB	042H
	DB	00H
	DB	042H
	DB	00H
	DB	042H
	DB	0e0H
	DB	041H
	DB	0e0H
	DB	041H
	DB	0e0H
	DB	041H
	DB	0e0H
	DB	041H
	DB	0e0H
	DB	049H
	DB	0e0H
	DB	049H
	DB	0e0H
	DB	041H
	DB	0e0H
	DB	049H
	DB	0c0H
	DB	049H
	DB	0c0H
	DB	049H
	DB	0c0H
	DB	049H
	DB	0c0H
	DB	049H
	DB	0c0H
	DB	049H
	DB	0c0H
	DB	049H
	DB	0c0H
	DB	049H
	DB	0c0H
	DB	049H
	DB	0c0H
	DB	049H
	DB	0c0H
	DB	051H
	DB	0a0H
	DB	049H
	DB	0a0H
	DB	051H
	DB	0a0H
	DB	051H
	DB	0a0H
	DB	049H
	DB	080H
	DB	049H
	DB	0a0H
	DB	051H
	DB	080H
	DB	051H
	DB	080H
	DB	051H
	DB	080H
	DB	051H
	DB	080H
	DB	051H
	DB	080H
	DB	051H
	DB	080H
	DB	051H
	DB	080H
	DB	051H
	DB	060H
	DB	059H
	DB	060H
	DB	051H
	DB	060H
	DB	051H
	DB	060H
	DB	059H
	DB	060H
	DB	059H
	DB	060H
	DB	051H
	DB	060H
	DB	059H
	DB	060H
	DB	059H
	DB	040H
	DB	059H
	DB	040H
	DB	059H
	DB	040H
	DB	059H
	DB	040H
	DB	059H
	DB	040H
	DB	059H
	DB	020H
	DB	059H
	DB	040H
	DB	059H
	DB	020H
	DB	059H
	DB	020H
	DB	061H
	DB	020H
	DB	061H
	DB	020H
	DB	059H
	DB	020H
	DB	059H
	DB	020H
	DB	061H
	DB	020H
	DB	059H
	DB	00H
	DB	061H
	DB	020H
	DB	061H
	DB	00H
	DB	061H
	DB	00H
	DB	061H
	DB	00H
	DB	061H
	DB	00H
	DB	061H
	DB	00H
	DB	061H
	DB	0e0H
	DB	060H
	DB	0e0H
	DB	068H
	DB	0e0H
	DB	060H
	DB	0e0H
	DB	060H
	DB	0e0H
	DB	060H
	DB	0e0H
	DB	068H
	DB	0e0H
	DB	060H
	DB	0e0H
	DB	060H
	DB	0c0H
	DB	068H
	DB	0c0H
	DB	068H
	DB	0c0H
	DB	068H
	DB	0c0H
	DB	068H
	DB	0c0H
	DB	068H
	DB	0c0H
	DB	068H
	DB	0c0H
	DB	068H
	DB	0a0H
	DB	068H
	DB	0c0H
	DB	068H
	DB	0c0H
	DB	070H
	DB	0a0H
	DB	070H
	DB	0a0H
	DB	070H
	DB	0a0H
	DB	068H
	DB	0a0H
	DB	068H
	DB	080H
	DB	070H
	DB	0a0H
	DB	070H
	DB	080H
	DB	068H
	DB	080H
	DB	070H
	DB	0a0H
	DB	070H
	DB	080H
	DB	070H
	DB	080H
	DB	070H
	DB	080H
	DB	070H
	DB	080H
	DB	070H
	DB	060H
	DB	070H
	DB	060H
	DB	078H
	DB	080H
	DB	070H
	DB	060H
	DB	078H
	DB	060H
	DB	078H
	DB	060H
	DB	078H
	DB	060H
	DB	070H
	DB	040H
	DB	070H
	DB	040H
	DB	078H
	DB	040H
	DB	078H
	DB	040H
	DB	078H
	DB	040H
	DB	078H
	DB	040H
	DB	078H
	DB	040H
	DB	078H
	DB	020H
	DB	078H
	DB	040H
	DB	078H
	DB	040H
	DB	080H
	DB	020H
	DB	078H
	DB	020H
	DB	078H
	DB	020H
	DB	080H
	DB	020H
	DB	080H
	DB	020H
	DB	080H
	DB	00H
	DB	078H
	DB	020H
	DB	080H
	DB	00H
	DB	080H
	DB	00H
	DB	080H
	DB	00H
	DB	080H
	DB	00H
	DB	080H
	DB	00H
	DB	080H
	DB	00H
	DB	078H
	DB	00H
	DB	080H
	DB	00H
	DB	080H
	DB	01H
	DB	078H
	DB	00H
	DB	080H
	DB	01H
	DB	080H
	DB	01H
	DB	080H
	DB	01H
	DB	078H
	DB	00H
	DB	078H
	DB	01H
	DB	080H
	DB	01H
	DB	080H
	DB	01H
	DB	078H
	DB	00H
	DB	078H
	DB	01H
	DB	078H
	DB	01H
	DB	078H
	DB	01H
	DB	078H
	DB	01H
	DB	078H
	DB	01H
	DB	078H
	DB	01H
	DB	078H
	DB	01H
	DB	078H
	DB	01H
	DB	070H
	DB	01H
	DB	078H
	DB	02H
	DB	070H
	DB	01H
	DB	078H
	DB	02H
	DB	070H
	DB	02H
	DB	078H
	DB	01H
	DB	070H
	DB	02H
	DB	070H
	DB	02H
	DB	078H
	DB	02H
	DB	070H
	DB	02H
	DB	070H
	DB	02H
	DB	070H
	DB	02H
	DB	070H
	DB	02H
	DB	070H
	DB	02H
	DB	070H
	DB	03H
	DB	070H
	DB	02H
	DB	068H
	DB	02H
	DB	070H
	DB	03H
	DB	070H
	DB	03H
	DB	070H
	DB	02H
	DB	068H
	DB	03H
	DB	070H
	DB	02H
	DB	068H
	DB	03H
	DB	068H
	DB	02H
	DB	068H
	DB	03H
	DB	068H
	DB	03H
	DB	068H
	DB	03H
	DB	068H
	DB	03H
	DB	068H
	DB	03H
	DB	068H
	DB	03H
	DB	068H
	DB	03H
	DB	068H
	DB	04H
	DB	060H
	DB	03H
	DB	068H
	DB	04H
	DB	060H
	DB	03H
	DB	060H
	DB	04H
	DB	068H
	DB	03H
	DB	060H
	DB	03H
	DB	060H
	DB	04H
	DB	068H
	DB	04H
	DB	060H
	DB	03H
	DB	060H
	DB	04H
	DB	060H
	DB	04H
	DB	060H
	DB	04H
	DB	060H
	DB	04H
	DB	060H
	DB	04H
	DB	060H
	DB	04H
	DB	060H
	DB	04H
	DB	060H
	DB	04H
	DB	060H
	DB	05H
	DB	058H
	DB	04H
	DB	060H
	DB	04H
	DB	060H
	DB	05H
	DB	058H
	DB	05H
	DB	058H
	DB	04H
	DB	058H
	DB	05H
	DB	060H
	DB	05H
	DB	058H
	DB	05H
	DB	058H
	DB	05H
	DB	058H
	DB	05H
	DB	058H
	DB	05H
	DB	058H
	DB	05H
	DB	058H
	DB	05H
	DB	058H
	DB	05H
	DB	058H
	DB	05H
	DB	050H
	DB	05H
	DB	058H
	DB	06H
	DB	058H
	DB	05H
	DB	050H
	DB	05H
	DB	058H
	DB	05H
	DB	050H
	DB	06H
	DB	058H
	DB	06H
	DB	050H
	DB	05H
	DB	050H
	DB	06H
	DB	050H
	DB	06H
	DB	050H
	DB	06H
	DB	050H
	DB	06H
	DB	050H
	DB	06H
	DB	050H
	DB	06H
	DB	050H
	DB	06H
	DB	050H
	DB	06H
	DB	050H
	DB	07H
	DB	048H
	DB	06H
	DB	050H
	DB	06H
	DB	050H
	DB	07H
	DB	048H
	DB	06H
	DB	050H
	DB	06H
	DB	050H
	DB	07H
	DB	048H
	DB	06H
	DB	048H
	DB	07H
	DB	048H
	DB	07H
	DB	048H
	DB	07H
	DB	048H
	DB	07H
	DB	048H
	DB	07H
	DB	048H
	DB	07H
	DB	048H
	DB	07H
	DB	048H
	DB	07H
	DB	048H
	DB	07H
	DB	048H
	DB	07H
	DB	048H
	DB	08H
	DB	048H
	DB	07H
	DB	040H
	DB	08H
	DB	048H
	DB	07H
	DB	040H
	DB	07H
	DB	048H
	DB	08H
	DB	040H
	DB	08H
	DB	040H
	DB	08H
	DB	048H
	DB	08H
	DB	040H
	DB	08H
	DB	040H
	DB	08H
	DB	040H
	DB	08H
	DB	040H
	DB	08H
	DB	040H
	DB	08H
	DB	040H
	DB	08H
	DB	040H
	DB	08H
	DB	040H
	DB	08H
	DB	038H
	DB	09H
	DB	040H
	DB	08H
	DB	040H
	DB	09H
	DB	038H
	DB	09H
	DB	038H
	DB	09H
	DB	038H
	DB	09H
	DB	038H
	DB	09H
	DB	038H
	DB	09H
	DB	038H
	DB	09H
	DB	038H
	DB	09H
	DB	038H
	DB	09H
	DB	038H
	DB	0aH
	DB	030H
	DB	09H
	DB	038H
	DB	09H
	DB	038H
	DB	0aH
	DB	038H
	DB	09H
	DB	030H
	DB	09H
	DB	030H
	DB	0aH
	DB	038H
	DB	0aH
	DB	030H
	DB	09H
	DB	030H
	DB	0aH
	DB	030H
	DB	0aH
	DB	030H
	DB	0aH
	DB	030H
	DB	0aH
	DB	030H
	DB	0aH
	DB	030H
	DB	0bH
	DB	030H
	DB	0aH
	DB	028H
	DB	0aH
	DB	030H
	DB	0bH
	DB	030H
	DB	0aH
	DB	028H
	DB	0aH
	DB	030H
	DB	0bH
	DB	028H
	DB	0aH
	DB	028H
	DB	0bH
	DB	028H
	DB	0bH
	DB	028H
	DB	0bH
	DB	028H
	DB	0bH
	DB	028H
	DB	0bH
	DB	028H
	DB	0bH
	DB	028H
	DB	0cH
	DB	020H
	DB	0bH
	DB	020H
	DB	0cH
	DB	028H
	DB	0bH
	DB	028H
	DB	0bH
	DB	020H
	DB	0cH
	DB	020H
	DB	0cH
	DB	020H
	DB	0cH
	DB	028H
	DB	0cH
	DB	020H
	DB	0cH
	DB	020H
	DB	0cH
	DB	020H
	DB	0dH
	DB	020H
	DB	0cH
	DB	020H
	DB	0dH
	DB	018H
	DB	0cH
	DB	020H
	DB	0dH
	DB	018H
	DB	0cH
	DB	018H
	DB	0dH
	DB	020H
	DB	0cH
	DB	018H
	DB	0dH
	DB	018H
	DB	0dH
	DB	018H
	DB	0dH
	DB	018H
	DB	0dH
	DB	018H
	DB	0dH
	DB	018H
	DB	0dH
	DB	018H
	DB	0dH
	DB	018H
	DB	0eH
	DB	018H
	DB	0eH
	DB	010H
	DB	0eH
	DB	010H
	DB	0eH
	DB	010H
	DB	0dH
	DB	018H
	DB	0eH
	DB	010H
	DB	0dH
	DB	010H
	DB	0eH
	DB	010H
	DB	0eH
	DB	010H
	DB	0eH
	DB	010H
	DB	0eH
	DB	010H
	DB	0eH
	DB	010H
	DB	0fH
	DB	010H
	DB	0eH
	DB	08H
	DB	0eH
	DB	010H
	DB	0fH
	DB	08H
	DB	0eH
	DB	08H
	DB	0fH
	DB	010H
	DB	0fH
	DB	010H
	DB	0fH
	DB	08H
	DB	0eH
	DB	010H
	DB	0fH
	DB	08H
	DB	0fH
	DB	08H
	DB	0fH
	DB	08H
	DB	0fH
	DB	08H
	DB	0fH
	DB	08H
	DB	0fH
	DB	08H
	DB	0fH
	DB	08H
	DB	010H
	DB	08H
	DB	0fH
	DB	00H
	DB	0fH
	DB	00H
	DB	010H
	DB	00H
	DB	010H
	DB	08H
	DB	010H
	DB	00H
	DB	010H
	DB	08H
	DB	010H
	DB	00H
	DB	010H
	DB	00H
	DB	00H
	DB	04H
	DB	00H
	DB	04H
	DB	00H
	DB	04H
	DB	00H
	DB	04H
	DB	0e0H
	DB	03H
	DB	0e0H
	DB	0bH
	DB	0e0H
	DB	0bH
	DB	0e0H
	DB	03H
	DB	0e0H
	DB	0bH
	DB	0e0H
	DB	03H
	DB	0e0H
	DB	0bH
	DB	0e0H
	DB	03H
	DB	0c0H
	DB	0bH
	DB	0c0H
	DB	0bH
	DB	0c0H
	DB	0bH
	DB	0c0H
	DB	0bH
	DB	0c0H
	DB	0bH
	DB	0c0H
	DB	0bH
	DB	0a0H
	DB	0bH
	DB	0a0H
	DB	0bH
	DB	0a0H
	DB	0bH
	DB	0a0H
	DB	013H
	DB	0a0H
	DB	013H
	DB	0a0H
	DB	0bH
	DB	0a0H
	DB	0bH
	DB	080H
	DB	013H
	DB	0a0H
	DB	013H
	DB	080H
	DB	0bH
	DB	080H
	DB	013H
	DB	080H
	DB	013H
	DB	080H
	DB	013H
	DB	080H
	DB	013H
	DB	080H
	DB	013H
	DB	080H
	DB	013H
	DB	060H
	DB	013H
	DB	060H
	DB	01bH
	DB	060H
	DB	013H
	DB	060H
	DB	013H
	DB	060H
	DB	01bH
	DB	060H
	DB	013H
	DB	060H
	DB	01bH
	DB	060H
	DB	01bH
	DB	040H
	DB	01bH
	DB	040H
	DB	01bH
	DB	040H
	DB	01bH
	DB	040H
	DB	01bH
	DB	040H
	DB	01bH
	DB	040H
	DB	01bH
	DB	020H
	DB	01bH
	DB	020H
	DB	01bH
	DB	020H
	DB	01bH
	DB	020H
	DB	01bH
	DB	020H
	DB	023H
	DB	020H
	DB	023H
	DB	020H
	DB	01bH
	DB	00H
	DB	023H
	DB	00H
	DB	023H
	DB	00H
	DB	023H
	DB	020H
	DB	023H
	DB	00H
	DB	023H
	DB	00H
	DB	023H
	DB	00H
	DB	023H
	DB	0e0H
	DB	022H
	DB	00H
	DB	02bH
	DB	00H
	DB	023H
	DB	0e0H
	DB	022H
	DB	0e0H
	DB	02aH
	DB	0e0H
	DB	02aH
	DB	0e0H
	DB	022H
	DB	0c0H
	DB	02aH
	DB	0c0H
	DB	02aH
	DB	0e0H
	DB	02aH
	DB	0c0H
	DB	02aH
	DB	0c0H
	DB	02aH
	DB	0c0H
	DB	02aH
	DB	0c0H
	DB	02aH
	DB	0c0H
	DB	02aH
	DB	0a0H
	DB	02aH
	DB	0c0H
	DB	032H
	DB	0a0H
	DB	02aH
	DB	0a0H
	DB	02aH
	DB	0a0H
	DB	02aH
	DB	0a0H
	DB	02aH
	DB	0a0H
	DB	032H
	DB	0a0H
	DB	032H
	DB	0a0H
	DB	032H
	DB	080H
	DB	032H
	DB	080H
	DB	032H
	DB	080H
	DB	032H
	DB	080H
	DB	032H
	DB	080H
	DB	032H
	DB	080H
	DB	032H
	DB	080H
	DB	032H
	DB	080H
	DB	03aH
	DB	060H
	DB	032H
	DB	060H
	DB	032H
	DB	060H
	DB	03aH
	DB	060H
	DB	03aH
	DB	060H
	DB	03aH
	DB	040H
	DB	032H
	DB	060H
	DB	03aH
	DB	040H
	DB	03aH
	DB	040H
	DB	03aH
	DB	040H
	DB	03aH
	DB	040H
	DB	03aH
	DB	020H
	DB	03aH
	DB	040H
	DB	03aH
	DB	020H
	DB	042H
	DB	020H
	DB	042H
	DB	020H
	DB	03aH
	DB	020H
	DB	042H
	DB	020H
	DB	042H
	DB	020H
	DB	042H
	DB	020H
	DB	042H
	DB	020H
	DB	03aH
	DB	00H
	DB	042H
	DB	00H
	DB	042H
	DB	00H
	DB	042H
	DB	00H
	DB	042H
	DB	00H
	DB	042H
	DB	00H
	DB	042H
	DB	00H
	DB	042H
	DB	00H
	DB	04aH
	DB	0e0H
	DB	041H
	DB	0e0H
	DB	041H
	DB	0e0H
	DB	049H
	DB	0e0H
	DB	041H
	DB	0e0H
	DB	049H
	DB	0c0H
	DB	041H
	DB	0e0H
	DB	049H
	DB	0e0H
	DB	049H
	DB	0c0H
	DB	049H
	DB	0c0H
	DB	049H
	DB	0c0H
	DB	049H
	DB	0c0H
	DB	049H
	DB	0c0H
	DB	049H
	DB	0a0H
	DB	049H
	DB	0a0H
	DB	051H
	DB	0a0H
	DB	049H
	DB	0a0H
	DB	049H
	DB	0a0H
	DB	051H
	DB	0a0H
	DB	051H
	DB	0a0H
	DB	051H
	DB	080H
	DB	051H
	DB	080H
	DB	051H
	DB	0a0H
	DB	049H
	DB	080H
	DB	051H
	DB	0a0H
	DB	051H
	DB	080H
	DB	051H
	DB	080H
	DB	051H
	DB	080H
	DB	051H
	DB	060H
	DB	051H
	DB	080H
	DB	051H
	DB	060H
	DB	051H
	DB	060H
	DB	059H
	DB	060H
	DB	059H
	DB	060H
	DB	051H
	DB	060H
	DB	059H
	DB	060H
	DB	051H
	DB	040H
	DB	059H
	DB	060H
	DB	059H
	DB	040H
	DB	051H
	DB	040H
	DB	059H
	DB	040H
	DB	059H
	DB	040H
	DB	059H
	DB	040H
	DB	059H
	DB	020H
	DB	059H
	DB	020H
	DB	059H
	DB	020H
	DB	059H
	DB	020H
	DB	059H
	DB	020H
	DB	061H
	DB	020H
	DB	059H
	DB	020H
	DB	061H
	DB	00H
	DB	061H
	DB	00H
	DB	061H
	DB	00H
	DB	061H
	DB	00H
	DB	061H
	DB	00H
	DB	061H
	DB	00H
	DB	061H
	DB	00H
	DB	061H
	DB	00H
	DB	061H
	DB	0e0H
	DB	060H
	DB	00H
	DB	069H
	DB	0e0H
	DB	060H
	DB	0e0H
	DB	060H
	DB	0e0H
	DB	068H
	DB	0e0H
	DB	068H
	DB	0e0H
	DB	068H
	DB	0e0H
	DB	060H
	DB	0c0H
	DB	068H
	DB	0c0H
	DB	068H
	DB	0e0H
	DB	060H
	DB	0c0H
	DB	068H
	DB	0c0H
	DB	068H
	DB	0c0H
	DB	068H
	DB	0c0H
	DB	068H
	DB	0a0H
	DB	068H
	DB	0c0H
	DB	068H
	DB	0a0H
	DB	068H
	DB	0a0H
	DB	068H
	DB	0a0H
	DB	070H
	DB	0a0H
	DB	070H
	DB	0a0H
	DB	068H
	DB	0a0H
	DB	070H
	DB	0a0H
	DB	070H
	DB	0a0H
	DB	070H
	DB	080H
	DB	070H
	DB	080H
	DB	070H
	DB	080H
	DB	070H
	DB	080H
	DB	070H
	DB	080H
	DB	070H
	DB	060H
	DB	070H
	DB	080H
	DB	070H
	DB	060H
	DB	070H
	DB	060H
	DB	070H
	DB	060H
	DB	078H
	DB	060H
	DB	078H
	DB	060H
	DB	070H
	DB	060H
	DB	078H
	DB	040H
	DB	078H
	DB	060H
	DB	078H
	DB	040H
	DB	070H
	DB	040H
	DB	078H
	DB	040H
	DB	078H
	DB	040H
	DB	078H
	DB	040H
	DB	078H
	DB	020H
	DB	078H
	DB	040H
	DB	078H
	DB	040H
	DB	080H
	DB	020H
	DB	078H
	DB	020H
	DB	078H
	DB	020H
	DB	080H
	DB	020H
	DB	078H
	DB	020H
	DB	080H
	DB	020H
	DB	080H
	DB	00H
	DB	078H
	DB	00H
	DB	080H
	DB	00H
	DB	080H
	DB	00H
	DB	080H
	DB	00H
	DB	080H
	DB	00H
	DB	080H
	DB	00H
	DB	080H
	DB	00H
	DB	080H
	DB	01H
	DB	080H
	DB	00H
	DB	078H
	DB	00H
	DB	078H
	DB	00H
	DB	078H
	DB	01H
	DB	080H
	DB	01H
	DB	078H
	DB	00H
	DB	078H
	DB	00H
	DB	078H
	DB	01H
	DB	078H
	DB	01H
	DB	080H
	DB	01H
	DB	078H
	DB	01H
	DB	078H
	DB	01H
	DB	078H
	DB	01H
	DB	078H
	DB	01H
	DB	078H
	DB	01H
	DB	078H
	DB	02H
	DB	078H
	DB	01H
	DB	078H
	DB	02H
	DB	078H
	DB	02H
	DB	078H
	DB	01H
	DB	070H
	DB	02H
	DB	070H
	DB	01H
	DB	078H
	DB	02H
	DB	070H
	DB	01H
	DB	070H
	DB	02H
	DB	070H
	DB	02H
	DB	070H
	DB	02H
	DB	070H
	DB	02H
	DB	070H
	DB	02H
	DB	070H
	DB	02H
	DB	070H
	DB	02H
	DB	070H
	DB	02H
	DB	070H
	DB	02H
	DB	068H
	DB	02H
	DB	070H
	DB	03H
	DB	070H
	DB	03H
	DB	068H
	DB	02H
	DB	070H
	DB	03H
	DB	068H
	DB	02H
	DB	068H
	DB	03H
	DB	070H
	DB	03H
	DB	068H
	DB	03H
	DB	068H
	DB	03H
	DB	070H
	DB	03H
	DB	068H
	DB	03H
	DB	068H
	DB	03H
	DB	068H
	DB	03H
	DB	068H
	DB	03H
	DB	068H
	DB	03H
	DB	068H
	DB	03H
	DB	068H
	DB	04H
	DB	060H
	DB	03H
	DB	068H
	DB	03H
	DB	068H
	DB	04H
	DB	068H
	DB	04H
	DB	060H
	DB	04H
	DB	060H
	DB	04H
	DB	060H
	DB	04H
	DB	060H
	DB	04H
	DB	060H
	DB	04H
	DB	068H
	DB	04H
	DB	060H
	DB	04H
	DB	060H
	DB	04H
	DB	060H
	DB	04H
	DB	060H
	DB	04H
	DB	060H
	DB	04H
	DB	060H
	DB	05H
	DB	060H
	DB	04H
	DB	058H
	DB	04H
	DB	060H
	DB	05H
	DB	060H
	DB	04H
	DB	058H
	DB	05H
	DB	060H
	DB	04H
	DB	058H
	DB	05H
	DB	058H
	DB	05H
	DB	058H
	DB	04H
	DB	060H
	DB	05H
	DB	060H
	DB	05H
	DB	058H
	DB	05H
	DB	058H
	DB	05H
	DB	058H
	DB	05H
	DB	058H
	DB	06H
	DB	058H
	DB	05H
	DB	058H
	DB	05H
	DB	050H
	DB	06H
	DB	058H
	DB	05H
	DB	050H
	DB	06H
	DB	058H
	DB	06H
	DB	058H
	DB	06H
	DB	050H
	DB	06H
	DB	058H
	DB	05H
	DB	058H
	DB	06H
	DB	050H
	DB	06H
	DB	050H
	DB	06H
	DB	050H
	DB	06H
	DB	050H
	DB	06H
	DB	050H
	DB	06H
	DB	050H
	DB	06H
	DB	050H
	DB	06H
	DB	050H
	DB	07H
	DB	048H
	DB	06H
	DB	048H
	DB	06H
	DB	050H
	DB	07H
	DB	048H
	DB	07H
	DB	048H
	DB	06H
	DB	050H
	DB	07H
	DB	050H
	DB	07H
	DB	048H
	DB	07H
	DB	048H
	DB	07H
	DB	050H
	DB	07H
	DB	048H
	DB	07H
	DB	048H
	DB	07H
	DB	048H
	DB	07H
	DB	048H
	DB	07H
	DB	048H
	DB	07H
	DB	048H
	DB	07H
	DB	048H
	DB	08H
	DB	048H
	DB	07H
	DB	040H
	DB	08H
	DB	048H
	DB	07H
	DB	040H
	DB	08H
	DB	048H
	DB	08H
	DB	040H
	DB	07H
	DB	040H
	DB	08H
	DB	048H
	DB	08H
	DB	040H
	DB	08H
	DB	040H
	DB	08H
	DB	040H
	DB	08H
	DB	040H
	DB	08H
	DB	040H
	DB	08H
	DB	040H
	DB	08H
	DB	040H
	DB	08H
	DB	040H
	DB	09H
	DB	038H
	DB	08H
	DB	040H
	DB	08H
	DB	040H
	DB	09H
	DB	038H
	DB	08H
	DB	038H
	DB	08H
	DB	040H
	DB	09H
	DB	038H
	DB	09H
	DB	038H
	DB	09H
	DB	038H
	DB	09H
	DB	038H
	DB	09H
	DB	038H
	DB	09H
	DB	038H
	DB	09H
	DB	038H
	DB	09H
	DB	030H
	DB	0aH
	DB	038H
	DB	0aH
	DB	030H
	DB	09H
	DB	030H
	DB	0aH
	DB	038H
	DB	0aH
	DB	030H
	DB	0aH
	DB	030H
	DB	0aH
	DB	030H
	DB	0aH
	DB	038H
	DB	0aH
	DB	030H
	DB	0aH
	DB	030H
	DB	0aH
	DB	030H
	DB	0aH
	DB	030H
	DB	0bH
	DB	030H
	DB	0bH
	DB	030H
	DB	0aH
	DB	028H
	DB	0bH
	DB	030H
	DB	0bH
	DB	028H
	DB	0bH
	DB	028H
	DB	0aH
	DB	028H
	DB	0bH
	DB	030H
	DB	0bH
	DB	028H
	DB	0bH
	DB	028H
	DB	0bH
	DB	028H
	DB	0bH
	DB	028H
	DB	0bH
	DB	028H
	DB	0bH
	DB	028H
	DB	0cH
	DB	028H
	DB	0bH
	DB	028H
	DB	0cH
	DB	028H
	DB	0cH
	DB	020H
	DB	0cH
	DB	020H
	DB	0cH
	DB	020H
	DB	0cH
	DB	028H
	DB	0cH
	DB	020H
	DB	0cH
	DB	020H
	DB	0cH
	DB	020H
	DB	0cH
	DB	020H
	DB	0cH
	DB	020H
	DB	0cH
	DB	020H
	DB	0cH
	DB	020H
	DB	0cH
	DB	018H
	DB	0dH
	DB	020H
	DB	0cH
	DB	020H
	DB	0dH
	DB	018H
	DB	0dH
	DB	018H
	DB	0dH
	DB	018H
	DB	0dH
	DB	018H
	DB	0dH
	DB	018H
	DB	0dH
	DB	018H
	DB	0dH
	DB	018H
	DB	0dH
	DB	018H
	DB	0dH
	DB	018H
	DB	0dH
	DB	018H
	DB	0dH
	DB	018H
	DB	0dH
	DB	018H
	DB	0eH
	DB	010H
	DB	0eH
	DB	010H
	DB	0dH
	DB	018H
	DB	0eH
	DB	018H
	DB	0eH
	DB	010H
	DB	0eH
	DB	010H
	DB	0eH
	DB	010H
	DB	0eH
	DB	010H
	DB	0eH
	DB	010H
	DB	0eH
	DB	010H
	DB	0eH
	DB	010H
	DB	0eH
	DB	010H
	DB	0fH
	DB	010H
	DB	0eH
	DB	010H
	DB	0eH
	DB	08H
	DB	0eH
	DB	08H
	DB	0fH
	DB	08H
	DB	0fH
	DB	08H
	DB	0fH
	DB	08H
	DB	0fH
	DB	08H
	DB	0fH
	DB	08H
	DB	0fH
	DB	08H
	DB	0fH
	DB	08H
	DB	010H
	DB	08H
	DB	0fH
	DB	00H
	DB	010H
	DB	08H
	DB	010H
	DB	08H
	DB	0fH
	DB	00H
	DB	0fH
	DB	08H
	DB	010H
	DB	08H
	DB	0fH
	DB	00H
	DB	010H
	DB	00H
	DB	010H
	DB	00H
	DB	010H
	DB	00H
	DB	010H
	DB	00H
	DB	00H
	DB	04H
	DB	00H
	DB	04H
	DB	00H
	DB	04H
	DB	00H
	DB	0cH
	DB	0e0H
	DB	03H
	DB	00H
	DB	04H
	DB	0e0H
	DB	03H
	DB	0e0H
	DB	03H
	DB	0e0H
	DB	0bH
	DB	0e0H
	DB	0bH
	DB	0c0H
	DB	0bH
	DB	0e0H
	DB	03H
	DB	0c0H
	DB	0bH
	DB	0c0H
	DB	0bH
	DB	0c0H
	DB	0bH
	DB	0c0H
	DB	0bH
	DB	0c0H
	DB	0bH
	DB	0c0H
	DB	0bH
	DB	0c0H
	DB	013H
	DB	0a0H
	DB	0bH
	DB	0c0H
	DB	0bH
	DB	0a0H
	DB	013H
	DB	0a0H
	DB	0bH
	DB	0a0H
	DB	013H
	DB	0a0H
	DB	013H
	DB	080H
	DB	013H
	DB	080H
	DB	0bH
	DB	0a0H
	DB	013H
	DB	080H
	DB	013H
	DB	080H
	DB	013H
	DB	080H
	DB	013H
	DB	080H
	DB	013H
	DB	080H
	DB	013H
	DB	080H
	DB	013H
	DB	060H
	DB	01bH
	DB	060H
	DB	013H
	DB	080H
	DB	013H
	DB	060H
	DB	01bH
	DB	060H
	DB	01bH
	DB	060H
	DB	013H
	DB	040H
	DB	013H
	DB	040H
	DB	01bH
	DB	040H
	DB	01bH
	DB	040H
	DB	013H
	DB	040H
	DB	01bH
	DB	040H
	DB	01bH
	DB	040H
	DB	01bH
	DB	040H
	DB	01bH
	DB	020H
	DB	023H
	DB	020H
	DB	01bH
	DB	020H
	DB	023H
	DB	020H
	DB	01bH
	DB	020H
	DB	01bH
	DB	020H
	DB	023H
	DB	020H
	DB	023H
	DB	020H
	DB	023H
	DB	020H
	DB	023H
	DB	00H
	DB	023H
	DB	00H
	DB	023H
	DB	00H
	DB	023H
	DB	00H
	DB	023H
	DB	0e0H
	DB	022H
	DB	00H
	DB	023H
	DB	0e0H
	DB	022H
	DB	0e0H
	DB	02aH
	DB	0e0H
	DB	022H
	DB	0e0H
	DB	022H
	DB	0e0H
	DB	022H
	DB	0e0H
	DB	02aH
	DB	0c0H
	DB	02aH
	DB	0e0H
	DB	022H
	DB	0c0H
	DB	022H
	DB	0c0H
	DB	02aH
	DB	0c0H
	DB	02aH
	DB	0c0H
	DB	02aH
	DB	0c0H
	DB	02aH
	DB	0c0H
	DB	02aH
	DB	0a0H
	DB	02aH
	DB	0c0H
	DB	02aH
	DB	0a0H
	DB	02aH
	DB	0a0H
	DB	032H
	DB	0a0H
	DB	032H
	DB	0a0H
	DB	032H
	DB	0a0H
	DB	02aH
	DB	080H
	DB	02aH
	DB	080H
	DB	032H
	DB	080H
	DB	032H
	DB	080H
	DB	032H
	DB	080H
	DB	032H
	DB	080H
	DB	032H
	DB	080H
	DB	032H
	DB	060H
	DB	032H
	DB	060H
	DB	032H
	DB	080H
	DB	032H
	DB	060H
	DB	03aH
	DB	060H
	DB	03aH
	DB	060H
	DB	032H
	DB	060H
	DB	032H
	DB	060H
	DB	03aH
	DB	040H
	DB	03aH
	DB	040H
	DB	03aH
	DB	040H
	DB	03aH
	DB	040H
	DB	03aH
	DB	040H
	DB	03aH
	DB	040H
	DB	03aH
	DB	020H
	DB	03aH
	DB	040H
	DB	03aH
	DB	020H
	DB	03aH
	DB	040H
	DB	042H
	DB	020H
	DB	03aH
	DB	020H
	DB	03aH
	DB	020H
	DB	042H
	DB	020H
	DB	03aH
	DB	00H
	DB	042H
	DB	00H
	DB	042H
	DB	00H
	DB	042H
	DB	020H
	DB	042H
	DB	00H
	DB	042H
	DB	00H
	DB	042H
	DB	00H
	DB	042H
	DB	00H
	DB	042H
	DB	0e0H
	DB	041H
	DB	00H
	DB	04aH
	DB	0e0H
	DB	049H
	DB	0e0H
	DB	049H
	DB	0e0H
	DB	041H
	DB	0e0H
	DB	049H
	DB	0e0H
	DB	049H
	DB	0c0H
	DB	041H
	DB	0c0H
	DB	049H
	DB	0e0H
	DB	049H
	DB	0c0H
	DB	049H
	DB	0c0H
	DB	049H
	DB	0c0H
	DB	049H
	DB	0c0H
	DB	049H
	DB	0c0H
	DB	049H
	DB	0c0H
	DB	049H
	DB	0a0H
	DB	049H
	DB	0a0H
	DB	051H
	DB	0a0H
	DB	049H
	DB	0a0H
	DB	049H
	DB	0a0H
	DB	051H
	DB	0a0H
	DB	049H
	DB	0a0H
	DB	051H
	DB	0a0H
	DB	051H
	DB	080H
	DB	051H
	DB	080H
	DB	051H
	DB	080H
	DB	051H
	DB	080H
	DB	051H
	DB	080H
	DB	051H
	DB	060H
	DB	051H
	DB	080H
	DB	051H
	DB	080H
	DB	051H
	DB	060H
	DB	059H
	DB	060H
	DB	059H
	DB	060H
	DB	051H
	DB	060H
	DB	059H
	DB	060H
	DB	059H
	DB	040H
	DB	051H
	DB	040H
	DB	059H
	DB	060H
	DB	059H
	DB	040H
	DB	059H
	DB	040H
	DB	059H
	DB	040H
	DB	059H
	DB	040H
	DB	059H
	DB	040H
	DB	059H
	DB	020H
	DB	061H
	DB	040H
	DB	059H
	DB	020H
	DB	059H
	DB	020H
	DB	061H
	DB	020H
	DB	061H
	DB	020H
	DB	061H
	DB	020H
	DB	059H
	DB	00H
	DB	061H
	DB	020H
	DB	059H
	DB	020H
	DB	061H
	DB	00H
	DB	061H
	DB	00H
	DB	061H
	DB	00H
	DB	061H
	DB	00H
	DB	061H
	DB	00H
	DB	061H
	DB	0e0H
	DB	060H
	DB	00H
	DB	061H
	DB	00H
	DB	061H
	DB	0e0H
	DB	068H
	DB	0e0H
	DB	060H
	DB	0e0H
	DB	068H
	DB	0e0H
	DB	068H
	DB	0e0H
	DB	060H
	DB	0c0H
	DB	068H
	DB	0e0H
	DB	068H
	DB	0c0H
	DB	068H
	DB	0c0H
	DB	068H
	DB	0c0H
	DB	068H
	DB	0c0H
	DB	068H
	DB	0c0H
	DB	068H
	DB	0c0H
	DB	068H
	DB	0a0H
	DB	070H
	DB	0a0H
	DB	068H
	DB	0a0H
	DB	068H
	DB	0a0H
	DB	070H
	DB	0a0H
	DB	068H
	DB	0a0H
	DB	068H
	DB	0a0H
	DB	070H
	DB	080H
	DB	068H
	DB	080H
	DB	070H
	DB	080H
	DB	070H
	DB	080H
	DB	070H
	DB	080H
	DB	070H
	DB	080H
	DB	070H
	DB	080H
	DB	070H
	DB	080H
	DB	070H
	DB	060H
	DB	078H
	DB	060H
	DB	070H
	DB	060H
	DB	070H
	DB	060H
	DB	070H
	DB	060H
	DB	070H
	DB	060H
	DB	078H
	DB	060H
	DB	078H
	DB	040H
	DB	078H
	DB	040H
	DB	078H
	DB	060H
	DB	078H
	DB	040H
	DB	078H
	DB	040H
	DB	078H
	DB	040H
	DB	078H
	DB	040H
	DB	078H
	DB	040H
	DB	078H
	DB	020H
	DB	078H
	DB	040H
	DB	080H
	DB	020H
	DB	078H
	DB	020H
	DB	080H
	DB	020H
	DB	078H
	DB	020H
	DB	078H
	DB	020H
	DB	080H
	DB	020H
	DB	080H
	DB	00H
	DB	080H
	DB	00H
	DB	080H
	DB	020H
	DB	080H
	DB	00H
	DB	080H
	DB	00H
	DB	080H
	DB	00H
	DB	080H
	DB	00H
	DB	080H
	DB	00H
	DB	080H
	DB	00H
	DB	078H
	DB	01H
	DB	080H
	DB	00H
	DB	080H
	DB	00H
	DB	080H
	DB	01H
	DB	078H
	DB	01H
	DB	080H
	DB	01H
	DB	080H
	DB	01H
	DB	078H
	DB	01H
	DB	078H
	DB	00H
	DB	078H
	DB	01H
	DB	078H
	DB	01H
	DB	078H
	DB	01H
	DB	078H
	DB	01H
	DB	078H
	DB	01H
	DB	078H
	DB	01H
	DB	078H
	DB	01H
	DB	078H
	DB	01H
	DB	070H
	DB	01H
	DB	078H
	DB	01H
	DB	078H
	DB	01H
	DB	070H
	DB	02H
	DB	078H
	DB	02H
	DB	078H
	DB	01H
	DB	070H
	DB	02H
	DB	070H
	DB	02H
	DB	070H
	DB	01H
	DB	078H
	DB	02H
	DB	070H
	DB	02H
	DB	070H
	DB	02H
	DB	070H
	DB	02H
	DB	070H
	DB	02H
	DB	070H
	DB	02H
	DB	070H
	DB	02H
	DB	070H
	DB	02H
	DB	070H
	DB	02H
	DB	070H
	DB	02H
	DB	068H
	DB	03H
	DB	068H
	DB	02H
	DB	070H
	DB	03H
	DB	068H
	DB	03H
	DB	070H
	DB	02H
	DB	068H
	DB	03H
	DB	068H
	DB	03H
	DB	068H
	DB	03H
	DB	068H
	DB	03H
	DB	068H
	DB	03H
	DB	068H
	DB	03H
	DB	068H
	DB	03H
	DB	068H
	DB	03H
	DB	068H
	DB	03H
	DB	068H
	DB	03H
	DB	060H
	DB	04H
	DB	068H
	DB	03H
	DB	068H
	DB	03H
	DB	060H
	DB	04H
	DB	060H
	DB	03H
	DB	068H
	DB	04H
	DB	060H
	DB	04H
	DB	060H
	DB	03H
	DB	068H
	DB	04H
	DB	060H
	DB	04H
	DB	060H
	DB	04H
	DB	060H
	DB	04H
	DB	060H
	DB	04H
	DB	060H
	DB	04H
	DB	060H
	DB	04H
	DB	058H
	DB	04H
	DB	060H
	DB	04H
	DB	060H
	DB	05H
	DB	058H
	DB	04H
	DB	058H
	DB	05H
	DB	058H
	DB	05H
	DB	060H
	DB	04H
	DB	060H
	DB	05H
	DB	058H
	DB	05H
	DB	058H
	DB	04H
	DB	058H
	DB	05H
	DB	058H
	DB	05H
	DB	058H
	DB	05H
	DB	058H
	DB	05H
	DB	058H
	DB	05H
	DB	058H
	DB	05H
	DB	058H
	DB	05H
	DB	058H
	DB	06H
	DB	058H
	DB	05H
	DB	050H
	DB	05H
	DB	058H
	DB	06H
	DB	050H
	DB	05H
	DB	050H
	DB	05H
	DB	050H
	DB	06H
	DB	050H
	DB	06H
	DB	058H
	DB	05H
	DB	050H
	DB	06H
	DB	050H
	DB	06H
	DB	050H
	DB	06H
	DB	050H
	DB	06H
	DB	050H
	DB	06H
	DB	050H
	DB	06H
	DB	050H
	DB	06H
	DB	050H
	DB	06H
	DB	050H
	DB	07H
	DB	050H
	DB	06H
	DB	050H
	DB	07H
	DB	050H
	DB	06H
	DB	048H
	DB	07H
	DB	048H
	DB	07H
	DB	050H
	DB	06H
	DB	048H
	DB	07H
	DB	048H
	DB	06H
	DB	050H
	DB	07H
	DB	048H
	DB	07H
	DB	048H
	DB	07H
	DB	048H
	DB	07H
	DB	048H
	DB	07H
	DB	048H
	DB	07H
	DB	048H
	DB	07H
	DB	040H
	DB	07H
	DB	048H
	DB	08H
	DB	048H
	DB	07H
	DB	040H
	DB	07H
	DB	048H
	DB	08H
	DB	048H
	DB	08H
	DB	040H
	DB	07H
	DB	040H
	DB	08H
	DB	048H
	DB	07H
	DB	040H
	DB	08H
	DB	040H
	DB	08H
	DB	040H
	DB	08H
	DB	040H
	DB	08H
	DB	040H
	DB	08H
	DB	040H
	DB	08H
	DB	040H
	DB	08H
	DB	040H
	DB	08H
	DB	040H
	DB	09H
	DB	038H
	DB	08H
	DB	040H
	DB	09H
	DB	038H
	DB	09H
	DB	040H
	DB	08H
	DB	040H
	DB	09H
	DB	038H
	DB	08H
	DB	038H
	DB	09H
	DB	038H
	DB	09H
	DB	038H
	DB	09H
	DB	038H
	DB	09H
	DB	038H
	DB	09H
	DB	038H
	DB	09H
	DB	038H
	DB	09H
	DB	030H
	DB	09H
	DB	038H
	DB	0aH
	DB	030H
	DB	09H
	DB	030H
	DB	0aH
	DB	038H
	DB	09H
	DB	030H
	DB	0aH
	DB	030H
	DB	0aH
	DB	030H
	DB	0aH
	DB	030H
	DB	0aH
	DB	030H
	DB	0aH
	DB	030H
	DB	0aH
	DB	030H
	DB	0aH
	DB	030H
	DB	0aH
	DB	028H
	DB	0aH
	DB	030H
	DB	0bH
	DB	028H
	DB	0aH
	DB	030H
	DB	0bH
	DB	028H
	DB	0bH
	DB	028H
	DB	0bH
	DB	028H
	DB	0bH
	DB	028H
	DB	0bH
	DB	028H
	DB	0bH
	DB	028H
	DB	0bH
	DB	028H
	DB	0bH
	DB	028H
	DB	0bH
	DB	028H
	DB	0bH
	DB	020H
	DB	0bH
	DB	028H
	DB	0cH
	DB	028H
	DB	0bH
	DB	020H
	DB	0bH
	DB	028H
	DB	0cH
	DB	028H
	DB	0cH
	DB	020H
	DB	0cH
	DB	020H
	DB	0cH
	DB	020H
	DB	0cH
	DB	020H
	DB	0cH
	DB	020H
	DB	0cH
	DB	020H
	DB	0cH
	DB	020H
	DB	0cH
	DB	020H
	DB	0cH
	DB	018H
	DB	0cH
	DB	020H
	DB	0dH
	DB	020H
	DB	0cH
	DB	020H
	DB	0dH
	DB	018H
	DB	0dH
	DB	018H
	DB	0cH
	DB	018H
	DB	0dH
	DB	018H
	DB	0dH
	DB	018H
	DB	0dH
	DB	018H
	DB	0dH
	DB	018H
	DB	0dH
	DB	018H
	DB	0eH
	DB	010H
	DB	0dH
	DB	018H
	DB	0dH
	DB	018H
	DB	0dH
	DB	010H
	DB	0dH
	DB	010H
	DB	0eH
	DB	018H
	DB	0eH
	DB	010H
	DB	0eH
	DB	010H
	DB	0eH
	DB	018H
	DB	0eH
	DB	010H
	DB	0eH
	DB	010H
	DB	0eH
	DB	010H
	DB	0eH
	DB	010H
	DB	0eH
	DB	010H
	DB	0eH
	DB	010H
	DB	0fH
	DB	08H
	DB	0fH
	DB	010H
	DB	0fH
	DB	010H
	DB	0fH
	DB	08H
	DB	0eH
	DB	010H
	DB	0fH
	DB	08H
	DB	0fH
	DB	08H
	DB	0fH
	DB	08H
	DB	0fH
	DB	08H
	DB	0fH
	DB	08H
	DB	0fH
	DB	08H
	DB	0fH
	DB	08H
	DB	0fH
	DB	08H
	DB	0fH
	DB	00H
	DB	010H
	DB	08H
	DB	010H
	DB	00H
	DB	010H
	DB	00H
	DB	010H
	DB	00H
	DB	010H
	DB	00H
	DB	010H
	DB	00H
	DB	0fH
	DB	00H
	DB	010H
	DB	00H
	DB	010H
	DB	00H
	DB	00H
	DB	04H
	DB	00H
	DB	04H
	DB	0e0H
	DB	03H
	DB	0e0H
	DB	03H
	DB	00H
	DB	04H
	DB	0e0H
	DB	0bH
	DB	0e0H
	DB	03H
	DB	0e0H
	DB	0bH
	DB	0e0H
	DB	03H
	DB	0e0H
	DB	0bH
	DB	0e0H
	DB	03H
	DB	0e0H
	DB	0bH
	DB	0e0H
	DB	0bH
	DB	0c0H
	DB	0bH
	DB	0c0H
	DB	0bH
	DB	0c0H
	DB	0bH
	DB	0c0H
	DB	0bH
	DB	0c0H
	DB	0bH
	DB	0a0H
	DB	0bH
	DB	0c0H
	DB	0bH
	DB	0a0H
	DB	013H
	DB	0a0H
	DB	0bH
	DB	0a0H
	DB	0bH
	DB	0a0H
	DB	013H
	DB	0a0H
	DB	013H
	DB	0a0H
	DB	0bH
	DB	080H
	DB	013H
	DB	0a0H
	DB	013H
	DB	080H
	DB	013H
	DB	080H
	DB	013H
	DB	080H
	DB	013H
	DB	080H
	DB	013H
	DB	080H
	DB	013H
	DB	060H
	DB	013H
	DB	060H
	DB	01bH
	DB	080H
	DB	013H
	DB	060H
	DB	01bH
	DB	060H
	DB	01bH
	DB	060H
	DB	01bH
	DB	060H
	DB	01bH
	DB	060H
	DB	013H
	DB	060H
	DB	01bH
	DB	040H
	DB	01bH
	DB	040H
	DB	01bH
	DB	040H
	DB	01bH
	DB	040H
	DB	01bH
	DB	040H
	DB	01bH
	DB	040H
	DB	01bH
	DB	040H
	DB	01bH
	DB	040H
	DB	01bH
	DB	020H
	DB	023H
	DB	020H
	DB	023H
	DB	020H
	DB	023H
	DB	020H
	DB	01bH
	DB	020H
	DB	01bH
	DB	00H
	DB	023H
	DB	00H
	DB	023H
	DB	00H
	DB	023H
	DB	00H
	DB	023H
	DB	00H
	DB	023H
	DB	00H
	DB	023H
	DB	00H
	DB	023H
	DB	0e0H
	DB	022H
	DB	00H
	DB	023H
	DB	0e0H
	DB	02aH
	DB	0e0H
	DB	02aH
	DB	0e0H
	DB	022H
	DB	0e0H
	DB	02aH
	DB	0e0H
	DB	02aH
	DB	0e0H
	DB	022H
	DB	0e0H
	DB	02aH
	DB	0e0H
	DB	02aH
	DB	0c0H
	DB	02aH
	DB	0c0H
	DB	02aH
	DB	0c0H
	DB	02aH
	DB	0c0H
	DB	02aH
	DB	0a0H
	DB	02aH
	DB	0c0H
	DB	02aH
	DB	0c0H
	DB	032H
	DB	0a0H
	DB	02aH
	DB	0a0H
	DB	032H
	DB	0a0H
	DB	032H
	DB	0a0H
	DB	02aH
	DB	0a0H
	DB	032H
	DB	0a0H
	DB	032H
	DB	0a0H
	DB	032H
	DB	080H
	DB	032H
	DB	080H
	DB	032H
	DB	080H
	DB	032H
	DB	080H
	DB	032H
	DB	080H
	DB	032H
	DB	060H
	DB	032H
	DB	080H
	DB	03aH
	DB	060H
	DB	032H
	DB	060H
	DB	032H
	DB	060H
	DB	03aH
	DB	060H
	DB	032H
	DB	060H
	DB	032H
	DB	040H
	DB	03aH
	DB	060H
	DB	03aH
	DB	060H
	DB	03aH
	DB	040H
	DB	03aH
	DB	040H
	DB	03aH
	DB	040H
	DB	03aH
	DB	040H
	DB	03aH
	DB	040H
	DB	03aH
	DB	020H
	DB	03aH
	DB	040H
	DB	03aH
	DB	040H
	DB	03aH
	DB	020H
	DB	042H
	DB	020H
	DB	03aH
	DB	020H
	DB	03aH
	DB	020H
	DB	042H
	DB	020H
	DB	03aH
	DB	00H
	DB	042H
	DB	020H
	DB	042H
	DB	00H
	DB	042H
	DB	00H
	DB	042H
	DB	00H
	DB	042H
	DB	00H
	DB	042H
	DB	00H
	DB	042H
	DB	0e0H
	DB	041H
	DB	0e0H
	DB	041H
	DB	0e0H
	DB	041H
	DB	0e0H
	DB	049H
	DB	0e0H
	DB	041H
	DB	0e0H
	DB	049H
	DB	0e0H
	DB	049H
	DB	0e0H
	DB	041H
	DB	0c0H
	DB	049H
	DB	0c0H
	DB	049H
	DB	0c0H
	DB	049H
	DB	0c0H
	DB	049H
	DB	0c0H
	DB	049H
	DB	0c0H
	DB	049H
	DB	0a0H
	DB	049H
	DB	0a0H
	DB	049H
	DB	0c0H
	DB	049H
	DB	0a0H
	DB	051H
	DB	0a0H
	DB	051H
	DB	0a0H
	DB	049H
	DB	0a0H
	DB	049H
	DB	0a0H
	DB	051H
	DB	0a0H
	DB	051H
	DB	080H
	DB	049H
	DB	080H
	DB	051H
	DB	080H
	DB	051H
	DB	080H
	DB	051H
	DB	080H
	DB	051H
	DB	080H
	DB	051H
	DB	080H
	DB	051H
	DB	060H
	DB	051H
	DB	080H
	DB	051H
	DB	060H
	DB	059H
	DB	060H
	DB	051H
	DB	060H
	DB	051H
	DB	060H
	DB	051H
	DB	060H
	DB	059H
	DB	060H
	DB	059H
	DB	060H
	DB	059H
	DB	040H
	DB	059H
	DB	040H
	DB	059H
	DB	040H
	DB	059H
	DB	040H
	DB	059H
	DB	040H
	DB	059H
	DB	020H
	DB	059H
	DB	040H
	DB	059H
	DB	040H
	DB	061H
	DB	020H
	DB	059H
	DB	020H
	DB	059H
	DB	020H
	DB	061H
	DB	020H
	DB	059H
	DB	020H
	DB	061H
	DB	020H
	DB	059H
	DB	020H
	DB	061H
	DB	020H
	DB	061H
	DB	00H
	DB	061H
	DB	00H
	DB	061H
	DB	00H
	DB	061H
	DB	00H
	DB	061H
	DB	00H
	DB	061H
	DB	0e0H
	DB	060H
	DB	0e0H
	DB	060H
	DB	00H
	DB	069H
	DB	0e0H
	DB	060H
	DB	0e0H
	DB	060H
	DB	0e0H
	DB	060H
	DB	0e0H
	DB	060H
	DB	0c0H
	DB	068H
	DB	0e0H
	DB	068H
	DB	0e0H
	DB	068H
	DB	0c0H
	DB	068H
	DB	0c0H
	DB	068H
	DB	0c0H
	DB	068H
	DB	0c0H
	DB	068H
	DB	0c0H
	DB	068H
	DB	0c0H
	DB	068H
	DB	0a0H
	DB	070H
	DB	0a0H
	DB	070H
	DB	0c0H
	DB	068H
	DB	0a0H
	DB	070H
	DB	0a0H
	DB	070H
	DB	0a0H
	DB	068H
	DB	0a0H
	DB	070H
	DB	080H
	DB	070H
	DB	0a0H
	DB	068H
	DB	080H
	DB	070H
	DB	080H
	DB	070H
	DB	080H
	DB	070H
	DB	080H
	DB	070H
	DB	080H
	DB	070H
	DB	080H
	DB	070H
	DB	080H
	DB	070H
	DB	080H
	DB	078H
	DB	060H
	DB	078H
	DB	060H
	DB	078H
	DB	060H
	DB	070H
	DB	060H
	DB	078H
	DB	060H
	DB	070H
	DB	040H
	DB	070H
	DB	060H
	DB	078H
	DB	060H
	DB	078H
	DB	040H
	DB	078H
	DB	040H
	DB	078H
	DB	040H
	DB	078H
	DB	040H
	DB	078H
	DB	020H
	DB	078H
	DB	020H
	DB	078H
	DB	020H
	DB	078H
	DB	020H
	DB	080H
	DB	020H
	DB	078H
	DB	020H
	DB	080H
	DB	020H
	DB	080H
	DB	020H
	DB	078H
	DB	00H
	DB	078H
	DB	020H
	DB	080H
	DB	00H
	DB	080H
	DB	00H
	DB	080H
	DB	00H
	DB	080H
	DB	00H
	DB	080H
	DB	00H
	DB	080H
	DB	00H
	DB	078H
	DB	01H
	DB	080H
	DB	00H
	DB	080H
	DB	01H
	DB	080H
	DB	01H
	DB	080H
	DB	00H
	DB	080H
	DB	00H
	DB	078H
	DB	01H
	DB	078H
	DB	00H
	DB	080H
	DB	01H
	DB	078H
	DB	01H
	DB	078H
	DB	01H
	DB	080H
	DB	01H
	DB	078H
	DB	01H
	DB	078H
	DB	01H
	DB	078H
	DB	01H
	DB	078H
	DB	01H
	DB	078H
	DB	01H
	DB	078H
	DB	01H
	DB	078H
	DB	01H
	DB	070H
	DB	02H
	DB	078H
	DB	01H
	DB	078H
	DB	02H
	DB	070H
	DB	01H
	DB	070H
	DB	01H
	DB	078H
	DB	02H
	DB	078H
	DB	02H
	DB	070H
	DB	02H
	DB	070H
	DB	01H
	DB	070H
	DB	02H
	DB	070H
	DB	02H
	DB	070H
	DB	02H
	DB	070H
	DB	02H
	DB	070H
	DB	02H
	DB	070H
	DB	02H
	DB	070H
	DB	03H
	DB	070H
	DB	02H
	DB	068H
	DB	03H
	DB	070H
	DB	03H
	DB	070H
	DB	02H
	DB	068H
	DB	03H
	DB	070H
	DB	03H
	DB	068H
	DB	02H
	DB	068H
	DB	03H
	DB	068H
	DB	03H
	DB	070H
	DB	03H
	DB	068H
	DB	02H
	DB	068H
	DB	03H
	DB	068H
	DB	03H
	DB	068H
	DB	03H
	DB	068H
	DB	03H
	DB	068H
	DB	04H
	DB	068H
	DB	04H
	DB	060H
	DB	03H
	DB	068H
	DB	03H
	DB	068H
	DB	04H
	DB	060H
	DB	04H
	DB	060H
	DB	03H
	DB	068H
	DB	03H
	DB	068H
	DB	04H
	DB	060H
	DB	03H
	DB	060H
	DB	04H
	DB	060H
	DB	04H
	DB	060H
	DB	04H
	DB	060H
	DB	04H
	DB	060H
	DB	04H
	DB	060H
	DB	04H
	DB	060H
	DB	04H
	DB	060H
	DB	04H
	DB	060H
	DB	05H
	DB	060H
	DB	04H
	DB	060H
	DB	04H
	DB	058H
	DB	05H
	DB	060H
	DB	05H
	DB	060H
	DB	04H
	DB	058H
	DB	05H
	DB	058H
	DB	05H
	DB	058H
	DB	05H
	DB	060H
	DB	05H
	DB	058H
	DB	05H
	DB	058H
	DB	05H
	DB	058H
	DB	05H
	DB	058H
	DB	05H
	DB	058H
	DB	05H
	DB	058H
	DB	05H
	DB	058H
	DB	05H
	DB	050H
	DB	06H
	DB	058H
	DB	05H
	DB	058H
	DB	05H
	DB	058H
	DB	06H
	DB	050H
	DB	05H
	DB	058H
	DB	06H
	DB	050H
	DB	06H
	DB	050H
	DB	06H
	DB	050H
	DB	06H
	DB	050H
	DB	05H
	DB	050H
	DB	06H
	DB	050H
	DB	06H
	DB	050H
	DB	06H
	DB	050H
	DB	06H
	DB	050H
	DB	06H
	DB	050H
	DB	06H
	DB	050H
	DB	06H
	DB	050H
	DB	07H
	DB	050H
	DB	06H
	DB	048H
	DB	06H
	DB	050H
	DB	06H
	DB	050H
	DB	07H
	DB	048H
	DB	06H
	DB	048H
	DB	07H
	DB	048H
	DB	06H
	DB	048H
	DB	07H
	DB	048H
	DB	07H
	DB	048H
	DB	07H
	DB	048H
	DB	07H
	DB	048H
	DB	07H
	DB	048H
	DB	07H
	DB	048H
	DB	07H
	DB	048H
	DB	07H
	DB	048H
	DB	07H
	DB	048H
	DB	08H
	DB	048H
	DB	07H
	DB	040H
	DB	08H
	DB	040H
	DB	08H
	DB	048H
	DB	07H
	DB	040H
	DB	08H
	DB	040H
	DB	08H
	DB	048H
	DB	08H
	DB	040H
	DB	08H
	DB	040H
	DB	08H
	DB	048H
	DB	08H
	DB	040H
	DB	08H
	DB	040H
	DB	08H
	DB	040H
	DB	08H
	DB	040H
	DB	08H
	DB	040H
	DB	08H
	DB	040H
	DB	09H
	DB	038H
	DB	09H
	DB	040H
	DB	08H
	DB	038H
	DB	08H
	DB	038H
	DB	09H
	DB	038H
	DB	09H
	DB	038H
	DB	09H
	DB	038H
	DB	09H
	DB	038H
	DB	09H
	DB	038H
	DB	09H
	DB	038H
	DB	09H
	DB	038H
	DB	09H
	DB	038H
	DB	0aH
	DB	038H
	DB	09H
	DB	038H
	DB	09H
	DB	030H
	DB	0aH
	DB	038H
	DB	09H
	DB	038H
	DB	0aH
	DB	030H
	DB	0aH
	DB	030H
	DB	09H
	DB	038H
	DB	0aH
	DB	030H
	DB	0aH
	DB	030H
	DB	0aH
	DB	030H
	DB	0aH
	DB	030H
	DB	0aH
	DB	030H
	DB	0aH
	DB	030H
	DB	0aH
	DB	028H
	DB	0bH
	DB	030H
	DB	0aH
	DB	030H
	DB	0aH
	DB	028H
	DB	0bH
	DB	030H
	DB	0aH
	DB	030H
	DB	0bH
	DB	028H
	DB	0bH
	DB	028H
	DB	0bH
	DB	028H
	DB	0bH
	DB	028H
	DB	0bH
	DB	028H
	DB	0bH
	DB	028H
	DB	0bH
	DB	028H
	DB	0bH
	DB	020H
	DB	0cH
	DB	020H
	DB	0bH
	DB	020H
	DB	0bH
	DB	028H
	DB	0bH
	DB	020H
	DB	0cH
	DB	020H
	DB	0bH
	DB	020H
	DB	0cH
	DB	020H
	DB	0cH
	DB	020H
	DB	0cH
	DB	020H
	DB	0cH
	DB	020H
	DB	0cH
	DB	020H
	DB	0cH
	DB	020H
	DB	0dH
	DB	020H
	DB	0dH
	DB	018H
	DB	0cH
	DB	018H
	DB	0dH
	DB	020H
	DB	0cH
	DB	018H
	DB	0dH
	DB	020H
	DB	0dH
	DB	018H
	DB	0dH
	DB	018H
	DB	0dH
	DB	020H
	DB	0dH
	DB	018H
	DB	0dH
	DB	018H
	DB	0dH
	DB	018H
	DB	0dH
	DB	018H
	DB	0dH
	DB	018H
	DB	0eH
	DB	018H
	DB	0eH
	DB	010H
	DB	0eH
	DB	018H
	DB	0dH
	DB	018H
	DB	0eH
	DB	010H
	DB	0dH
	DB	010H
	DB	0dH
	DB	010H
	DB	0eH
	DB	010H
	DB	0eH
	DB	010H
	DB	0eH
	DB	010H
	DB	0eH
	DB	010H
	DB	0eH
	DB	010H
	DB	0eH
	DB	010H
	DB	0eH
	DB	08H
	DB	0eH
	DB	08H
	DB	0fH
	DB	08H
	DB	0eH
	DB	010H
	DB	0fH
	DB	08H
	DB	0fH
	DB	08H
	DB	0eH
	DB	010H
	DB	0fH
	DB	08H
	DB	0fH
	DB	08H
	DB	0fH
	DB	08H
	DB	0fH
	DB	08H
	DB	0fH
	DB	08H
	DB	0fH
	DB	08H
	DB	0fH
	DB	08H
	DB	0fH
	DB	08H
	DB	0fH
	DB	00H
	DB	0fH
	DB	08H
	DB	0fH
	DB	08H
	DB	010H
	DB	00H
	DB	010H
	DB	08H
	DB	0fH
	DB	08H
	DB	010H
	DB	00H
	DB	010H
	DB	00H
	DB	010H
	DB	00H
	DB	00H
	DB	04H
	DB	00H
	DB	04H
	DB	00H
	DB	04H
	DB	0e0H
	DB	03H
	DB	00H
	DB	04H
	DB	0e0H
	DB	03H
	DB	0e0H
	DB	0bH
	DB	0e0H
	DB	03H
	DB	0e0H
	DB	0bH
	DB	0e0H
	DB	0bH
	DB	0e0H
	DB	03H
	DB	0c0H
	DB	0bH
	DB	0e0H
	DB	0bH
	DB	0c0H
	DB	03H
	DB	0c0H
	DB	0bH
	DB	0c0H
	DB	0bH
	DB	0c0H
	DB	0bH
	DB	0c0H
	DB	0bH
	DB	0c0H
	DB	0bH
	DB	0a0H
	DB	013H
	DB	0a0H
	DB	0bH
	DB	0a0H
	DB	0bH
	DB	0a0H
	DB	013H
	DB	0a0H
	DB	0bH
	DB	0a0H
	DB	0bH
	DB	080H
	DB	013H
	DB	0a0H
	DB	013H
	DB	0a0H
	DB	013H
	DB	080H
	DB	013H
	DB	080H
	DB	013H
	DB	080H
	DB	013H
	DB	080H
	DB	013H
	DB	060H
	DB	013H
	DB	080H
	DB	013H
	DB	060H
	DB	013H
	DB	060H
	DB	013H
	DB	060H
	DB	013H
	DB	060H
	DB	013H
	DB	060H
	DB	01bH
	DB	060H
	DB	01bH
	DB	040H
	DB	01bH
	DB	040H
	DB	01bH
	DB	040H
	DB	01bH
	DB	060H
	DB	01bH
	DB	040H
	DB	01bH
	DB	040H
	DB	01bH
	DB	040H
	DB	01bH
	DB	040H
	DB	01bH
	DB	020H
	DB	01bH
	DB	040H
	DB	01bH
	DB	020H
	DB	01bH
	DB	020H
	DB	023H
	DB	020H
	DB	01bH
	DB	020H
	DB	01bH
	DB	020H
	DB	023H
	DB	00H
	DB	01bH
	DB	020H
	DB	023H
	DB	00H
	DB	023H
	DB	00H
	DB	023H
	DB	00H
	DB	023H
	DB	00H
	DB	023H
	DB	00H
	DB	023H
	DB	0e0H
	DB	022H
	DB	00H
	DB	02bH
	DB	0e0H
	DB	022H
	DB	0e0H
	DB	02aH
	DB	0e0H
	DB	022H
	DB	0e0H
	DB	02aH
	DB	0e0H
	DB	02aH
	DB	0c0H
	DB	022H
	DB	0c0H
	DB	02aH
	DB	0c0H
	DB	02aH
	DB	0c0H
	DB	02aH
	DB	0c0H
	DB	02aH
	DB	0c0H
	DB	02aH
	DB	0c0H
	DB	02aH
	DB	0c0H
	DB	02aH
	DB	0a0H
	DB	032H
	DB	0c0H
	DB	02aH
	DB	0a0H
	DB	02aH
	DB	0a0H
	DB	02aH
	DB	0a0H
	DB	02aH
	DB	0a0H
	DB	032H
	DB	0a0H
	DB	032H
	DB	0a0H
	DB	032H
	DB	080H
	DB	032H
	DB	0a0H
	DB	02aH
	DB	080H
	DB	032H
	DB	080H
	DB	032H
	DB	080H
	DB	032H
	DB	080H
	DB	032H
	DB	080H
	DB	032H
	DB	060H
	DB	032H
	DB	060H
	DB	03aH
	DB	080H
	DB	032H
	DB	060H
	DB	03aH
	DB	060H
	DB	03aH
	DB	060H
	DB	03aH
	DB	060H
	DB	03aH
	DB	040H
	DB	032H
	DB	060H
	DB	03aH
	DB	040H
	DB	03aH
	DB	040H
	DB	03aH
	DB	040H
	DB	03aH
	DB	040H
	DB	03aH
	DB	040H
	DB	03aH
	DB	020H
	DB	042H
	DB	020H
	DB	03aH
	DB	020H
	DB	03aH
	DB	020H
	DB	042H
	DB	020H
	DB	03aH
	DB	020H
	DB	042H
	DB	020H
	DB	042H
	DB	00H
	DB	042H
	DB	020H
	DB	03aH
	DB	020H
	DB	042H
	DB	00H
	DB	042H
	DB	00H
	DB	042H
	DB	00H
	DB	042H
	DB	00H
	DB	042H
	DB	00H
	DB	042H
	DB	0e0H
	DB	041H
	DB	00H
	DB	042H
	DB	00H
	DB	042H
	DB	0e0H
	DB	041H
	DB	0e0H
	DB	049H
	DB	0e0H
	DB	041H
	DB	0e0H
	DB	049H
	DB	0e0H
	DB	049H
	DB	0c0H
	DB	049H
	DB	0e0H
	DB	049H
	DB	0c0H
	DB	049H
	DB	0c0H
	DB	049H
	DB	0c0H
	DB	049H
	DB	0c0H
	DB	049H
	DB	0c0H
	DB	049H
	DB	0a0H
	DB	049H
	DB	0c0H
	DB	049H
	DB	0a0H
	DB	051H
	DB	0a0H
	DB	051H
	DB	0a0H
	DB	049H
	DB	0a0H
	DB	051H
	DB	0a0H
	DB	051H
	DB	080H
	DB	049H
	DB	080H
	DB	051H
	DB	080H
	DB	051H
	DB	0a0H
	DB	051H
	DB	080H
	DB	051H
	DB	080H
	DB	051H
	DB	080H
	DB	051H
	DB	060H
	DB	051H
	DB	060H
	DB	059H
	DB	060H
	DB	051H
	DB	060H
	DB	051H
	DB	060H
	DB	051H
	DB	080H
	DB	059H
	DB	060H
	DB	051H
	DB	060H
	DB	051H
	DB	060H
	DB	059H
	DB	040H
	DB	051H
	DB	060H
	DB	059H
	DB	040H
	DB	059H
	DB	040H
	DB	059H
	DB	040H
	DB	059H
	DB	040H
	DB	059H
	DB	040H
	DB	059H
	DB	020H
	DB	059H
	DB	040H
	DB	059H
	DB	020H
	DB	061H
	DB	020H
	DB	059H
	DB	020H
	DB	059H
	DB	020H
	DB	061H
	DB	020H
	DB	061H
	DB	020H
	DB	061H
	DB	020H
	DB	061H
	DB	00H
	DB	061H
	DB	00H
	DB	059H
	DB	00H
	DB	061H
	DB	00H
	DB	061H
	DB	00H
	DB	061H
	DB	00H
	DB	061H
	DB	0e0H
	DB	060H
	DB	00H
	DB	069H
	DB	0e0H
	DB	060H
	DB	0e0H
	DB	068H
	DB	0e0H
	DB	060H
	DB	0e0H
	DB	068H
	DB	0e0H
	DB	068H
	DB	0c0H
	DB	060H
	DB	0c0H
	DB	068H
	DB	0e0H
	DB	060H
	DB	0c0H
	DB	068H
	DB	0c0H
	DB	068H
	DB	0c0H
	DB	068H
	DB	0c0H
	DB	068H
	DB	0c0H
	DB	068H
	DB	0c0H
	DB	068H
	DB	0a0H
	DB	068H
	DB	0c0H
	DB	068H
	DB	0a0H
	DB	068H
	DB	0a0H
	DB	070H
	DB	0a0H
	DB	068H
	DB	0a0H
	DB	070H
	DB	0a0H
	DB	070H
	DB	0a0H
	DB	068H
	DB	0a0H
	DB	070H
	DB	080H
	DB	070H
	DB	080H
	DB	070H
	DB	080H
	DB	070H
	DB	080H
	DB	070H
	DB	080H
	DB	070H
	DB	060H
	DB	070H
	DB	060H
	DB	070H
	DB	060H
	DB	070H
	DB	060H
	DB	070H
	DB	060H
	DB	070H
	DB	060H
	DB	078H
	DB	060H
	DB	070H
	DB	040H
	DB	078H
	DB	060H
	DB	078H
	DB	040H
	DB	078H
	DB	040H
	DB	078H
	DB	040H
	DB	078H
	DB	040H
	DB	078H
	DB	040H
	DB	078H
	DB	040H
	DB	078H
	DB	040H
	DB	078H
	DB	040H
	DB	080H
	DB	040H
	DB	078H
	DB	020H
	DB	078H
	DB	020H
	DB	078H
	DB	020H
	DB	080H
	DB	020H
	DB	080H
	DB	020H
	DB	080H
	DB	00H
	DB	078H
	DB	020H
	DB	080H
	DB	00H
	DB	080H
	DB	00H
	DB	078H
	DB	020H
	DB	080H
	DB	00H
	DB	080H
	DB	00H
	DB	080H
	DB	00H
	DB	080H
	DB	00H
	DB	080H
	DB	00H
	DB	080H
	DB	00H
	DB	078H
	DB	00H
	DB	078H
	DB	00H
	DB	078H
	DB	01H
	DB	080H
	DB	01H
	DB	078H
	DB	00H
	DB	078H
	DB	00H
	DB	080H
	DB	01H
	DB	078H
	DB	01H
	DB	078H
	DB	00H
	DB	078H
	DB	01H
	DB	078H
	DB	01H
	DB	078H
	DB	01H
	DB	078H
	DB	01H
	DB	078H
	DB	01H
	DB	078H
	DB	01H
	DB	078H
	DB	02H
	DB	078H
	DB	01H
	DB	070H
	DB	02H
	DB	078H
	DB	01H
	DB	070H
	DB	02H
	DB	070H
	DB	01H
	DB	078H
	DB	02H
	DB	070H
	DB	02H
	DB	078H
	DB	02H
	DB	070H
	DB	02H
	DB	070H
	DB	02H
	DB	070H
	DB	02H
	DB	070H
	DB	02H
	DB	070H
	DB	02H
	DB	070H
	DB	02H
	DB	070H
	DB	02H
	DB	070H
	DB	02H
	DB	068H
	DB	02H
	DB	070H
	DB	03H
	DB	070H
	DB	02H
	DB	068H
	DB	02H
	DB	070H
	DB	03H
	DB	068H
	DB	03H
	DB	070H
	DB	03H
	DB	068H
	DB	03H
	DB	068H
	DB	03H
	DB	068H
	DB	02H
	DB	068H
	DB	03H
	DB	068H
	DB	03H
	DB	068H
	DB	03H
	DB	068H
	DB	03H
	DB	068H
	DB	03H
	DB	068H
	DB	03H
	DB	068H
	DB	03H
	DB	068H
	DB	03H
	DB	060H
	DB	03H
	DB	068H
	DB	04H
	DB	068H
	DB	04H
	DB	060H
	DB	03H
	DB	068H
	DB	04H
	DB	060H
	DB	04H
	DB	060H
	DB	04H
	DB	068H
	DB	04H
	DB	060H
	DB	04H
	DB	060H
	DB	04H
	DB	060H
	DB	04H
	DB	060H
	DB	04H
	DB	060H
	DB	04H
	DB	060H
	DB	04H
	DB	060H
	DB	05H
	DB	060H
	DB	04H
	DB	058H
	DB	05H
	DB	058H
	DB	04H
	DB	060H
	DB	04H
	DB	060H
	DB	04H
	DB	058H
	DB	04H
	DB	058H
	DB	05H
	DB	058H
	DB	05H
	DB	060H
	DB	04H
	DB	058H
	DB	05H
	DB	058H
	DB	05H
	DB	058H
	DB	05H
	DB	058H
	DB	05H
	DB	058H
	DB	05H
	DB	058H
	DB	05H
	DB	058H
	DB	05H
	DB	058H
	DB	05H
	DB	058H
	DB	05H
	DB	058H
	DB	06H
	DB	058H
	DB	05H
	DB	050H
	DB	06H
	DB	058H
	DB	05H
	DB	058H
	DB	06H
	DB	050H
	DB	05H
	DB	058H
	DB	05H
	DB	050H
	DB	06H
	DB	058H
	DB	06H
	DB	058H
	DB	06H
	DB	050H
	DB	06H
	DB	050H
	DB	06H
	DB	050H
	DB	06H
	DB	050H
	DB	06H
	DB	050H
	DB	06H
	DB	050H
	DB	06H
	DB	048H
	DB	06H
	DB	048H
	DB	07H
	DB	050H
	DB	06H
	DB	050H
	DB	07H
	DB	048H
	DB	06H
	DB	048H
	DB	07H
	DB	050H
	DB	07H
	DB	050H
	DB	07H
	DB	048H
	DB	07H
	DB	048H
	DB	07H
	DB	050H
	DB	07H
	DB	048H
	DB	07H
	DB	048H
	DB	07H
	DB	048H
	DB	07H
	DB	048H
	DB	07H
	DB	048H
	DB	07H
	DB	048H
	DB	08H
	DB	040H
	DB	07H
	DB	048H
	DB	07H
	DB	048H
	DB	07H
	DB	040H
	DB	07H
	DB	040H
	DB	08H
	DB	048H
	DB	07H
	DB	040H
	DB	07H
	DB	048H
	DB	08H
	DB	040H
	DB	08H
	DB	040H
	DB	07H
	DB	040H
	DB	08H
	DB	040H
	DB	08H
	DB	040H
	DB	08H
	DB	040H
	DB	08H
	DB	040H
	DB	08H
	DB	040H
	DB	09H
	DB	040H
	DB	08H
	DB	038H
	DB	08H
	DB	040H
	DB	09H
	DB	040H
	DB	09H
	DB	038H
	DB	09H
	DB	040H
	DB	09H
	DB	038H
	DB	09H
	DB	040H
	DB	09H
	DB	038H
	DB	09H
	DB	038H
	DB	09H
	DB	038H
	DB	09H
	DB	038H
	DB	09H
	DB	038H
	DB	09H
	DB	038H
	DB	0aH
	DB	030H
	DB	0aH
	DB	038H
	DB	09H
	DB	030H
	DB	0aH
	DB	030H
	DB	0aH
	DB	030H
	DB	0aH
	DB	030H
	DB	0aH
	DB	030H
	DB	0aH
	DB	030H
	DB	0aH
	DB	030H
	DB	0aH
	DB	030H
	DB	0aH
	DB	030H
	DB	0aH
	DB	030H
	DB	0aH
	DB	030H
	DB	0bH
	DB	028H
	DB	0aH
	DB	030H
	DB	0aH
	DB	028H
	DB	0bH
	DB	028H
	DB	0bH
	DB	028H
	DB	0aH
	DB	028H
	DB	0bH
	DB	030H
	DB	0bH
	DB	028H
	DB	0bH
	DB	028H
	DB	0bH
	DB	028H
	DB	0bH
	DB	028H
	DB	0bH
	DB	028H
	DB	0bH
	DB	028H
	DB	0cH
	DB	028H
	DB	0bH
	DB	028H
	DB	0cH
	DB	020H
	DB	0cH
	DB	028H
	DB	0cH
	DB	020H
	DB	0cH
	DB	020H
	DB	0cH
	DB	028H
	DB	0cH
	DB	020H
	DB	0cH
	DB	020H
	DB	0cH
	DB	020H
	DB	0cH
	DB	020H
	DB	0cH
	DB	020H
	DB	0cH
	DB	020H
	DB	0cH
	DB	020H
	DB	0cH
	DB	020H
	DB	0dH
	DB	020H
	DB	0cH
	DB	018H
	DB	0cH
	DB	018H
	DB	0dH
	DB	020H
	DB	0dH
	DB	018H
	DB	0cH
	DB	018H
	DB	0dH
	DB	018H
	DB	0dH
	DB	018H
	DB	0dH
	DB	018H
	DB	0dH
	DB	018H
	DB	0dH
	DB	018H
	DB	0dH
	DB	018H
	DB	0dH
	DB	010H
	DB	0dH
	DB	018H
	DB	0eH
	DB	018H
	DB	0dH
	DB	010H
	DB	0eH
	DB	010H
	DB	0eH
	DB	018H
	DB	0eH
	DB	010H
	DB	0eH
	DB	010H
	DB	0eH
	DB	010H
	DB	0eH
	DB	010H
	DB	0eH
	DB	010H
	DB	0eH
	DB	010H
	DB	0fH
	DB	010H
	DB	0eH
	DB	010H
	DB	0eH
	DB	010H
	DB	0eH
	DB	08H
	DB	0eH
	DB	010H
	DB	0fH
	DB	08H
	DB	0fH
	DB	08H
	DB	0fH
	DB	08H
	DB	0fH
	DB	010H
	DB	0fH
	DB	08H
	DB	0fH
	DB	08H
	DB	0fH
	DB	08H
	DB	0fH
	DB	08H
	DB	0fH
	DB	08H
	DB	010H
	DB	00H
	DB	010H
	DB	00H
	DB	0fH
	DB	08H
	DB	010H
	DB	08H
	DB	010H
	DB	00H
	DB	0fH
	DB	00H
	DB	010H
	DB	00H
	DB	010H
	DB	00H
	DB	010H
	DB	00H
	DB	010H
	DB	00H
	DB	010H
	DB	00H
	DB	00H
	DB	04H
	DB	00H
	DB	04H
	DB	00H
	DB	04H
	DB	00H
	DB	0cH
	DB	0e0H
	DB	03H
	DB	0e0H
	DB	0bH
	DB	0e0H
	DB	03H
	DB	0e0H
	DB	03H
	DB	0e0H
	DB	0bH
	DB	0e0H
	DB	03H
	DB	0c0H
	DB	0bH
	DB	0c0H
	DB	0bH
	DB	0e0H
	DB	0bH
	DB	0c0H
	DB	0bH
	DB	0c0H
	DB	0bH
	DB	0c0H
	DB	0bH
	DB	0c0H
	DB	0bH
	DB	0c0H
	DB	0bH
	DB	0c0H
	DB	0bH
	DB	0a0H
	DB	0bH
	DB	0a0H
	DB	0bH
	DB	0c0H
	DB	013H
	DB	0a0H
	DB	013H
	DB	0a0H
	DB	0bH
	DB	0a0H
	DB	013H
	DB	0a0H
	DB	013H
	DB	080H
	DB	0bH
	DB	080H
	DB	013H
	DB	080H
	DB	013H
	DB	080H
	DB	013H
	DB	080H
	DB	013H
	DB	080H
	DB	013H
	DB	080H
	DB	013H
	DB	060H
	DB	01bH
	DB	080H
	DB	013H
	DB	060H
	DB	01bH
	DB	060H
	DB	01bH
	DB	060H
	DB	013H
	DB	060H
	DB	013H
	DB	060H
	DB	013H
	DB	060H
	DB	013H
	DB	040H
	DB	01bH
	DB	040H
	DB	01bH
	DB	040H
	DB	01bH
	DB	040H
	DB	01bH
	DB	040H
	DB	01bH
	DB	040H
	DB	01bH
	DB	020H
	DB	01bH
	DB	020H
	DB	01bH
	DB	020H
	DB	023H
	DB	020H
	DB	01bH
	DB	020H
	DB	023H
	DB	020H
	DB	023H
	DB	020H
	DB	023H
	DB	020H
	DB	023H
	DB	00H
	DB	01bH
	DB	00H
	DB	023H
	DB	020H
	DB	023H
	DB	00H
	DB	023H
	DB	00H
	DB	023H
	DB	00H
	DB	023H
	DB	0e0H
	DB	022H
	DB	00H
	DB	023H
	DB	00H
	DB	023H
	DB	00H
	DB	023H
	DB	0e0H
	DB	022H
	DB	0e0H
	DB	02aH
	DB	0e0H
	DB	022H
	DB	0e0H
	DB	02aH
	DB	0c0H
	DB	02aH
	DB	0e0H
	DB	02aH
	DB	0c0H
	DB	02aH
	DB	0c0H
	DB	02aH
	DB	0c0H
	DB	02aH
	DB	0c0H
	DB	02aH
	DB	0c0H
	DB	02aH
	DB	0c0H
	DB	02aH
	DB	0a0H
	DB	02aH
	DB	0a0H
	DB	032H
	DB	0a0H
	DB	02aH
	DB	0a0H
	DB	032H
	DB	0a0H
	DB	032H
	DB	0a0H
	DB	02aH
	DB	080H
	DB	02aH
	DB	0a0H
	DB	032H
	DB	080H
	DB	032H
	DB	080H
	DB	02aH
	DB	080H
	DB	032H
	DB	080H
	DB	032H
	DB	080H
	DB	032H
	DB	080H
	DB	032H
	DB	060H
	DB	032H
	DB	080H
	DB	032H
	DB	060H
	DB	03aH
	DB	060H
	DB	032H
	DB	060H
	DB	032H
	DB	060H
	DB	032H
	DB	060H
	DB	032H
	DB	060H
	DB	03aH
	DB	040H
	DB	03aH
	DB	060H
	DB	032H
	DB	040H
	DB	03aH
	DB	040H
	DB	03aH
	DB	040H
	DB	03aH
	DB	040H
	DB	03aH
	DB	040H
	DB	03aH
	DB	040H
	DB	03aH
	DB	020H
	DB	03aH
	DB	020H
	DB	03aH
	DB	020H
	DB	042H
	DB	020H
	DB	042H
	DB	020H
	DB	03aH
	DB	020H
	DB	042H
	DB	020H
	DB	042H
	DB	00H
	DB	042H
	DB	00H
	DB	042H
	DB	00H
	DB	042H
	DB	00H
	DB	042H
	DB	00H
	DB	042H
	DB	00H
	DB	042H
	DB	00H
	DB	042H
	DB	0e0H
	DB	049H
	DB	00H
	DB	042H
	DB	0e0H
	DB	049H
	DB	0e0H
	DB	041H
	DB	0e0H
	DB	049H
	DB	0e0H
	DB	041H
	DB	0e0H
	DB	041H
	DB	0e0H
	DB	049H
	DB	0c0H
	DB	041H
	DB	0c0H
	DB	049H
	DB	0c0H
	DB	049H
	DB	0c0H
	DB	049H
	DB	0c0H
	DB	049H
	DB	0c0H
	DB	049H
	DB	0c0H
	DB	049H
	DB	0a0H
	DB	049H
	DB	0a0H
	DB	049H
	DB	0c0H
	DB	049H
	DB	0a0H
	DB	049H
	DB	0a0H
	DB	051H
	DB	0a0H
	DB	051H
	DB	0a0H
	DB	049H
	DB	0a0H
	DB	051H
	DB	0a0H
	DB	051H
	DB	0a0H
	DB	049H
	DB	080H
	DB	051H
	DB	080H
	DB	051H
	DB	080H
	DB	051H
	DB	080H
	DB	051H
	DB	080H
	DB	051H
	DB	080H
	DB	051H
	DB	080H
	DB	059H
	DB	060H
	DB	051H
	DB	060H
	DB	059H
	DB	060H
	DB	059H
	DB	060H
	DB	059H
	DB	060H
	DB	059H
	DB	060H
	DB	051H
	DB	040H
	DB	059H
	DB	040H
	DB	059H
	DB	040H
	DB	059H
	DB	040H
	DB	059H
	DB	040H
	DB	059H
	DB	040H
	DB	059H
	DB	040H
	DB	059H
	DB	020H
	DB	059H
	DB	040H
	DB	059H
	DB	020H
	DB	061H
	DB	020H
	DB	059H
	DB	020H
	DB	059H
	DB	020H
	DB	061H
	DB	020H
	DB	059H
	DB	020H
	DB	059H
	DB	00H
	DB	061H
	DB	00H
	DB	061H
	DB	00H
	DB	061H
	DB	00H
	DB	061H
	DB	00H
	DB	061H
	DB	00H
	DB	061H
	DB	00H
	DB	061H
	DB	0e0H
	DB	060H
	DB	00H
	DB	061H
	DB	0e0H
	DB	068H
	DB	0e0H
	DB	060H
	DB	0e0H
	DB	060H
	DB	0e0H
	DB	068H
	DB	0e0H
	DB	068H
	DB	0e0H
	DB	068H
	DB	0e0H
	DB	068H
	DB	0c0H
	DB	068H
	DB	0c0H
	DB	068H
	DB	0c0H
	DB	068H
	DB	0c0H
	DB	068H
	DB	0c0H
	DB	068H
	DB	0c0H
	DB	068H
	DB	0a0H
	DB	068H
	DB	0a0H
	DB	068H
	DB	0a0H
	DB	068H
	DB	0a0H
	DB	070H
	DB	0a0H
	DB	068H
	DB	0a0H
	DB	068H
	DB	0a0H
	DB	070H
	DB	0a0H
	DB	070H
	DB	0a0H
	DB	070H
	DB	080H
	DB	070H
	DB	080H
	DB	070H
	DB	080H
	DB	070H
	DB	080H
	DB	070H
	DB	080H
	DB	070H
	DB	080H
	DB	070H
	DB	060H
	DB	070H
	DB	080H
	DB	078H
	DB	080H
	DB	070H
	DB	060H
	DB	070H
	DB	060H
	DB	078H
	DB	060H
	DB	078H
	DB	060H
	DB	078H
	DB	060H
	DB	070H
	DB	040H
	DB	078H
	DB	060H
	DB	078H
	DB	040H
	DB	078H
	DB	040H
	DB	078H
	DB	040H
	DB	078H
	DB	040H
	DB	078H
	DB	040H
	DB	078H
	DB	020H
	DB	078H
	DB	040H
	DB	078H
	DB	020H
	DB	080H
	DB	020H
	DB	078H
	DB	020H
	DB	078H
	DB	020H
	DB	080H
	DB	020H
	DB	078H
	DB	020H
	DB	080H
	DB	020H
	DB	080H
	DB	00H
	DB	080H
	DB	020H
	DB	080H
	DB	00H
	DB	080H
	DB	00H
	DB	080H
	DB	00H
	DB	080H
	DB	00H
	DB	080H
	DB	00H
	DB	080H
	DB	00H
	DB	080H
	DB	00H
	DB	080H
	DB	01H
	DB	080H
	DB	00H
	DB	078H
	DB	00H
	DB	080H
	DB	01H
	DB	080H
	DB	01H
	DB	078H
	DB	01H
	DB	078H
	DB	01H
	DB	078H
	DB	01H
	DB	080H
	DB	01H
	DB	078H
	DB	01H
	DB	078H
	DB	01H
	DB	078H
	DB	01H
	DB	078H
	DB	01H
	DB	078H
	DB	01H
	DB	078H
	DB	01H
	DB	078H
	DB	01H
	DB	070H
	DB	01H
	DB	078H
	DB	02H
	DB	078H
	DB	01H
	DB	078H
	DB	01H
	DB	070H
	DB	02H
	DB	070H
	DB	02H
	DB	078H
	DB	01H
	DB	070H
	DB	01H
	DB	070H
	DB	02H
	DB	070H
	DB	02H
	DB	078H
	DB	02H
	DB	070H
	DB	02H
	DB	070H
	DB	02H
	DB	070H
	DB	02H
	DB	070H
	DB	02H
	DB	070H
	DB	02H
	DB	070H
	DB	02H
	DB	070H
	DB	02H
	DB	070H
	DB	02H
	DB	068H
	DB	02H
	DB	070H
	DB	03H
	DB	068H
	DB	02H
	DB	070H
	DB	02H
	DB	068H
	DB	02H
	DB	070H
	DB	03H
	DB	068H
	DB	03H
	DB	068H
	DB	03H
	DB	068H
	DB	03H
	DB	068H
	DB	03H
	DB	068H
	DB	03H
	DB	068H
	DB	03H
	DB	068H
	DB	03H
	DB	068H
	DB	03H
	DB	068H
	DB	03H
	DB	068H
	DB	03H
	DB	060H
	DB	04H
	DB	068H
	DB	03H
	DB	060H
	DB	03H
	DB	068H
	DB	04H
	DB	060H
	DB	04H
	DB	060H
	DB	03H
	DB	068H
	DB	04H
	DB	060H
	DB	03H
	DB	060H
	DB	04H
	DB	060H
	DB	04H
	DB	060H
	DB	04H
	DB	060H
	DB	04H
	DB	060H
	DB	04H
	DB	060H
	DB	04H
	DB	060H
	DB	04H
	DB	060H
	DB	04H
	DB	060H
	DB	04H
	DB	058H
	DB	05H
	DB	060H
	DB	05H
	DB	058H
	DB	05H
	DB	060H
	DB	05H
	DB	058H
	DB	04H
	DB	058H
	DB	05H
	DB	060H
	DB	05H
	DB	058H
	DB	05H
	DB	058H
	DB	05H
	DB	058H
	DB	05H
	DB	058H
	DB	05H
	DB	058H
	DB	05H
	DB	058H
	DB	05H
	DB	058H
	DB	05H
	DB	058H
	DB	06H
	DB	050H
	DB	05H
	DB	058H
	DB	05H
	DB	050H
	DB	06H
	DB	050H
	DB	05H
	DB	058H
	DB	06H
	DB	050H
	DB	05H
	DB	050H
	DB	06H
	DB	058H
	DB	06H
	DB	050H
	DB	06H
	DB	050H
	DB	06H
	DB	050H
	DB	06H
	DB	050H
	DB	06H
	DB	050H
	DB	06H
	DB	050H
	DB	06H
	DB	050H
	DB	06H
	DB	050H
	DB	07H
	DB	050H
	DB	06H
	DB	050H
	DB	06H
	DB	050H
	DB	07H
	DB	050H
	DB	06H
	DB	048H
	DB	07H
	DB	048H
	DB	06H
	DB	050H
	DB	07H
	DB	048H
	DB	07H
	DB	048H
	DB	06H
	DB	048H
	DB	07H
	DB	050H
	DB	06H
	DB	048H
	DB	07H
	DB	048H
	DB	07H
	DB	048H
	DB	07H
	DB	048H
	DB	07H
	DB	048H
	DB	07H
	DB	048H
	DB	07H
	DB	048H
	DB	07H
	DB	040H
	DB	08H
	DB	048H
	DB	07H
	DB	048H
	DB	08H
	DB	040H
	DB	08H
	DB	048H
	DB	08H
	DB	040H
	DB	08H
	DB	040H
	DB	08H
	DB	040H
	DB	08H
	DB	040H
	DB	07H
	DB	040H
	DB	08H
	DB	040H
	DB	08H
	DB	040H
	DB	08H
	DB	040H
	DB	08H
	DB	040H
	DB	08H
	DB	040H
	DB	08H
	DB	040H
	DB	09H
	DB	038H
	DB	08H
	DB	040H
	DB	08H
	DB	040H
	DB	09H
	DB	038H
	DB	09H
	DB	038H
	DB	08H
	DB	040H
	DB	08H
	DB	038H
	DB	09H
	DB	038H
	DB	09H
	DB	038H
	DB	09H
	DB	038H
	DB	09H
	DB	038H
	DB	09H
	DB	038H
	DB	09H
	DB	038H
	DB	09H
	DB	038H
	DB	09H
	DB	030H
	DB	09H
	DB	038H
	DB	0aH
	DB	038H
	DB	09H
	DB	038H
	DB	0aH
	DB	038H
	DB	0aH
	DB	030H
	DB	0aH
	DB	030H
	DB	0aH
	DB	030H
	DB	0aH
	DB	030H
	DB	0aH
	DB	030H
	DB	0aH
	DB	030H
	DB	0aH
	DB	030H
	DB	0aH
	DB	030H
	DB	0aH
	DB	030H
	DB	0bH
	DB	030H
	DB	0bH
	DB	030H
	DB	0bH
	DB	028H
	DB	0aH
	DB	030H
	DB	0bH
	DB	028H
	DB	0bH
	DB	028H
	DB	0aH
	DB	028H
	DB	0bH
	DB	028H
	DB	0bH
	DB	028H
	DB	0bH
	DB	028H
	DB	0bH
	DB	028H
	DB	0bH
	DB	028H
	DB	0cH
	DB	028H
	DB	0bH
	DB	028H
	DB	0bH
	DB	020H
	DB	0cH
	DB	028H
	DB	0bH
	DB	028H
	DB	0bH
	DB	020H
	DB	0cH
	DB	020H
	DB	0cH
	DB	020H
	DB	0cH
	DB	020H
	DB	0cH
	DB	020H
	DB	0cH
	DB	020H
	DB	0cH
	DB	020H
	DB	0cH
	DB	020H
	DB	0cH
	DB	018H
	DB	0dH
	DB	018H
	DB	0cH
	DB	020H
	DB	0dH
	DB	018H
	DB	0dH
	DB	020H
	DB	0cH
	DB	018H
	DB	0dH
	DB	018H
	DB	0dH
	DB	020H
	DB	0dH
	DB	018H
	DB	0dH
	DB	018H
	DB	0dH
	DB	018H
	DB	0dH
	DB	018H
	DB	0dH
	DB	018H
	DB	0dH
	DB	018H
	DB	0dH
	DB	010H
	DB	0dH
	DB	018H
	DB	0eH
	DB	010H
	DB	0eH
	DB	010H
	DB	0dH
	DB	018H
	DB	0eH
	DB	010H
	DB	0eH
	DB	010H
	DB	0eH
	DB	010H
	DB	0eH
	DB	010H
	DB	0eH
	DB	010H
	DB	0eH
	DB	010H
	DB	0eH
	DB	010H
	DB	0eH
	DB	010H
	DB	0fH
	DB	010H
	DB	0fH
	DB	010H
	DB	0eH
	DB	010H
	DB	0fH
	DB	08H
	DB	0eH
	DB	010H
	DB	0eH
	DB	08H
	DB	0fH
	DB	08H
	DB	0fH
	DB	08H
	DB	0fH
	DB	08H
	DB	0fH
	DB	08H
	DB	0fH
	DB	08H
	DB	0fH
	DB	08H
	DB	0fH
	DB	08H
	DB	0fH
	DB	08H
	DB	010H
	DB	08H
	DB	0fH
	DB	00H
	DB	010H
	DB	00H
	DB	0fH
	DB	08H
	DB	010H
	DB	00H
	DB	0fH
	DB	00H
	DB	010H
	DB	00H
	DB	010H
	DB	00H
	DB	010H
	DB	00H
	DB	010H
	DB	00H
	DB	00H
	DB	04H
	DB	00H
	DB	04H
	DB	00H
	DB	04H
	DB	0e0H
	DB	03H
	DB	00H
	DB	04H
	DB	00H
	DB	0cH
	DB	0e0H
	DB	03H
	DB	0e0H
	DB	03H
	DB	0e0H
	DB	0bH
	DB	0e0H
	DB	03H
	DB	0e0H
	DB	0bH
	DB	0e0H
	DB	0bH
	DB	0c0H
	DB	03H
	DB	0c0H
	DB	0bH
	DB	0c0H
	DB	0bH
	DB	0c0H
	DB	0bH
	DB	0c0H
	DB	0bH
	DB	0a0H
	DB	0bH
	DB	0c0H
	DB	0bH
	DB	0c0H
	DB	013H
	DB	0a0H
	DB	0bH
	DB	0a0H
	DB	0bH
	DB	0a0H
	DB	013H
	DB	0a0H
	DB	0bH
	DB	0a0H
	DB	013H
	DB	0a0H
	DB	013H
	DB	080H
	DB	013H
	DB	080H
	DB	013H
	DB	080H
	DB	013H
	DB	080H
	DB	013H
	DB	080H
	DB	013H
	DB	080H
	DB	013H
	DB	060H
	DB	013H
	DB	080H
	DB	013H
	DB	080H
	DB	013H
	DB	060H
	DB	01bH
	DB	060H
	DB	013H
	DB	060H
	DB	01bH
	DB	060H
	DB	01bH
	DB	060H
	DB	01bH
	DB	040H
	DB	013H
	DB	060H
	DB	01bH
	DB	040H
	DB	01bH
	DB	040H
	DB	01bH
	DB	040H
	DB	01bH
	DB	040H
	DB	01bH
	DB	040H
	DB	01bH
	DB	040H
	DB	01bH
	DB	040H
	DB	023H
	DB	040H
	DB	01bH
	DB	020H
	DB	01bH
	DB	020H
	DB	023H
	DB	020H
	DB	01bH
	DB	020H
	DB	023H
	DB	020H
	DB	023H
	DB	00H
	DB	023H
	DB	020H
	DB	023H
	DB	00H
	DB	023H
	DB	00H
	DB	023H
	DB	00H
	DB	023H
	DB	00H
	DB	023H
	DB	00H
	DB	023H
	DB	0e0H
	DB	02aH
	DB	0e0H
	DB	022H
	DB	0e0H
	DB	02aH
	DB	0e0H
	DB	022H
	DB	0e0H
	DB	02aH
	DB	0e0H
	DB	02aH
	DB	0e0H
	DB	022H
	DB	0c0H
	DB	02aH
	DB	0e0H
	DB	02aH
	DB	0e0H
	DB	022H
	DB	0c0H
	DB	02aH
	DB	0c0H
	DB	02aH
	DB	0c0H
	DB	02aH
	DB	0c0H
	DB	02aH
	DB	0c0H
	DB	02aH
	DB	0a0H
	DB	02aH
	DB	0a0H
	DB	02aH
	DB	0c0H
	DB	032H
	DB	0a0H
	DB	02aH
	DB	0a0H
	DB	032H
	DB	0a0H
	DB	02aH
	DB	0a0H
	DB	032H
	DB	080H
	DB	02aH
	DB	0a0H
	DB	032H
	DB	080H
	DB	032H
	DB	080H
	DB	032H
	DB	080H
	DB	032H
	DB	080H
	DB	032H
	DB	080H
	DB	032H
	DB	060H
	DB	032H
	DB	080H
	DB	032H
	DB	060H
	DB	032H
	DB	060H
	DB	03aH
	DB	060H
	DB	03aH
	DB	060H
	DB	032H
	DB	060H
	DB	03aH
	DB	040H
	DB	03aH
	DB	060H
	DB	03aH
	DB	040H
	DB	03aH
	DB	040H
	DB	03aH
	DB	040H
	DB	03aH
	DB	040H
	DB	03aH
	DB	040H
	DB	03aH
	DB	040H
	DB	03aH
	DB	040H
	DB	03aH
	DB	040H
	DB	042H
	DB	020H
	DB	03aH
	DB	020H
	DB	042H
	DB	020H
	DB	03aH
	DB	020H
	DB	03aH
	DB	020H
	DB	042H
	DB	020H
	DB	03aH
	DB	00H
	DB	042H
	DB	020H
	DB	03aH
	DB	00H
	DB	042H
	DB	00H
	DB	042H
	DB	00H
	DB	042H
	DB	00H
	DB	042H
	DB	00H
	DB	042H
	DB	0e0H
	DB	041H
	DB	0e0H
	DB	041H
	DB	0e0H
	DB	049H
	DB	0e0H
	DB	049H
	DB	0e0H
	DB	041H
	DB	0e0H
	DB	049H
	DB	0e0H
	DB	049H
	DB	0e0H
	DB	049H
	DB	0c0H
	DB	049H
	DB	0e0H
	DB	041H
	DB	0c0H
	DB	049H
	DB	0c0H
	DB	049H
	DB	0c0H
	DB	049H
	DB	0c0H
	DB	049H
	DB	0c0H
	DB	049H
	DB	0a0H
	DB	051H
	DB	0a0H
	DB	051H
	DB	0a0H
	DB	049H
	DB	0a0H
	DB	049H
	DB	0a0H
	DB	051H
	DB	0a0H
	DB	049H
	DB	0a0H
	DB	049H
	DB	0a0H
	DB	051H
	DB	080H
	DB	051H
	DB	080H
	DB	051H
	DB	080H
	DB	051H
	DB	080H
	DB	051H
	DB	080H
	DB	051H
	DB	080H
	DB	051H
	DB	080H
	DB	051H
	DB	060H
	DB	051H
	DB	080H
	DB	051H
	DB	060H
	DB	059H
	DB	060H
	DB	051H
	DB	060H
	DB	051H
	DB	060H
	DB	051H
	DB	060H
	DB	059H
	DB	040H
	DB	059H
	DB	060H
	DB	059H
	DB	040H
	DB	059H
	DB	040H
	DB	059H
	DB	060H
	DB	059H
	DB	040H
	DB	059H
	DB	040H
	DB	059H
	DB	040H
	DB	059H
	DB	040H
	DB	059H
	DB	020H
	DB	061H
	DB	020H
	DB	059H
	DB	020H
	DB	061H
	DB	020H
	DB	061H
	DB	020H
	DB	059H
	DB	020H
	DB	059H
	DB	020H
	DB	061H
	DB	00H
	DB	061H
	DB	020H
	DB	059H
	DB	00H
	DB	061H
	DB	00H
	DB	061H
	DB	00H
	DB	061H
	DB	00H
	DB	061H
	DB	00H
	DB	061H
	DB	00H
	DB	061H
	DB	0e0H
	DB	060H
	DB	00H
	DB	061H
	DB	0e0H
	DB	068H
	DB	0e0H
	DB	060H
	DB	0e0H
	DB	060H
	DB	0e0H
	DB	068H
	DB	0e0H
	DB	060H
	DB	0e0H
	DB	068H
	DB	0c0H
	DB	068H
	DB	0c0H
	DB	060H
	DB	0c0H
	DB	068H
	DB	0c0H
	DB	068H
	DB	0c0H
	DB	068H
	DB	0c0H
	DB	068H
	DB	0c0H
	DB	068H
	DB	0c0H
	DB	070H
	DB	0a0H
	DB	070H
	DB	0a0H
	DB	068H
	DB	0a0H
	DB	068H
	DB	0a0H
	DB	070H
	DB	0a0H
	DB	070H
	DB	0a0H
	DB	068H
	DB	0a0H
	DB	068H
	DB	080H
	DB	070H
	DB	080H
	DB	070H
	DB	080H
	DB	070H
	DB	080H
	DB	070H
	DB	080H
	DB	070H
	DB	080H
	DB	070H
	DB	080H
	DB	070H
	DB	060H
	DB	070H
	DB	080H
	DB	078H
	DB	060H
	DB	070H
	DB	060H
	DB	070H
	DB	060H
	DB	078H
	DB	060H
	DB	070H
	DB	060H
	DB	078H
	DB	040H
	DB	078H
	DB	060H
	DB	070H
	DB	040H
	DB	070H
	DB	040H
	DB	078H
	DB	060H
	DB	078H
	DB	040H
	DB	078H
	DB	040H
	DB	078H
	DB	040H
	DB	078H
	DB	020H
	DB	078H
	DB	020H
	DB	080H
	DB	020H
	DB	078H
	DB	020H
	DB	080H
	DB	020H
	DB	078H
	DB	020H
	DB	078H
	DB	020H
	DB	080H
	DB	020H
	DB	078H
	DB	00H
	DB	080H
	DB	00H
	DB	080H
	DB	00H
	DB	080H
	DB	00H
	DB	080H
	DB	00H
	DB	080H
	DB	00H
	DB	080H
	DB	00H
	DB	080H
	DB	01H
	DB	080H
	DB	00H
	DB	078H
	DB	01H
	DB	080H
	DB	01H
	DB	080H
	DB	00H
	DB	080H
	DB	00H
	DB	078H
	DB	01H
	DB	078H
	DB	00H
	DB	080H
	DB	01H
	DB	078H
	DB	00H
	DB	078H
	DB	01H
	DB	080H
	DB	01H
	DB	078H
	DB	01H
	DB	078H
	DB	01H
	DB	078H
	DB	01H
	DB	078H
	DB	01H
	DB	078H
	DB	01H
	DB	078H
	DB	01H
	DB	078H
	DB	01H
	DB	070H
	DB	01H
	DB	078H
	DB	02H
	DB	070H
	DB	01H
	DB	078H
	DB	01H
	DB	078H
	DB	02H
	DB	070H
	DB	02H
	DB	070H
	DB	02H
	DB	070H
	DB	01H
	DB	078H
	DB	02H
	DB	070H
	DB	02H
	DB	070H
	DB	02H
	DB	070H
	DB	02H
	DB	070H
	DB	02H
	DB	070H
	DB	02H
	DB	070H
	DB	03H
	DB	070H
	DB	02H
	DB	070H
	DB	03H
	DB	068H
	DB	03H
	DB	070H
	DB	02H
	DB	068H
	DB	03H
	DB	070H
	DB	03H
	DB	068H
	DB	02H
	DB	070H
	DB	03H
	DB	068H
	DB	02H
	DB	068H
	DB	03H
	DB	070H
	DB	03H
	DB	070H
	DB	03H
	DB	068H
	DB	03H
	DB	068H
	DB	03H
	DB	068H
	DB	03H
	DB	068H
	DB	03H
	DB	068H
	DB	03H
	DB	068H
	DB	04H
	DB	068H
	DB	03H
	DB	060H
	DB	03H
	DB	068H
	DB	04H
	DB	068H
	DB	03H
	DB	060H
	DB	03H
	DB	068H
	DB	04H
	DB	060H
	DB	04H
	DB	060H
	DB	03H
	DB	068H
	DB	04H
	DB	060H
	DB	04H
	DB	060H
	DB	04H
	DB	060H
	DB	04H
	DB	060H
	DB	04H
	DB	060H
	DB	04H
	DB	060H
	DB	04H
	DB	060H
	DB	04H
	DB	060H
	DB	05H
	DB	058H
	DB	04H
	DB	060H
	DB	04H
	DB	060H
	DB	04H
	DB	058H
	DB	05H
	DB	060H
	DB	04H
	DB	060H
	DB	05H
	DB	058H
	DB	04H
	DB	058H
	DB	05H
	DB	060H
	DB	05H
	DB	058H
	DB	05H
	DB	058H
	DB	05H
	DB	058H
	DB	05H
	DB	058H
	DB	05H
	DB	058H
	DB	05H
	DB	058H
	DB	05H
	DB	058H
	DB	05H
	DB	058H
	DB	05H
	DB	050H
	DB	06H
	DB	058H
	DB	05H
	DB	058H
	DB	06H
	DB	050H
	DB	06H
	DB	058H
	DB	05H
	DB	058H
	DB	06H
	DB	050H
	DB	06H
	DB	050H
	DB	06H
	DB	050H
	DB	06H
	DB	050H
	DB	06H
	DB	050H
	DB	06H
	DB	050H
	DB	06H
	DB	050H
	DB	06H
	DB	050H
	DB	06H
	DB	050H
	DB	06H
	DB	050H
	DB	06H
	DB	050H
	DB	07H
	DB	048H
	DB	06H
	DB	050H
	DB	07H
	DB	050H
	DB	06H
	DB	050H
	DB	07H
	DB	050H
	DB	07H
	DB	048H
	DB	07H
	DB	048H
	DB	07H
	DB	048H
	DB	07H
	DB	048H
	DB	07H
	DB	048H
	DB	07H
	DB	048H
	DB	07H
	DB	048H
	DB	07H
	DB	048H
	DB	07H
	DB	048H
	DB	07H
	DB	048H
	DB	07H
	DB	048H
	DB	07H
	DB	048H
	DB	07H
	DB	048H
	DB	08H
	DB	040H
	DB	07H
	DB	048H
	DB	07H
	DB	048H
	DB	08H
	DB	048H
	DB	07H
	DB	040H
	DB	08H
	DB	040H
	DB	08H
	DB	048H
	DB	08H
	DB	040H
	DB	08H
	DB	040H
	DB	08H
	DB	040H
	DB	08H
	DB	040H
	DB	08H
	DB	040H
	DB	08H
	DB	040H
	DB	08H
	DB	040H
	DB	08H
	DB	038H
	DB	09H
	DB	040H
	DB	09H
	DB	040H
	DB	08H
	DB	038H
	DB	09H
	DB	040H
	DB	08H
	DB	038H
	DB	09H
	DB	040H
	DB	09H
	DB	038H
	DB	09H
	DB	038H
	DB	09H
	DB	038H
	DB	09H
	DB	038H
	DB	09H
	DB	038H
	DB	09H
	DB	038H
	DB	0aH
	DB	038H
	DB	09H
	DB	030H
	DB	0aH
	DB	030H
	DB	09H
	DB	038H
	DB	09H
	DB	030H
	DB	0aH
	DB	030H
	DB	09H
	DB	038H
	DB	09H
	DB	030H
	DB	0aH
	DB	030H
	DB	0aH
	DB	030H
	DB	0aH
	DB	030H
	DB	0aH
	DB	030H
	DB	0aH
	DB	030H
	DB	0aH
	DB	028H
	DB	0aH
	DB	028H
	DB	0aH
	DB	030H
	DB	0bH
	DB	028H
	DB	0aH
	DB	030H
	DB	0bH
	DB	028H
	DB	0bH
	DB	030H
	DB	0bH
	DB	028H
	DB	0bH
	DB	028H
	DB	0bH
	DB	028H
	DB	0bH
	DB	028H
	DB	0bH
	DB	028H
	DB	0bH
	DB	028H
	DB	0bH
	DB	020H
	DB	0bH
	DB	028H
	DB	0bH
	DB	020H
	DB	0bH
	DB	020H
	DB	0cH
	DB	028H
	DB	0cH
	DB	020H
	DB	0bH
	DB	028H
	DB	0cH
	DB	020H
	DB	0cH
	DB	028H
	DB	0cH
	DB	020H
	DB	0cH
	DB	020H
	DB	0cH
	DB	020H
	DB	0cH
	DB	020H
	DB	0cH
	DB	020H
	DB	0cH
	DB	020H
	DB	0dH
	DB	018H
	DB	0cH
	DB	020H
	DB	0dH
	DB	020H
	DB	0cH
	DB	018H
	DB	0dH
	DB	018H
	DB	0dH
	DB	018H
	DB	0dH
	DB	018H
	DB	0dH
	DB	018H
	DB	0dH
	DB	018H
	DB	0dH
	DB	018H
	DB	0dH
	DB	018H
	DB	0dH
	DB	018H
	DB	0eH
	DB	018H
	DB	0eH
	DB	010H
	DB	0dH
	DB	018H
	DB	0eH
	DB	018H
	DB	0dH
	DB	010H
	DB	0eH
	DB	018H
	DB	0eH
	DB	018H
	DB	0dH
	DB	010H
	DB	0eH
	DB	010H
	DB	0eH
	DB	010H
	DB	0eH
	DB	010H
	DB	0eH
	DB	010H
	DB	0eH
	DB	010H
	DB	0eH
	DB	010H
	DB	0eH
	DB	08H
	DB	0fH
	DB	08H
	DB	0fH
	DB	08H
	DB	0eH
	DB	08H
	DB	0fH
	DB	010H
	DB	0fH
	DB	010H
	DB	0eH
	DB	08H
	DB	0fH
	DB	08H
	DB	0fH
	DB	08H
	DB	0fH
	DB	08H
	DB	0fH
	DB	08H
	DB	0fH
	DB	08H
	DB	0fH
	DB	08H
	DB	0fH
	DB	00H
	DB	0fH
	DB	08H
	DB	0fH
	DB	08H
	DB	010H
	DB	00H
	DB	0fH
	DB	08H
	DB	010H
	DB	08H
	DB	010H
	DB	00H
	DB	010H
	DB	00H
	DB	010H
	DB	00H
	DB	010H
	DB	00H
	DB	010H
	DB	00H
	DB	00H
	DB	04H
	DB	00H
	DB	04H
	DB	00H
	DB	04H
	DB	00H
	DB	04H
	DB	0e0H
	DB	03H
	DB	0e0H
	DB	03H
	DB	0e0H
	DB	0bH
	DB	00H
	DB	04H
	DB	0e0H
	DB	0bH
	DB	0e0H
	DB	0bH
	DB	0e0H
	DB	03H
	DB	0c0H
	DB	03H
	DB	0e0H
	DB	0bH
	DB	0c0H
	DB	0bH
	DB	0c0H
	DB	0bH
	DB	0c0H
	DB	0bH
	DB	0c0H
	DB	0bH
	DB	0c0H
	DB	0bH
	DB	0a0H
	DB	0bH
	DB	0c0H
	DB	013H
	DB	0c0H
	DB	0bH
	DB	0a0H
	DB	0bH
	DB	0a0H
	DB	013H
	DB	0a0H
	DB	0bH
	DB	0a0H
	DB	013H
	DB	0a0H
	DB	013H
	DB	0a0H
	DB	0bH
	DB	080H
	DB	013H
	DB	080H
	DB	013H
	DB	080H
	DB	013H
	DB	080H
	DB	013H
	DB	080H
	DB	013H
	DB	080H
	DB	013H
	DB	080H
	DB	013H
	DB	060H
	DB	013H
	DB	060H
	DB	013H
	DB	060H
	DB	013H
	DB	060H
	DB	01bH
	DB	060H
	DB	013H
	DB	060H
	DB	01bH
	DB	040H
	DB	01bH
	DB	040H
	DB	01bH
	DB	060H
	DB	01bH
	DB	040H
	DB	01bH
	DB	040H
	DB	01bH
	DB	040H
	DB	01bH
	DB	040H
	DB	01bH
	DB	020H
	DB	01bH
	DB	020H
	DB	01bH
	DB	020H
	DB	01bH
	DB	020H
	DB	023H
	DB	020H
	DB	01bH
	DB	020H
	DB	01bH
	DB	020H
	DB	023H
	DB	020H
	DB	01bH
	DB	00H
	DB	01bH
	DB	020H
	DB	023H
	DB	00H
	DB	023H
	DB	00H
	DB	023H
	DB	00H
	DB	023H
	DB	00H
	DB	023H
	DB	00H
	DB	023H
	DB	00H
	DB	023H
	DB	0e0H
	DB	02aH
	DB	0e0H
	DB	022H
	DB	0e0H
	DB	022H
	DB	0e0H
	DB	02aH
	DB	0e0H
	DB	02aH
	DB	0e0H
	DB	022H
	DB	0c0H
	DB	022H
	DB	0e0H
	DB	02aH
	DB	0c0H
	DB	02aH
	DB	0c0H
	DB	02aH
	DB	0c0H
	DB	02aH
	DB	0c0H
	DB	02aH
	DB	0c0H
	DB	02aH
	DB	0c0H
	DB	02aH
	DB	0c0H
	DB	02aH
	DB	0a0H
	DB	032H
	DB	0a0H
	DB	02aH
	DB	0a0H
	DB	02aH
	DB	0a0H
	DB	02aH
	DB	0a0H
	DB	032H
	DB	0a0H
	DB	032H
	DB	080H
	DB	032H
	DB	0a0H
	DB	032H
	DB	0a0H
	DB	032H
	DB	080H
	DB	032H
	DB	080H
	DB	032H
	DB	080H
	DB	032H
	DB	080H
	DB	032H
	DB	080H
	DB	03aH
	DB	080H
	DB	032H
	DB	080H
	DB	032H
	DB	060H
	DB	03aH
	DB	060H
	DB	03aH
	DB	060H
	DB	032H
	DB	060H
	DB	03aH
	DB	060H
	DB	032H
	DB	040H
	DB	03aH
	DB	040H
	DB	03aH
	DB	060H
	DB	03aH
	DB	040H
	DB	03aH
	DB	040H
	DB	03aH
	DB	040H
	DB	03aH
	DB	020H
	DB	03aH
	DB	020H
	DB	03aH
	DB	040H
	DB	03aH
	DB	040H
	DB	042H
	DB	020H
	DB	03aH
	DB	020H
	DB	042H
	DB	020H
	DB	042H
	DB	020H
	DB	03aH
	DB	020H
	DB	042H
	DB	00H
	DB	042H
	DB	020H
	DB	042H
	DB	00H
	DB	042H
	DB	00H
	DB	042H
	DB	00H
	DB	042H
	DB	00H
	DB	042H
	DB	00H
	DB	042H
	DB	0e0H
	DB	041H
	DB	00H
	DB	04aH
	DB	00H
	DB	042H
	DB	0e0H
	DB	041H
	DB	0e0H
	DB	049H
	DB	0e0H
	DB	041H
	DB	0e0H
	DB	049H
	DB	0c0H
	DB	049H
	DB	0e0H
	DB	049H
	DB	0e0H
	DB	049H
	DB	0c0H
	DB	049H
	DB	0c0H
	DB	049H
	DB	0c0H
	DB	049H
	DB	0c0H
	DB	049H
	DB	0c0H
	DB	049H
	DB	0c0H
	DB	049H
	DB	0a0H
	DB	049H
	DB	0c0H
	DB	051H
	DB	0a0H
	DB	049H
	DB	0a0H
	DB	051H
	DB	0a0H
	DB	051H
	DB	0a0H
	DB	051H
	DB	0a0H
	DB	051H
	DB	080H
	DB	049H
	DB	0a0H
	DB	051H
	DB	080H
	DB	051H
	DB	080H
	DB	051H
	DB	080H
	DB	051H
	DB	080H
	DB	051H
	DB	080H
	DB	051H
	DB	060H
	DB	051H
	DB	060H
	DB	051H
	DB	080H
	DB	051H
	DB	060H
	DB	059H
	DB	060H
	DB	051H
	DB	060H
	DB	051H
	DB	060H
	DB	059H
	DB	060H
	DB	059H
	DB	040H
	DB	051H
	DB	040H
	DB	059H
	DB	040H
	DB	059H
	DB	040H
	DB	059H
	DB	040H
	DB	059H
	DB	040H
	DB	059H
	DB	040H
	DB	059H
	DB	020H
	DB	059H
	DB	040H
	DB	059H
	DB	020H
	DB	059H
	DB	020H
	DB	059H
	DB	020H
	DB	061H
	DB	020H
	DB	061H
	DB	020H
	DB	061H
	DB	020H
	DB	061H
	DB	00H
	DB	061H
	DB	00H
	DB	061H
	DB	00H
	DB	061H
	DB	00H
	DB	061H
	DB	00H
	DB	061H
	DB	00H
	DB	061H
	DB	00H
	DB	061H
	DB	00H
	DB	069H
	DB	0e0H
	DB	060H
	DB	00H
	DB	069H
	DB	0e0H
	DB	068H
	DB	0e0H
	DB	060H
	DB	0e0H
	DB	068H
	DB	0e0H
	DB	068H
	DB	0e0H
	DB	060H
	DB	0c0H
	DB	068H
	DB	0c0H
	DB	068H
	DB	0e0H
	DB	068H
	DB	0c0H
	DB	068H
	DB	0c0H
	DB	068H
	DB	0c0H
	DB	068H
	DB	0c0H
	DB	068H
	DB	0c0H
	DB	068H
	DB	0a0H
	DB	068H
	DB	0a0H
	DB	070H
	DB	0a0H
	DB	068H
	DB	0a0H
	DB	070H
	DB	0a0H
	DB	070H
	DB	0a0H
	DB	068H
	DB	080H
	DB	070H
	DB	080H
	DB	070H
	DB	0a0H
	DB	070H
	DB	080H
	DB	068H
	DB	080H
	DB	070H
	DB	080H
	DB	070H
	DB	080H
	DB	070H
	DB	080H
	DB	070H
	DB	060H
	DB	070H
	DB	080H
	DB	070H
	DB	060H
	DB	078H
	DB	060H
	DB	070H
	DB	060H
	DB	078H
	DB	060H
	DB	070H
	DB	060H
	DB	070H
	DB	060H
	DB	078H
	DB	060H
	DB	078H
	DB	040H
	DB	078H
	DB	060H
	DB	078H
	DB	040H
	DB	078H
	DB	040H
	DB	078H
	DB	040H
	DB	078H
	DB	040H
	DB	078H
	DB	020H
	DB	078H
	DB	040H
	DB	078H
	DB	040H
	DB	078H
	DB	020H
	DB	080H
	DB	020H
	DB	078H
	DB	020H
	DB	080H
	DB	020H
	DB	080H
	DB	020H
	DB	078H
	DB	00H
	DB	080H
	DB	020H
	DB	080H
	DB	020H
	DB	080H
	DB	00H
	DB	080H
	DB	00H
	DB	080H
	DB	00H
	DB	080H
	DB	00H
	DB	080H
	DB	00H
	DB	080H
	DB	00H
	DB	078H
	DB	00H
	DB	080H
	DB	00H
	DB	078H
	DB	01H
	DB	080H
	DB	00H
	DB	078H
	DB	01H
	DB	078H
	DB	00H
	DB	080H
	DB	01H
	DB	080H
	DB	01H
	DB	078H
	DB	01H
	DB	078H
	DB	00H
	DB	078H
	DB	01H
	DB	080H
	DB	01H
	DB	078H
	DB	01H
	DB	078H
	DB	01H
	DB	078H
	DB	01H
	DB	078H
	DB	02H
	DB	078H
	DB	01H
	DB	078H
	DB	01H
	DB	078H
	DB	02H
	DB	078H
	DB	01H
	DB	070H
	DB	01H
	DB	070H
	DB	02H
	DB	078H
	DB	02H
	DB	078H
	DB	01H
	DB	070H
	DB	02H
	DB	070H
	DB	02H
	DB	070H
	DB	02H
	DB	070H
	DB	02H
	DB	070H
	DB	02H
	DB	070H
	DB	02H
	DB	070H
	DB	02H
	DB	070H
	DB	02H
	DB	070H
	DB	02H
	DB	070H
	DB	02H
	DB	068H
	DB	02H
	DB	070H
	DB	02H
	DB	070H
	DB	03H
	DB	070H
	DB	02H
	DB	068H
	DB	03H
	DB	068H
	DB	03H
	DB	068H
	DB	03H
	DB	070H
	DB	02H
	DB	068H
	DB	03H
	DB	068H
	DB	03H
	DB	068H
	DB	03H
	DB	068H
	DB	03H
	DB	068H
	DB	03H
	DB	068H
	DB	03H
	DB	068H
	DB	03H
	DB	068H
	DB	03H
	DB	068H
	DB	03H
	DB	068H
	DB	03H
	DB	060H
	DB	04H
	DB	068H
	DB	04H
	DB	068H
	DB	04H
	DB	060H
	DB	04H
	DB	060H
	DB	03H
	DB	068H
	DB	04H
	DB	060H
	DB	04H
	DB	060H
	DB	04H
	DB	060H
	DB	03H
	DB	060H
	DB	04H
	DB	060H
	DB	04H
	DB	060H
	DB	04H
	DB	060H
	DB	04H
	DB	060H
	DB	04H
	DB	060H
	DB	04H
	DB	060H
	DB	04H
	DB	058H
	DB	05H
	DB	060H
	DB	04H
	DB	060H
	DB	05H
	DB	058H
	DB	04H
	DB	058H
	DB	05H
	DB	060H
	DB	05H
	DB	058H
	DB	04H
	DB	058H
	DB	05H
	DB	058H
	DB	05H
	DB	060H
	DB	04H
	DB	058H
	DB	05H
	DB	058H
	DB	05H
	DB	058H
	DB	05H
	DB	058H
	DB	05H
	DB	058H
	DB	05H
	DB	058H
	DB	05H
	DB	058H
	DB	06H
	DB	058H
	DB	05H
	DB	058H
	DB	05H
	DB	050H
	DB	06H
	DB	050H
	DB	06H
	DB	058H
	DB	05H
	DB	050H
	DB	05H
	DB	050H
	DB	06H
	DB	050H
	DB	05H
	DB	050H
	DB	06H
	DB	058H
	DB	06H
	DB	050H
	DB	06H
	DB	050H
	DB	06H
	DB	050H
	DB	06H
	DB	050H
	DB	06H
	DB	050H
	DB	06H
	DB	050H
	DB	06H
	DB	048H
	DB	06H
	DB	050H
	DB	07H
	DB	048H
	DB	06H
	DB	050H
	DB	06H
	DB	048H
	DB	07H
	DB	048H
	DB	06H
	DB	050H
	DB	07H
	DB	048H
	DB	06H
	DB	050H
	DB	07H
	DB	048H
	DB	07H
	DB	048H
	DB	07H
	DB	048H
	DB	07H
	DB	048H
	DB	07H
	DB	048H
	DB	07H
	DB	048H
	DB	07H
	DB	048H
	DB	08H
	DB	040H
	DB	07H
	DB	048H
	DB	07H
	DB	040H
	DB	08H
	DB	040H
	DB	07H
	DB	040H
	DB	07H
	DB	048H
	DB	08H
	DB	040H
	DB	07H
	DB	048H
	DB	08H
	DB	040H
	DB	08H
	DB	040H
	DB	07H
	DB	040H
	DB	08H
	DB	040H
	DB	08H
	DB	040H
	DB	08H
	DB	040H
	DB	08H
	DB	040H
	DB	08H
	DB	040H
	DB	08H
	DB	040H
	DB	08H
	DB	040H
	DB	08H
	DB	038H
	DB	08H
	DB	040H
	DB	09H
	DB	038H
	DB	09H
	DB	038H
	DB	09H
	DB	038H
	DB	09H
	DB	038H
	DB	09H
	DB	038H
	DB	09H
	DB	038H
	DB	09H
	DB	038H
	DB	09H
	DB	038H
	DB	09H
	DB	038H
	DB	09H
	DB	038H
	DB	09H
	DB	038H
	DB	0aH
	DB	038H
	DB	09H
	DB	030H
	DB	0aH
	DB	038H
	DB	0aH
	DB	030H
	DB	0aH
	DB	030H
	DB	09H
	DB	030H
	DB	0aH
	DB	038H
	DB	0aH
	DB	030H
	DB	0aH
	DB	030H
	DB	0aH
	DB	030H
	DB	0aH
	DB	030H
	DB	0aH
	DB	030H
	DB	0bH
	DB	030H
	DB	0bH
	DB	030H
	DB	0aH
	DB	028H
	DB	0aH
	DB	028H
	DB	0bH
	DB	028H
	DB	0aH
	DB	030H
	DB	0aH
	DB	028H
	DB	0bH
	DB	028H
	DB	0bH
	DB	028H
	DB	0bH
	DB	028H
	DB	0bH
	DB	028H
	DB	0bH
	DB	028H
	DB	0bH
	DB	028H
	DB	0bH
	DB	028H
	DB	0cH
	DB	028H
	DB	0cH
	DB	028H
	DB	0bH
	DB	028H
	DB	0cH
	DB	020H
	DB	0cH
	DB	020H
	DB	0cH
	DB	020H
	DB	0cH
	DB	020H
	DB	0cH
	DB	020H
	DB	0bH
	DB	020H
	DB	0cH
	DB	020H
	DB	0cH
	DB	020H
	DB	0cH
	DB	020H
	DB	0cH
	DB	020H
	DB	0cH
	DB	018H
	DB	0cH
	DB	020H
	DB	0dH
	DB	020H
	DB	0cH
	DB	018H
	DB	0cH
	DB	020H
	DB	0dH
	DB	020H
	DB	0dH
	DB	018H
	DB	0cH
	DB	018H
	DB	0dH
	DB	018H
	DB	0dH
	DB	018H
	DB	0dH
	DB	018H
	DB	0dH
	DB	018H
	DB	0dH
	DB	018H
	DB	0dH
	DB	018H
	DB	0dH
	DB	010H
	DB	0dH
	DB	010H
	DB	0eH
	DB	018H
	DB	0eH
	DB	010H
	DB	0dH
	DB	010H
	DB	0eH
	DB	010H
	DB	0eH
	DB	010H
	DB	0eH
	DB	010H
	DB	0eH
	DB	010H
	DB	0eH
	DB	010H
	DB	0eH
	DB	010H
	DB	0eH
	DB	010H
	DB	0eH
	DB	010H
	DB	0eH
	DB	010H
	DB	0eH
	DB	010H
	DB	0eH
	DB	08H
	DB	0fH
	DB	010H
	DB	0fH
	DB	08H
	DB	0eH
	DB	08H
	DB	0fH
	DB	08H
	DB	0fH
	DB	010H
	DB	0fH
	DB	08H
	DB	0fH
	DB	08H
	DB	0fH
	DB	08H
	DB	0fH
	DB	08H
	DB	0fH
	DB	08H
	DB	010H
	DB	08H
	DB	0fH
	DB	08H
	DB	010H
	DB	00H
	DB	0fH
	DB	08H
	DB	010H
	DB	00H
	DB	010H
	DB	00H
	DB	0fH
	DB	00H
	DB	010H
	DB	08H
	DB	010H
	DB	00H
	DB	010H
	DB	00H
	DB	010H
	DB	00H
	DB	00H
	DB	04H
	DB	00H
	DB	04H
	DB	0e0H
	DB	03H
	DB	0e0H
	DB	0bH
	DB	00H
	DB	04H
	DB	0e0H
	DB	03H
	DB	0e0H
	DB	0bH
	DB	0e0H
	DB	03H
	DB	0e0H
	DB	03H
	DB	0e0H
	DB	0bH
	DB	0e0H
	DB	0bH
	DB	0c0H
	DB	0bH
	DB	0c0H
	DB	0bH
	DB	0e0H
	DB	0bH
	DB	0c0H
	DB	0bH
	DB	0c0H
	DB	0bH
	DB	0c0H
	DB	0bH
	DB	0c0H
	DB	0bH
	DB	0c0H
	DB	0bH
	DB	0a0H
	DB	0bH
	DB	0a0H
	DB	0bH
	DB	0a0H
	DB	013H
	DB	0a0H
	DB	013H
	DB	0a0H
	DB	0bH
	DB	0a0H
	DB	013H
	DB	0a0H
	DB	013H
	DB	080H
	DB	0bH
	DB	080H
	DB	013H
	DB	0a0H
	DB	013H
	DB	080H
	DB	013H
	DB	080H
	DB	013H
	DB	080H
	DB	013H
	DB	080H
	DB	013H
	DB	060H
	DB	013H
	DB	080H
	DB	01bH
	DB	060H
	DB	01bH
	DB	060H
	DB	013H
	DB	060H
	DB	013H
	DB	060H
	DB	01bH
	DB	060H
	DB	013H
	DB	060H
	DB	01bH
	DB	060H
	DB	01bH
	DB	040H
	DB	01bH
	DB	040H
	DB	01bH
	DB	040H
	DB	01bH
	DB	040H
	DB	01bH
	DB	040H
	DB	01bH
	DB	040H
	DB	01bH
	DB	040H
	DB	01bH
	DB	020H
	DB	023H
	DB	020H
	DB	01bH
	DB	020H
	DB	023H
	DB	020H
	DB	023H
	DB	020H
	DB	023H
	DB	020H
	DB	01bH
	DB	020H
	DB	023H
	DB	00H
	DB	023H
	DB	00H
	DB	023H
	DB	00H
	DB	023H
	DB	00H
	DB	023H
	DB	00H
	DB	023H
	DB	00H
	DB	023H
	DB	0e0H
	DB	022H
	DB	00H
	DB	023H
	DB	00H
	DB	023H
	DB	0e0H
	DB	02aH
	DB	0e0H
	DB	022H
	DB	0e0H
	DB	022H
	DB	0e0H
	DB	02aH
	DB	0e0H
	DB	02aH
	DB	0c0H
	DB	02aH
	DB	0c0H
	DB	02aH
	DB	0c0H
	DB	02aH
	DB	0c0H
	DB	02aH
	DB	0c0H
	DB	02aH
	DB	0c0H
	DB	02aH
	DB	0c0H
	DB	02aH
	DB	0a0H
	DB	02aH
	DB	0a0H
	DB	02aH
	DB	0a0H
	DB	032H
	DB	0a0H
	DB	02aH
	DB	0a0H
	DB	032H
	DB	0a0H
	DB	032H
	DB	0a0H
	DB	032H
	DB	080H
	DB	02aH
	DB	0a0H
	DB	032H
	DB	080H
	DB	032H
	DB	080H
	DB	032H
	DB	080H
	DB	032H
	DB	080H
	DB	032H
	DB	080H
	DB	032H
	DB	060H
	DB	032H
	DB	060H
	DB	032H
	DB	060H
	DB	032H
	DB	060H
	DB	032H
	DB	060H
	DB	032H
	DB	060H
	DB	03aH
	DB	060H
	DB	03aH
	DB	060H
	DB	032H
	DB	060H
	DB	03aH
	DB	040H
	DB	03aH
	DB	040H
	DB	032H
	DB	040H
	DB	03aH
	DB	040H
	DB	03aH
	DB	040H
	DB	03aH
	DB	040H
	DB	03aH
	DB	020H
	DB	03aH
	DB	020H
	DB	03aH
	DB	020H
	DB	03aH
	DB	020H
	DB	042H
	DB	020H
	DB	03aH
	DB	020H
	DB	042H
	DB	020H
	DB	042H
	DB	00H
	DB	03aH
	DB	00H
	DB	042H
	DB	00H
	DB	042H
	DB	00H
	DB	042H
	DB	00H
	DB	042H
	DB	00H
	DB	042H
	DB	00H
	DB	042H
	DB	00H
	DB	042H
	DB	0e0H
	DB	041H
	DB	00H
	DB	04aH
	DB	0e0H
	DB	041H
	DB	0e0H
	DB	041H
	DB	0e0H
	DB	049H
	DB	0e0H
	DB	041H
	DB	0e0H
	DB	041H
	DB	0c0H
	DB	049H
	DB	0c0H
	DB	041H
	DB	0e0H
	DB	049H
	DB	0c0H
	DB	049H
	DB	0c0H
	DB	049H
	DB	0c0H
	DB	049H
	DB	0c0H
	DB	049H
	DB	0c0H
	DB	049H
	DB	0c0H
	DB	049H
	DB	0c0H
	DB	049H
	DB	0a0H
	DB	051H
	DB	0a0H
	DB	049H
	DB	0a0H
	DB	049H
	DB	0a0H
	DB	051H
	DB	0a0H
	DB	051H
	DB	080H
	DB	049H
	DB	080H
	DB	051H
	DB	0a0H
	DB	051H
	DB	080H
	DB	051H
	DB	080H
	DB	051H
	DB	080H
	DB	051H
	DB	080H
	DB	051H
	DB	080H
	DB	051H
	DB	060H
	DB	059H
	DB	080H
	DB	059H
	DB	060H
	DB	051H
	DB	060H
	DB	051H
	DB	060H
	DB	059H
	DB	060H
	DB	059H
	DB	060H
	DB	051H
	DB	040H
	DB	051H
	DB	060H
	DB	059H
	DB	040H
	DB	059H
	DB	060H
	DB	059H
	DB	040H
	DB	059H
	DB	040H
	DB	059H
	DB	040H
	DB	059H
	DB	040H
	DB	059H
	DB	020H
	DB	059H
	DB	040H
	DB	061H
	DB	020H
	DB	059H
	DB	020H
	DB	059H
	DB	020H
	DB	061H
	DB	020H
	DB	059H
	DB	020H
	DB	059H
	DB	00H
	DB	061H
	DB	020H
	DB	061H
	DB	020H
	DB	061H
	DB	00H
	DB	061H
	DB	00H
	DB	061H
	DB	00H
	DB	061H
	DB	00H
	DB	061H
	DB	00H
	DB	061H
	DB	00H
	DB	061H
	DB	0e0H
	DB	060H
	DB	0e0H
	DB	060H
	DB	0e0H
	DB	060H
	DB	0e0H
	DB	068H
	DB	0e0H
	DB	060H
	DB	0e0H
	DB	060H
	DB	0c0H
	DB	068H
	DB	0e0H
	DB	068H
	DB	0e0H
	DB	060H
	DB	0c0H
	DB	068H
	DB	0c0H
	DB	068H
	DB	0c0H
	DB	068H
	DB	0c0H
	DB	068H
	DB	0c0H
	DB	068H
	DB	0c0H
	DB	068H
	DB	0a0H
	DB	068H
	DB	0a0H
	DB	068H
	DB	0c0H
	DB	068H
	DB	0a0H
	DB	068H
	DB	0a0H
	DB	070H
	DB	0a0H
	DB	068H
	DB	080H
	DB	070H
	DB	0a0H
	DB	070H
	DB	0a0H
	DB	070H
	DB	0a0H
	DB	070H
	DB	080H
	DB	070H
	DB	080H
	DB	070H
	DB	080H
	DB	070H
	DB	080H
	DB	070H
	DB	080H
	DB	070H
	DB	060H
	DB	070H
	DB	060H
	DB	070H
	DB	060H
	DB	078H
	DB	060H
	DB	078H
	DB	060H
	DB	070H
	DB	060H
	DB	078H
	DB	060H
	DB	078H
	DB	060H
	DB	078H
	DB	040H
	DB	070H
	DB	040H
	DB	078H
	DB	040H
	DB	078H
	DB	040H
	DB	078H
	DB	040H
	DB	078H
	DB	040H
	DB	078H
	DB	040H
	DB	078H
	DB	020H
	DB	078H
	DB	020H
	DB	080H
	DB	040H
	DB	078H
	DB	020H
	DB	078H
	DB	020H
	DB	080H
	DB	020H
	DB	080H
	DB	020H
	DB	078H
	DB	00H
	DB	080H
	DB	00H
	DB	080H
	DB	00H
	DB	078H
	DB	00H
	DB	080H
	DB	00H
	DB	080H
	DB	00H
	DB	080H
	DB	00H
	DB	080H
	DB	00H
	DB	080H
	DB	00H
	DB	080H
	DB	00H
	DB	080H
	DB	00H
	DB	080H
	DB	00H
	DB	078H
	DB	01H
	DB	080H
	DB	00H
	DB	080H
	DB	00H
	DB	078H
	DB	01H
	DB	078H
	DB	01H
	DB	080H
	DB	01H
	DB	078H
	DB	01H
	DB	078H
	DB	01H
	DB	078H
	DB	01H
	DB	078H
	DB	01H
	DB	078H
	DB	01H
	DB	078H
	DB	01H
	DB	078H
	DB	01H
	DB	078H
	DB	01H
	DB	070H
	DB	02H
	DB	078H
	DB	02H
	DB	078H
	DB	01H
	DB	078H
	DB	02H
	DB	070H
	DB	02H
	DB	070H
	DB	01H
	DB	078H
	DB	02H
	DB	070H
	DB	02H
	DB	078H
	DB	02H
	DB	070H
	DB	02H
	DB	070H
	DB	01H
	DB	070H
	DB	02H
	DB	070H
	DB	02H
	DB	070H
	DB	02H
	DB	070H
	DB	02H
	DB	070H
	DB	02H
	DB	070H
	DB	02H
	DB	070H
	DB	03H
	DB	068H
	DB	02H
	DB	070H
	DB	02H
	DB	070H
	DB	03H
	DB	068H
	DB	02H
	DB	070H
	DB	03H
	DB	068H
	DB	03H
	DB	070H
	DB	03H
	DB	068H
	DB	03H
	DB	068H
	DB	03H
	DB	068H
	DB	03H
	DB	068H
	DB	03H
	DB	068H
	DB	03H
	DB	068H
	DB	03H
	DB	068H
	DB	03H
	DB	068H
	DB	03H
	DB	068H
	DB	04H
	DB	068H
	DB	03H
	DB	060H
	DB	03H
	DB	068H
	DB	03H
	DB	068H
	DB	03H
	DB	060H
	DB	04H
	DB	068H
	DB	04H
	DB	060H
	DB	04H
	DB	060H
	DB	04H
	DB	068H
	DB	04H
	DB	060H
	DB	04H
	DB	060H
	DB	04H
	DB	060H
	DB	04H
	DB	060H
	DB	04H
	DB	060H
	DB	04H
	DB	060H
	DB	04H
	DB	060H
	DB	04H
	DB	060H
	DB	04H
	DB	058H
	DB	05H
	DB	060H
	DB	04H
	DB	060H
	DB	05H
	DB	058H
	DB	04H
	DB	060H
	DB	04H
	DB	060H
	DB	05H
	DB	058H
	DB	05H
	DB	058H
	DB	05H
	DB	058H
	DB	05H
	DB	058H
	DB	05H
	DB	058H
	DB	05H
	DB	058H
	DB	05H
	DB	058H
	DB	05H
	DB	058H
	DB	05H
	DB	058H
	DB	05H
	DB	050H
	DB	06H
	DB	058H
	DB	05H
	DB	058H
	DB	05H
	DB	058H
	DB	05H
	DB	050H
	DB	06H
	DB	058H
	DB	05H
	DB	050H
	DB	06H
	DB	050H
	DB	06H
	DB	058H
	DB	06H
	DB	050H
	DB	06H
	DB	050H
	DB	06H
	DB	050H
	DB	06H
	DB	050H
	DB	06H
	DB	050H
	DB	06H
	DB	050H
	DB	06H
	DB	050H
	DB	06H
	DB	050H
	DB	06H
	DB	050H
	DB	07H
	DB	050H
	DB	06H
	DB	050H
	DB	06H
	DB	048H
	DB	07H
	DB	050H
	DB	07H
	DB	048H
	DB	06H
	DB	050H
	DB	07H
	DB	048H
	DB	07H
	DB	048H
	DB	06H
	DB	048H
	DB	07H
	DB	050H
	DB	07H
	DB	048H
	DB	07H
	DB	048H
	DB	07H
	DB	048H
	DB	07H
	DB	048H
	DB	07H
	DB	048H
	DB	07H
	DB	048H
	DB	07H
	DB	048H
	DB	07H
	DB	040H
	DB	08H
	DB	048H
	DB	07H
	DB	048H
	DB	08H
	DB	040H
	DB	08H
	DB	040H
	DB	07H
	DB	040H
	DB	08H
	DB	048H
	DB	08H
	DB	040H
	DB	08H
	DB	040H
	DB	08H
	DB	048H
	DB	08H
	DB	040H
	DB	08H
	DB	040H
	DB	08H
	DB	040H
	DB	08H
	DB	040H
	DB	08H
	DB	040H
	DB	08H
	DB	040H
	DB	09H
	DB	040H
	DB	08H
	DB	038H
	DB	09H
	DB	038H
	DB	08H
	DB	040H
	DB	08H
	DB	038H
	DB	09H
	DB	040H
	DB	08H
	DB	038H
	DB	09H
	DB	038H
	DB	09H
	DB	038H
	DB	09H
	DB	038H
	DB	09H
	DB	038H
	DB	09H
	DB	038H
	DB	09H
	DB	038H
	DB	09H
	DB	030H
	DB	09H
	DB	038H
	DB	0aH
	DB	038H
	DB	09H
	DB	030H
	DB	09H
	DB	038H
	DB	0aH
	DB	038H
	DB	0aH
	DB	030H
	DB	0aH
	DB	030H
	DB	0aH
	DB	030H
	DB	0aH
	DB	030H
	DB	0aH
	DB	030H
	DB	0aH
	DB	030H
	DB	0aH
	DB	030H
	DB	0aH
	DB	030H
	DB	0bH
	DB	030H
	DB	0aH
	DB	030H
	DB	0bH
	DB	030H
	DB	0bH
	DB	030H
	DB	0bH
	DB	028H
	DB	0aH
	DB	028H
	DB	0bH
	DB	030H
	DB	0bH
	DB	028H
	DB	0bH
	DB	028H
	DB	0bH
	DB	028H
	DB	0bH
	DB	028H
	DB	0bH
	DB	028H
	DB	0bH
	DB	028H
	DB	0bH
	DB	028H
	DB	0cH
	DB	020H
	DB	0bH
	DB	020H
	DB	0bH
	DB	028H
	DB	0cH
	DB	028H
	DB	0bH
	DB	020H
	DB	0cH
	DB	020H
	DB	0cH
	DB	028H
	DB	0cH
	DB	020H
	DB	0cH
	DB	020H
	DB	0cH
	DB	020H
	DB	0cH
	DB	020H
	DB	0dH
	DB	020H
	DB	0dH
	DB	020H
	DB	0cH
	DB	018H
	DB	0dH
	DB	018H
	DB	0dH
	DB	020H
	DB	0cH
	DB	018H
	DB	0dH
	DB	018H
	DB	0dH
	DB	020H
	DB	0cH
	DB	018H
	DB	0dH
	DB	018H
	DB	0dH
	DB	018H
	DB	0dH
	DB	018H
	DB	0dH
	DB	018H
	DB	0dH
	DB	018H
	DB	0dH
	DB	018H
	DB	0dH
	DB	018H
	DB	0eH
	DB	018H
	DB	0dH
	DB	018H
	DB	0dH
	DB	010H
	DB	0eH
	DB	010H
	DB	0eH
	DB	018H
	DB	0dH
	DB	010H
	DB	0eH
	DB	018H
	DB	0eH
	DB	010H
	DB	0eH
	DB	010H
	DB	0eH
	DB	010H
	DB	0eH
	DB	010H
	DB	0eH
	DB	010H
	DB	0fH
	DB	08H
	DB	0eH
	DB	010H
	DB	0eH
	DB	010H
	DB	0fH
	DB	08H
	DB	0eH
	DB	08H
	DB	0fH
	DB	08H
	DB	0fH
	DB	010H
	DB	0fH
	DB	08H
	DB	0fH
	DB	08H
	DB	0fH
	DB	08H
	DB	0fH
	DB	08H
	DB	0fH
	DB	08H
	DB	0fH
	DB	08H
	DB	0fH
	DB	08H
	DB	0fH
	DB	00H
	DB	010H
	DB	08H
	DB	010H
	DB	00H
	DB	0fH
	DB	00H
	DB	010H
	DB	08H
	DB	0fH
	DB	08H
	DB	010H
	DB	00H
	DB	010H
	DB	00H
	DB	010H
	DB	00H
	DB	010H
	DB	00H
	DB	00H
	DB	04H
	DB	00H
	DB	04H
	DB	00H
	DB	04H
	DB	00H
	DB	04H
	DB	00H
	DB	04H
	DB	00H
	DB	0cH
	DB	0e0H
	DB	03H
	DB	0e0H
	DB	0bH
	DB	0e0H
	DB	03H
	DB	0e0H
	DB	03H
	DB	0e0H
	DB	0bH
	DB	0c0H
	DB	0bH
	DB	0c0H
	DB	03H
	DB	0c0H
	DB	0bH
	DB	0e0H
	DB	0bH
	DB	0c0H
	DB	0bH
	DB	0c0H
	DB	0bH
	DB	0c0H
	DB	0bH
	DB	0c0H
	DB	0bH
	DB	0a0H
	DB	0bH
	DB	0c0H
	DB	0bH
	DB	0a0H
	DB	013H
	DB	0a0H
	DB	0bH
	DB	0a0H
	DB	013H
	DB	0a0H
	DB	013H
	DB	080H
	DB	013H
	DB	080H
	DB	013H
	DB	080H
	DB	013H
	DB	080H
	DB	013H
	DB	080H
	DB	013H
	DB	080H
	DB	013H
	DB	080H
	DB	013H
	DB	080H
	DB	013H
	DB	060H
	DB	013H
	DB	080H
	DB	01bH
	DB	080H
	DB	013H
	DB	060H
	DB	01bH
	DB	060H
	DB	01bH
	DB	060H
	DB	013H
	DB	060H
	DB	01bH
	DB	060H
	DB	01bH
	DB	040H
	DB	013H
	DB	040H
	DB	013H
	DB	060H
	DB	01bH
	DB	040H
	DB	01bH
	DB	040H
	DB	01bH
	DB	040H
	DB	01bH
	DB	020H
	DB	01bH
	DB	040H
	DB	023H
	DB	040H
	DB	01bH
	DB	020H
	DB	023H
	DB	020H
	DB	01bH
	DB	020H
	DB	01bH
	DB	020H
	DB	023H
	DB	020H
	DB	023H
	DB	00H
	DB	023H
	DB	020H
	DB	023H
	DB	00H
	DB	01bH
	DB	00H
	DB	023H
	DB	00H
	DB	023H
	DB	00H
	DB	023H
	DB	00H
	DB	023H
	DB	0e0H
	DB	022H
	DB	0e0H
	DB	022H
	DB	0e0H
	DB	02aH
	DB	0e0H
	DB	022H
	DB	0e0H
	DB	02aH
	DB	0e0H
	DB	022H
	DB	0e0H
	DB	02aH
	DB	0c0H
	DB	02aH
	DB	0e0H
	DB	022H
	DB	0e0H
	DB	02aH
	DB	0c0H
	DB	02aH
	DB	0c0H
	DB	02aH
	DB	0c0H
	DB	02aH
	DB	0c0H
	DB	02aH
	DB	0c0H
	DB	02aH
	DB	0a0H
	DB	032H
	DB	0c0H
	DB	02aH
	DB	0a0H
	DB	02aH
	DB	0a0H
	DB	032H
	DB	0a0H
	DB	02aH
	DB	0a0H
	DB	02aH
	DB	0a0H
	DB	032H
	DB	0a0H
	DB	02aH
	DB	080H
	DB	032H
	DB	080H
	DB	032H
	DB	080H
	DB	032H
	DB	080H
	DB	032H
	DB	080H
	DB	032H
	DB	080H
	DB	032H
	DB	080H
	DB	032H
	DB	060H
	DB	03aH
	DB	060H
	DB	03aH
	DB	080H
	DB	032H
	DB	060H
	DB	03aH
	DB	060H
	DB	032H
	DB	060H
	DB	03aH
	DB	060H
	DB	03aH
	DB	040H
	DB	032H
	DB	040H
	DB	03aH
	DB	040H
	DB	03aH
	DB	040H
	DB	03aH
	DB	040H
	DB	03aH
	DB	040H
	DB	03aH
	DB	040H
	DB	03aH
	DB	040H
	DB	03aH
	DB	020H
	DB	042H
	DB	020H
	DB	03aH
	DB	020H
	DB	03aH
	DB	020H
	DB	042H
	DB	020H
	DB	03aH
	DB	020H
	DB	042H
	DB	00H
	DB	03aH
	DB	020H
	DB	042H
	DB	020H
	DB	042H
	DB	00H
	DB	042H
	DB	00H
	DB	042H
	DB	00H
	DB	042H
	DB	00H
	DB	042H
	DB	00H
	DB	042H
	DB	00H
	DB	042H
	DB	0e0H
	DB	041H
	DB	0e0H
	DB	041H
	DB	0e0H
	DB	049H
	DB	0e0H
	DB	049H
	DB	0e0H
	DB	041H
	DB	0e0H
	DB	049H
	DB	0e0H
	DB	049H
	DB	0c0H
	DB	049H
	DB	0e0H
	DB	041H
	DB	0c0H
	DB	049H
	DB	0c0H
	DB	049H
	DB	0c0H
	DB	049H
	DB	0c0H
	DB	049H
	DB	0a0H
	DB	049H
	DB	0a0H
	DB	049H
	DB	0a0H
	DB	049H
	DB	0a0H
	DB	049H
	DB	0a0H
	DB	051H
	DB	0a0H
	DB	049H
	DB	0a0H
	DB	051H
	DB	0a0H
	DB	049H
	DB	0a0H
	DB	049H
	DB	080H
	DB	051H
	DB	080H
	DB	051H
	DB	080H
	DB	051H
	DB	080H
	DB	051H
	DB	080H
	DB	051H
	DB	080H
	DB	051H
	DB	060H
	DB	051H
	DB	080H
	DB	051H
	DB	080H
	DB	051H
	DB	060H
	DB	059H
	DB	060H
	DB	051H
	DB	060H
	DB	059H
	DB	060H
	DB	059H
	DB	060H
	DB	059H
	DB	060H
	DB	051H
	DB	060H
	DB	059H
	DB	060H
	DB	059H
	DB	040H
	DB	059H
	DB	040H
	DB	059H
	DB	040H
	DB	059H
	DB	040H
	DB	059H
	DB	040H
	DB	059H
	DB	020H
	DB	059H
	DB	040H
	DB	061H
	DB	040H
	DB	059H
	DB	020H
	DB	059H
	DB	020H
	DB	061H
	DB	020H
	DB	059H
	DB	020H
	DB	061H
	DB	00H
	DB	059H
	DB	020H
	DB	059H
	DB	020H
	DB	061H
	DB	020H
	DB	061H
	DB	00H
	DB	061H
	DB	00H
	DB	061H
	DB	00H
	DB	061H
	DB	00H
	DB	061H
	DB	0e0H
	DB	060H
	DB	00H
	DB	069H
	DB	00H
	DB	061H
	DB	0e0H
	DB	060H
	DB	0e0H
	DB	068H
	DB	0e0H
	DB	068H
	DB	0e0H
	DB	068H
	DB	0e0H
	DB	068H
	DB	0c0H
	DB	060H
	DB	0c0H
	DB	068H
	DB	0c0H
	DB	068H
	DB	0c0H
	DB	068H
	DB	0c0H
	DB	068H
	DB	0c0H
	DB	068H
	DB	0c0H
	DB	068H
	DB	0a0H
	DB	070H
	DB	0a0H
	DB	068H
	DB	0c0H
	DB	070H
	DB	0a0H
	DB	070H
	DB	0a0H
	DB	068H
	DB	0a0H
	DB	070H
	DB	0a0H
	DB	070H
	DB	080H
	DB	068H
	DB	0a0H
	DB	068H
	DB	080H
	DB	070H
	DB	080H
	DB	070H
	DB	080H
	DB	070H
	DB	080H
	DB	070H
	DB	080H
	DB	070H
	DB	080H
	DB	070H
	DB	080H
	DB	070H
	DB	080H
	DB	070H
	DB	080H
	DB	070H
	DB	060H
	DB	070H
	DB	060H
	DB	078H
	DB	060H
	DB	070H
	DB	060H
	DB	078H
	DB	060H
	DB	070H
	DB	040H
	DB	078H
	DB	040H
	DB	078H
	DB	040H
	DB	078H
	DB	040H
	DB	078H
	DB	040H
	DB	078H
	DB	040H
	DB	078H
	DB	040H
	DB	078H
	DB	040H
	DB	078H
	DB	020H
	DB	080H
	DB	020H
	DB	078H
	DB	020H
	DB	078H
	DB	020H
	DB	078H
	DB	020H
	DB	080H
	DB	020H
	DB	078H
	DB	020H
	DB	080H
	DB	020H
	DB	080H
	DB	020H
	DB	080H
	DB	00H
	DB	080H
	DB	00H
	DB	080H
	DB	00H
	DB	080H
	DB	00H
	DB	080H
	DB	00H
	DB	080H
	DB	00H
	DB	080H
	DB	01H
	DB	080H
	DB	00H
	DB	078H
	DB	00H
	DB	080H
	DB	01H
	DB	080H
	DB	01H
	DB	078H
	DB	00H
	DB	080H
	DB	01H
	DB	078H
	DB	01H
	DB	078H
	DB	00H
	DB	080H
	DB	00H
	DB	078H
	DB	01H
	DB	078H
	DB	01H
	DB	078H
	DB	01H
	DB	078H
	DB	01H
	DB	078H
	DB	01H
	DB	078H
	DB	01H
	DB	078H
	DB	01H
	DB	078H
	DB	01H
	DB	078H
	DB	01H
	DB	070H
	DB	01H
	DB	070H
	DB	01H
	DB	078H
	DB	02H
	DB	078H
	DB	01H
	DB	070H
	DB	02H
	DB	070H
	DB	01H
	DB	078H
	DB	02H
	DB	070H
	DB	02H
	DB	070H
	DB	02H
	DB	078H
	DB	02H
	DB	070H
	DB	02H
	DB	070H
	DB	02H
	DB	070H
	DB	02H
	DB	070H
	DB	02H
	DB	070H
	DB	02H
	DB	070H
	DB	02H
	DB	070H
	DB	02H
	DB	070H
	DB	03H
	DB	068H
	DB	02H
	DB	070H
	DB	03H
	DB	070H
	DB	02H
	DB	068H
	DB	02H
	DB	068H
	DB	03H
	DB	070H
	DB	03H
	DB	068H
	DB	02H
	DB	068H
	DB	02H
	DB	068H
	DB	03H
	DB	068H
	DB	03H
	DB	068H
	DB	03H
	DB	068H
	DB	03H
	DB	068H
	DB	03H
	DB	068H
	DB	03H
	DB	068H
	DB	04H
	DB	060H
	DB	03H
	DB	068H
	DB	03H
	DB	060H
	DB	04H
	DB	060H
	DB	03H
	DB	068H
	DB	03H
	DB	060H
	DB	04H
	DB	060H
	DB	03H
	DB	060H
	DB	03H
	DB	068H
	DB	04H
	DB	060H
	DB	04H
	DB	060H
	DB	04H
	DB	068H
	DB	04H
	DB	060H
	DB	04H
	DB	060H
	DB	04H
	DB	060H
	DB	04H
	DB	060H
	DB	05H
	DB	060H
	DB	04H
	DB	058H
	DB	04H
	DB	060H
	DB	05H
	DB	060H
	DB	04H
	DB	058H
	DB	05H
	DB	058H
	DB	05H
	DB	058H
	DB	04H
	DB	060H
	DB	05H
	DB	060H
	DB	05H
	DB	058H
	DB	05H
	DB	058H
	DB	05H
	DB	058H
	DB	05H
	DB	058H
	DB	05H
	DB	058H
	DB	05H
	DB	058H
	DB	05H
	DB	058H
	DB	05H
	DB	058H
	DB	05H
	DB	050H
	DB	05H
	DB	058H
	DB	06H
	DB	050H
	DB	06H
	DB	058H
	DB	05H
	DB	058H
	DB	05H
	DB	050H
	DB	06H
	DB	058H
	DB	06H
	DB	050H
	DB	05H
	DB	050H
	DB	06H
	DB	050H
	DB	05H
	DB	050H
	DB	06H
	DB	050H
	DB	06H
	DB	050H
	DB	06H
	DB	050H
	DB	06H
	DB	050H
	DB	06H
	DB	050H
	DB	06H
	DB	050H
	DB	06H
	DB	050H
	DB	06H
	DB	050H
	DB	07H
	DB	050H
	DB	06H
	DB	048H
	DB	06H
	DB	050H
	DB	07H
	DB	048H
	DB	07H
	DB	050H
	DB	06H
	DB	048H
	DB	07H
	DB	048H
	DB	07H
	DB	048H
	DB	07H
	DB	048H
	DB	07H
	DB	048H
	DB	07H
	DB	048H
	DB	07H
	DB	048H
	DB	07H
	DB	048H
	DB	07H
	DB	048H
	DB	07H
	DB	048H
	DB	08H
	DB	040H
	DB	07H
	DB	048H
	DB	07H
	DB	048H
	DB	08H
	DB	048H
	DB	08H
	DB	048H
	DB	07H
	DB	040H
	DB	08H
	DB	040H
	DB	07H
	DB	040H
	DB	08H
	DB	048H
	DB	08H
	DB	040H
	DB	08H
	DB	040H
	DB	08H
	DB	040H
	DB	08H
	DB	040H
	DB	08H
	DB	040H
	DB	08H
	DB	040H
	DB	08H
	DB	038H
	DB	08H
	DB	040H
	DB	09H
	DB	040H
	DB	08H
	DB	038H
	DB	09H
	DB	040H
	DB	09H
	DB	040H
	DB	08H
	DB	038H
	DB	09H
	DB	040H
	DB	09H
	DB	038H
	DB	09H
	DB	038H
	DB	09H
	DB	038H
	DB	09H
	DB	038H
	DB	09H
	DB	038H
	DB	09H
	DB	038H
	DB	0aH
	DB	030H
	DB	09H
	DB	038H
	DB	09H
	DB	038H
	DB	0aH
	DB	030H
	DB	0aH
	DB	030H
	DB	09H
	DB	038H
	DB	0aH
	DB	030H
	DB	0aH
	DB	030H
	DB	0aH
	DB	030H
	DB	0aH
	DB	030H
	DB	0aH
	DB	030H
	DB	0aH
	DB	030H
	DB	0aH
	DB	030H
	DB	0aH
	DB	028H
	DB	0aH
	DB	028H
	DB	0aH
	DB	030H
	DB	0bH
	DB	028H
	DB	0aH
	DB	028H
	DB	0bH
	DB	028H
	DB	0bH
	DB	030H
	DB	0bH
	DB	028H
	DB	0aH
	DB	028H
	DB	0bH
	DB	028H
	DB	0bH
	DB	028H
	DB	0bH
	DB	028H
	DB	0bH
	DB	028H
	DB	0bH
	DB	028H
	DB	0bH
	DB	028H
	DB	0bH
	DB	020H
	DB	0cH
	DB	028H
	DB	0bH
	DB	028H
	DB	0cH
	DB	020H
	DB	0bH
	DB	020H
	DB	0cH
	DB	028H
	DB	0cH
	DB	020H
	DB	0cH
	DB	020H
	DB	0cH
	DB	020H
	DB	0cH
	DB	020H
	DB	0cH
	DB	020H
	DB	0cH
	DB	020H
	DB	0cH
	DB	020H
	DB	0cH
	DB	020H
	DB	0cH
	DB	018H
	DB	0dH
	DB	020H
	DB	0dH
	DB	018H
	DB	0cH
	DB	018H
	DB	0dH
	DB	018H
	DB	0dH
	DB	018H
	DB	0dH
	DB	018H
	DB	0dH
	DB	018H
	DB	0dH
	DB	018H
	DB	0dH
	DB	018H
	DB	0dH
	DB	018H
	DB	0dH
	DB	010H
	DB	0eH
	DB	010H
	DB	0dH
	DB	018H
	DB	0eH
	DB	010H
	DB	0dH
	DB	018H
	DB	0eH
	DB	018H
	DB	0eH
	DB	010H
	DB	0eH
	DB	010H
	DB	0eH
	DB	010H
	DB	0eH
	DB	010H
	DB	0eH
	DB	010H
	DB	0eH
	DB	010H
	DB	0eH
	DB	010H
	DB	0eH
	DB	010H
	DB	0fH
	DB	08H
	DB	0eH
	DB	010H
	DB	0eH
	DB	010H
	DB	0fH
	DB	08H
	DB	0eH
	DB	010H
	DB	0fH
	DB	08H
	DB	0fH
	DB	08H
	DB	0eH
	DB	08H
	DB	0fH
	DB	08H
	DB	0fH
	DB	08H
	DB	0fH
	DB	08H
	DB	0fH
	DB	08H
	DB	0fH
	DB	08H
	DB	0fH
	DB	00H
	DB	0fH
	DB	08H
	DB	0fH
	DB	00H
	DB	010H
	DB	08H
	DB	010H
	DB	08H
	DB	010H
	DB	00H
	DB	010H
	DB	00H
	DB	010H
	DB	00H
	DB	010H
	DB	00H
	DB	010H
	DB	00H
	DB	010H
	DB	00H
	DB	00H
	DB	04H
	DB	00H
	DB	04H
	DB	00H
	DB	04H
	DB	0e0H
	DB	03H
	DB	00H
	DB	04H
	DB	0e0H
	DB	0bH
	DB	0e0H
	DB	03H
	DB	0e0H
	DB	03H
	DB	0e0H
	DB	0bH
	DB	0e0H
	DB	0bH
	DB	0e0H
	DB	0bH
	DB	0e0H
	DB	0bH
	DB	0e0H
	DB	03H
	DB	0c0H
	DB	0bH
	DB	0c0H
	DB	0bH
	DB	0c0H
	DB	0bH
	DB	0c0H
	DB	0bH
	DB	0c0H
	DB	0bH
	DB	0c0H
	DB	0bH
	DB	0a0H
	DB	013H
	DB	0c0H
	DB	0bH
	DB	0a0H
	DB	0bH
	DB	0a0H
	DB	013H
	DB	0a0H
	DB	0bH
	DB	0a0H
	DB	0bH
	DB	0a0H
	DB	0bH
	DB	0a0H
	DB	013H
	DB	080H
	DB	013H
	DB	080H
	DB	013H
	DB	080H
	DB	013H
	DB	080H
	DB	013H
	DB	080H
	DB	013H
	DB	080H
	DB	013H
	DB	060H
	DB	013H
	DB	060H
	DB	013H
	DB	060H
	DB	013H
	DB	060H
	DB	013H
	DB	060H
	DB	01bH
	DB	060H
	DB	01bH
	DB	060H
	DB	013H
	DB	060H
	DB	01bH
	DB	040H
	DB	01bH
	DB	060H
	DB	01bH
	DB	040H
	DB	01bH
	DB	040H
	DB	01bH
	DB	040H
	DB	01bH
	DB	040H
	DB	01bH
	DB	020H
	DB	01bH
	DB	020H
	DB	01bH
	DB	020H
	DB	01bH
	DB	020H
	DB	01bH
	DB	020H
	DB	023H
	DB	020H
	DB	01bH
	DB	020H
	DB	01bH
	DB	00H
	DB	023H
	DB	00H
	DB	01bH
	DB	00H
	DB	023H
	DB	00H
	DB	023H
	DB	00H
	DB	023H
	DB	00H
	DB	023H
	DB	00H
	DB	023H
	DB	00H
	DB	023H
	DB	00H
	DB	023H
	DB	00H
	DB	02bH
	DB	00H
	DB	023H
	DB	0e0H
	DB	02aH
	DB	0e0H
	DB	02aH
	DB	0e0H
	DB	02aH
	DB	0e0H
	DB	022H
	DB	0e0H
	DB	02aH
	DB	0c0H
	DB	02aH
	DB	0e0H
	DB	02aH
	DB	0c0H
	DB	02aH
	DB	0c0H
	DB	02aH
	DB	0c0H
	DB	02aH
	DB	0c0H
	DB	02aH
	DB	0c0H
	DB	02aH
	DB	0a0H
	DB	02aH
	DB	0a0H
	DB	02aH
	DB	0c0H
	DB	032H
	DB	0a0H
	DB	032H
	DB	0a0H
	DB	02aH
	DB	0a0H
	DB	032H
	DB	0a0H
	DB	032H
	DB	080H
	DB	032H
	DB	0a0H
	DB	02aH
	DB	080H
	DB	032H
	DB	080H
	DB	032H
	DB	080H
	DB	032H
	DB	080H
	DB	032H
	DB	080H
	DB	032H
	DB	060H
	DB	032H
	DB	080H
	DB	032H
	DB	060H
	DB	032H
	DB	060H
	DB	03aH
	DB	060H
	DB	032H
	DB	060H
	DB	03aH
	DB	060H
	DB	032H
	DB	040H
	DB	03aH
	DB	060H
	DB	03aH
	DB	060H
	DB	03aH
	DB	040H
	DB	03aH
	DB	040H
	DB	03aH
	DB	040H
	DB	03aH
	DB	040H
	DB	03aH
	DB	040H
	DB	03aH
	DB	020H
	DB	03aH
	DB	020H
	DB	042H
	DB	040H
	DB	03aH
	DB	020H
	DB	042H
	DB	020H
	DB	03aH
	DB	020H
	DB	042H
	DB	020H
	DB	042H
	DB	00H
	DB	03aH
	DB	020H
	DB	042H
	DB	00H
	DB	042H
	DB	00H
	DB	042H
	DB	00H
	DB	042H
	DB	00H
	DB	042H
	DB	00H
	DB	042H
	DB	0e0H
	DB	041H
	DB	0e0H
	DB	041H
	DB	00H
	DB	04aH
	DB	0e0H
	DB	041H
	DB	0e0H
	DB	041H
	DB	0e0H
	DB	049H
	DB	0e0H
	DB	041H
	DB	0e0H
	DB	049H
	DB	0e0H
	DB	049H
	DB	0c0H
	DB	049H
	DB	0e0H
	DB	049H
	DB	0c0H
	DB	049H
	DB	0c0H
	DB	049H
	DB	0c0H
	DB	049H
	DB	0c0H
	DB	049H
	DB	0c0H
	DB	049H
	DB	0c0H
	DB	051H
	DB	0c0H
	DB	049H
	DB	0a0H
	DB	051H
	DB	0a0H
	DB	049H
	DB	0a0H
	DB	051H
	DB	0a0H
	DB	049H
	DB	0a0H
	DB	051H
	DB	0a0H
	DB	051H
	DB	0a0H
	DB	051H
	DB	080H
	DB	049H
	DB	080H
	DB	051H
	DB	080H
	DB	051H
	DB	080H
	DB	051H
	DB	080H
	DB	051H
	DB	080H
	DB	051H
	DB	060H
	DB	051H
	DB	080H
	DB	051H
	DB	060H
	DB	051H
	DB	060H
	DB	051H
	DB	060H
	DB	051H
	DB	060H
	DB	059H
	DB	060H
	DB	059H
	DB	060H
	DB	059H
	DB	040H
	DB	059H
	DB	040H
	DB	051H
	DB	040H
	DB	059H
	DB	040H
	DB	059H
	DB	040H
	DB	059H
	DB	040H
	DB	059H
	DB	040H
	DB	059H
	DB	020H
	DB	059H
	DB	020H
	DB	059H
	DB	020H
	DB	059H
	DB	020H
	DB	061H
	DB	020H
	DB	061H
	DB	020H
	DB	061H
	DB	020H
	DB	061H
	DB	020H
	DB	061H
	DB	00H
	DB	061H
	DB	00H
	DB	061H
	DB	00H
	DB	061H
	DB	00H
	DB	061H
	DB	00H
	DB	061H
	DB	00H
	DB	061H
	DB	00H
	DB	061H
	DB	0e0H
	DB	060H
	DB	0e0H
	DB	060H
	DB	0e0H
	DB	068H
	DB	0e0H
	DB	060H
	DB	0e0H
	DB	068H
	DB	0e0H
	DB	068H
	DB	0e0H
	DB	060H
	DB	0c0H
	DB	068H
	DB	0e0H
	DB	068H
	DB	0e0H
	DB	068H
	DB	0c0H
	DB	068H
	DB	0c0H
	DB	068H
	DB	0c0H
	DB	068H
	DB	0c0H
	DB	068H
	DB	0c0H
	DB	068H
	DB	0a0H
	DB	068H
	DB	0c0H
	DB	068H
	DB	0c0H
	DB	068H
	DB	0a0H
	DB	070H
	DB	0a0H
	DB	068H
	DB	0a0H
	DB	070H
	DB	0a0H
	DB	070H
	DB	0a0H
	DB	068H
	DB	0a0H
	DB	070H
	DB	080H
	DB	070H
	DB	080H
	DB	070H
	DB	080H
	DB	070H
	DB	080H
	DB	070H
	DB	080H
	DB	070H
	DB	080H
	DB	070H
	DB	060H
	DB	070H
	DB	060H
	DB	078H
	DB	080H
	DB	078H
	DB	060H
	DB	070H
	DB	060H
	DB	070H
	DB	060H
	DB	078H
	DB	060H
	DB	078H
	DB	060H
	DB	070H
	DB	060H
	DB	078H
	DB	060H
	DB	078H
	DB	040H
	DB	078H
	DB	040H
	DB	078H
	DB	040H
	DB	078H
	DB	040H
	DB	078H
	DB	040H
	DB	078H
	DB	020H
	DB	078H
	DB	040H
	DB	078H
	DB	020H
	DB	078H
	DB	020H
	DB	080H
	DB	020H
	DB	080H
	DB	020H
	DB	078H
	DB	020H
	DB	078H
	DB	020H
	DB	080H
	DB	020H
	DB	080H
	DB	00H
	DB	078H
	DB	020H
	DB	080H
	DB	00H
	DB	080H
	DB	00H
	DB	080H
	DB	00H
	DB	080H
	DB	00H
	DB	078H
	DB	00H
	DB	080H
	DB	00H
	DB	080H
	DB	01H
	DB	078H
	DB	00H
	DB	080H
	DB	00H
	DB	080H
	DB	01H
	DB	078H
	DB	00H
	DB	078H
	DB	01H
	DB	080H
	DB	01H
	DB	078H
	DB	00H
	DB	078H
	DB	01H
	DB	078H
	DB	01H
	DB	078H
	DB	01H
	DB	078H
	DB	01H
	DB	078H
	DB	01H
	DB	078H
	DB	01H
	DB	078H
	DB	01H
	DB	078H
	DB	01H
	DB	078H
	DB	01H
	DB	078H
	DB	01H
	DB	078H
	DB	01H
	DB	070H
	DB	02H
	DB	078H
	DB	01H
	DB	078H
	DB	02H
	DB	070H
	DB	02H
	DB	070H
	DB	01H
	DB	078H
	DB	01H
	DB	070H
	DB	02H
	DB	070H
	DB	02H
	DB	078H
	DB	02H
	DB	070H
	DB	02H
	DB	070H
	DB	02H
	DB	070H
	DB	02H
	DB	070H
	DB	02H
	DB	070H
	DB	02H
	DB	070H
	DB	03H
	DB	070H
	DB	02H
	DB	070H
	DB	02H
	DB	068H
	DB	03H
	DB	070H
	DB	03H
	DB	068H
	DB	02H
	DB	070H
	DB	03H
	DB	068H
	DB	02H
	DB	068H
	DB	03H
	DB	070H
	DB	03H
	DB	068H
	DB	03H
	DB	068H
	DB	03H
	DB	070H
	DB	03H
	DB	068H
	DB	03H
	DB	068H
	DB	03H
	DB	068H
	DB	03H
	DB	068H
	DB	03H
	DB	068H
	DB	03H
	DB	068H
	DB	04H
	DB	068H
	DB	04H
	DB	068H
	DB	03H
	DB	060H
	DB	04H
	DB	068H
	DB	04H
	DB	068H
	DB	03H
	DB	060H
	DB	04H
	DB	068H
	DB	04H
	DB	060H
	DB	04H
	DB	060H
	DB	04H
	DB	060H
	DB	04H
	DB	060H
	DB	04H
	DB	060H
	DB	04H
	DB	060H
	DB	04H
	DB	060H
	DB	04H
	DB	060H
	DB	04H
	DB	060H
	DB	04H
	DB	060H
	DB	05H
	DB	058H
	DB	05H
	DB	060H
	DB	04H
	DB	060H
	DB	04H
	DB	058H
	DB	05H
	DB	060H
	DB	05H
	DB	058H
	DB	04H
	DB	058H
	DB	05H
	DB	058H
	DB	05H
	DB	060H
	DB	04H
	DB	058H
	DB	05H
	DB	058H
	DB	05H
	DB	058H
	DB	05H
	DB	058H
	DB	05H
	DB	058H
	DB	05H
	DB	058H
	DB	05H
	DB	058H
	DB	06H
	DB	058H
	DB	05H
	DB	058H
	DB	06H
	DB	050H
	DB	05H
	DB	050H
	DB	06H
	DB	058H
	DB	06H
	DB	050H
	DB	05H
	DB	058H
	DB	06H
	DB	050H
	DB	06H
	DB	058H
	DB	06H
	DB	050H
	DB	06H
	DB	050H
	DB	06H
	DB	050H
	DB	06H
	DB	050H
	DB	06H
	DB	050H
	DB	06H
	DB	050H
	DB	06H
	DB	050H
	DB	06H
	DB	048H
	DB	07H
	DB	050H
	DB	06H
	DB	048H
	DB	07H
	DB	048H
	DB	06H
	DB	050H
	DB	07H
	DB	050H
	DB	07H
	DB	048H
	DB	06H
	DB	048H
	DB	07H
	DB	050H
	DB	07H
	DB	048H
	DB	07H
	DB	048H
	DB	07H
	DB	048H
	DB	07H
	DB	048H
	DB	07H
	DB	048H
	DB	07H
	DB	048H
	DB	07H
	DB	048H
	DB	07H
	DB	048H
	DB	07H
	DB	048H
	DB	08H
	DB	040H
	DB	07H
	DB	040H
	DB	07H
	DB	048H
	DB	08H
	DB	040H
	DB	07H
	DB	048H
	DB	08H
	DB	040H
	DB	08H
	DB	040H
	DB	07H
	DB	040H
	DB	08H
	DB	040H
	DB	08H
	DB	040H
	DB	08H
	DB	040H
	DB	08H
	DB	040H
	DB	08H
	DB	040H
	DB	08H
	DB	040H
	DB	08H
	DB	040H
	DB	09H
	DB	040H
	DB	08H
	DB	040H
	DB	08H
	DB	040H
	DB	09H
	DB	038H
	DB	09H
	DB	038H
	DB	08H
	DB	038H
	DB	09H
	DB	038H
	DB	09H
	DB	038H
	DB	09H
	DB	038H
	DB	09H
	DB	038H
	DB	09H
	DB	038H
	DB	09H
	DB	038H
	DB	09H
	DB	038H
	DB	09H
	DB	030H
	DB	0aH
	DB	038H
	DB	0aH
	DB	038H
	DB	09H
	DB	030H
	DB	0aH
	DB	030H
	DB	0aH
	DB	030H
	DB	09H
	DB	038H
	DB	0aH
	DB	030H
	DB	0aH
	DB	030H
	DB	0aH
	DB	030H
	DB	0aH
	DB	030H
	DB	0aH
	DB	030H
	DB	0aH
	DB	030H
	DB	0aH
	DB	030H
	DB	0bH
	DB	030H
	DB	0aH
	DB	030H
	DB	0aH
	DB	028H
	DB	0aH
	DB	030H
	DB	0bH
	DB	028H
	DB	0bH
	DB	028H
	DB	0aH
	DB	028H
	DB	0bH
	DB	028H
	DB	0bH
	DB	028H
	DB	0bH
	DB	028H
	DB	0bH
	DB	028H
	DB	0bH
	DB	028H
	DB	0bH
	DB	028H
	DB	0cH
	DB	028H
	DB	0bH
	DB	020H
	DB	0cH
	DB	020H
	DB	0cH
	DB	028H
	DB	0cH
	DB	020H
	DB	0bH
	DB	020H
	DB	0cH
	DB	020H
	DB	0bH
	DB	020H
	DB	0cH
	DB	020H
	DB	0cH
	DB	020H
	DB	0cH
	DB	020H
	DB	0cH
	DB	020H
	DB	0cH
	DB	020H
	DB	0dH
	DB	020H
	DB	0cH
	DB	020H
	DB	0cH
	DB	018H
	DB	0dH
	DB	020H
	DB	0dH
	DB	018H
	DB	0cH
	DB	020H
	DB	0dH
	DB	018H
	DB	0dH
	DB	020H
	DB	0dH
	DB	018H
	DB	0dH
	DB	018H
	DB	0dH
	DB	018H
	DB	0dH
	DB	018H
	DB	0dH
	DB	018H
	DB	0dH
	DB	018H
	DB	0dH
	DB	018H
	DB	0eH
	DB	010H
	DB	0eH
	DB	010H
	DB	0eH
	DB	018H
	DB	0dH
	DB	010H
	DB	0eH
	DB	010H
	DB	0eH
	DB	010H
	DB	0dH
	DB	010H
	DB	0eH
	DB	010H
	DB	0eH
	DB	010H
	DB	0eH
	DB	010H
	DB	0eH
	DB	010H
	DB	0eH
	DB	010H
	DB	0eH
	DB	08H
	DB	0fH
	DB	010H
	DB	0fH
	DB	08H
	DB	0eH
	DB	08H
	DB	0fH
	DB	010H
	DB	0fH
	DB	010H
	DB	0fH
	DB	08H
	DB	0fH
	DB	08H
	DB	0fH
	DB	08H
	DB	0fH
	DB	08H
	DB	0fH
	DB	08H
	DB	0fH
	DB	08H
	DB	0fH
	DB	08H
	DB	010H
	DB	08H
	DB	0fH
	DB	00H
	DB	0fH
	DB	08H
	DB	0fH
	DB	00H
	DB	010H
	DB	00H
	DB	0fH
	DB	00H
	DB	0fH
	DB	00H
	DB	010H
	DB	00H
	DB	010H
	DB	00H
	DB	010H
	DB	00H
	DB	010H
	DB	00H
	DB	00H
	DB	04H
	DB	00H
	DB	04H
	DB	00H
	DB	04H
	DB	00H
	DB	04H
	DB	0e0H
	DB	03H
	DB	00H
	DB	04H
	DB	0e0H
	DB	0bH
	DB	0e0H
	DB	0bH
	DB	0e0H
	DB	03H
	DB	0e0H
	DB	0bH
	DB	0e0H
	DB	0bH
	DB	0e0H
	DB	03H
	DB	0c0H
	DB	0bH
	DB	0c0H
	DB	0bH
	DB	0c0H
	DB	0bH
	DB	0c0H
	DB	0bH
	DB	0c0H
	DB	0bH
	DB	0c0H
	DB	0bH
	DB	0c0H
	DB	0bH
	DB	0a0H
	DB	0bH
	DB	0a0H
	DB	0bH
	DB	0a0H
	DB	013H
	DB	0a0H
	DB	0bH
	DB	0a0H
	DB	013H
	DB	0a0H
	DB	013H
	DB	080H
	DB	0bH
	DB	0a0H
	DB	013H
	DB	080H
	DB	013H
	DB	080H
	DB	013H
	DB	080H
	DB	013H
	DB	080H
	DB	013H
	DB	080H
	DB	013H
	DB	080H
	DB	013H
	DB	060H
	DB	013H
	DB	080H
	DB	01bH
	DB	060H
	DB	013H
	DB	060H
	DB	01bH
	DB	060H
	DB	013H
	DB	060H
	DB	013H
	DB	060H
	DB	01bH
	DB	040H
	DB	01bH
	DB	040H
	DB	01bH
	DB	040H
	DB	01bH
	DB	040H
	DB	01bH
	DB	040H
	DB	01bH
	DB	040H
	DB	01bH
	DB	040H
	DB	01bH
	DB	040H
	DB	01bH
	DB	040H
	DB	01bH
	DB	040H
	DB	01bH
	DB	020H
	DB	023H
	DB	020H
	DB	023H
	DB	020H
	DB	01bH
	DB	020H
	DB	023H
	DB	020H
	DB	023H
	DB	020H
	DB	023H
	DB	020H
	DB	01bH
	DB	00H
	DB	023H
	DB	00H
	DB	023H
	DB	00H
	DB	023H
	DB	00H
	DB	023H
	DB	00H
	DB	023H
	DB	0e0H
	DB	022H
	DB	0e0H
	DB	02aH
	DB	0e0H
	DB	022H
	DB	0e0H
	DB	022H
	DB	0e0H
	DB	022H
	DB	0e0H
	DB	022H
	DB	0e0H
	DB	02aH
	DB	0e0H
	DB	022H
	DB	0c0H
	DB	02aH
	DB	0c0H
	DB	02aH
	DB	0c0H
	DB	02aH
	DB	0c0H
	DB	02aH
	DB	0c0H
	DB	02aH
	DB	0c0H
	DB	02aH
	DB	0c0H
	DB	02aH
	DB	0a0H
	DB	02aH
	DB	0c0H
	DB	02aH
	DB	0c0H
	DB	032H
	DB	0a0H
	DB	02aH
	DB	0a0H
	DB	02aH
	DB	0a0H
	DB	032H
	DB	080H
	DB	032H
	DB	0a0H
	DB	032H
	DB	0a0H
	DB	032H
	DB	080H
	DB	032H
	DB	080H
	DB	032H
	DB	080H
	DB	032H
	DB	080H
	DB	032H
	DB	080H
	DB	032H
	DB	060H
	DB	032H
	DB	080H
	DB	032H
	DB	060H
	DB	032H
	DB	060H
	DB	032H
	DB	060H
	DB	032H
	DB	060H
	DB	03aH
	DB	060H
	DB	03aH
	DB	060H
	DB	032H
	DB	040H
	DB	03aH
	DB	040H
	DB	03aH
	DB	040H
	DB	03aH
	DB	040H
	DB	03aH
	DB	040H
	DB	03aH
	DB	040H
	DB	03aH
	DB	040H
	DB	03aH
	DB	020H
	DB	03aH
	DB	040H
	DB	03aH
	DB	020H
	DB	042H
	DB	020H
	DB	03aH
	DB	020H
	DB	03aH
	DB	020H
	DB	042H
	DB	020H
	DB	042H
	DB	00H
	DB	03aH
	DB	020H
	DB	042H
	DB	00H
	DB	042H
	DB	00H
	DB	042H
	DB	00H
	DB	042H
	DB	00H
	DB	042H
	DB	00H
	DB	042H
	DB	00H
	DB	042H
	DB	0e0H
	DB	041H
	DB	00H
	DB	042H
	DB	0e0H
	DB	049H
	DB	0e0H
	DB	041H
	DB	0e0H
	DB	049H
	DB	0e0H
	DB	049H
	DB	0e0H
	DB	041H
	DB	0e0H
	DB	049H
	DB	0c0H
	DB	049H
	DB	0c0H
	DB	041H
	DB	0c0H
	DB	049H
	DB	0c0H
	DB	049H
	DB	0c0H
	DB	049H
	DB	0c0H
	DB	049H
	DB	0c0H
	DB	049H
	DB	0a0H
	DB	049H
	DB	0c0H
	DB	049H
	DB	0c0H
	DB	049H
	DB	0a0H
	DB	051H
	DB	0a0H
	DB	049H
	DB	0a0H
	DB	051H
	DB	0a0H
	DB	051H
	DB	080H
	DB	049H
	DB	080H
	DB	051H
	DB	0a0H
	DB	051H
	DB	080H
	DB	051H
	DB	080H
	DB	051H
	DB	080H
	DB	051H
	DB	080H
	DB	051H
	DB	080H
	DB	051H
	DB	080H
	DB	051H
	DB	060H
	DB	059H
	DB	060H
	DB	059H
	DB	060H
	DB	051H
	DB	060H
	DB	051H
	DB	060H
	DB	051H
	DB	060H
	DB	059H
	DB	060H
	DB	059H
	DB	040H
	DB	051H
	DB	060H
	DB	059H
	DB	040H
	DB	059H
	DB	040H
	DB	059H
	DB	040H
	DB	059H
	DB	040H
	DB	059H
	DB	040H
	DB	059H
	DB	040H
	DB	059H
	DB	040H
	DB	059H
	DB	020H
	DB	059H
	DB	020H
	DB	059H
	DB	020H
	DB	059H
	DB	020H
	DB	059H
	DB	020H
	DB	059H
	DB	020H
	DB	061H
	DB	020H
	DB	061H
	DB	00H
	DB	061H
	DB	00H
	DB	059H
	DB	00H
	DB	061H
	DB	00H
	DB	061H
	DB	00H
	DB	061H
	DB	00H
	DB	061H
	DB	0e0H
	DB	060H
	DB	00H
	DB	061H
	DB	0e0H
	DB	068H
	DB	0e0H
	DB	060H
	DB	00H
	DB	061H
	DB	0e0H
	DB	060H
	DB	0e0H
	DB	068H
	DB	0c0H
	DB	068H
	DB	0e0H
	DB	060H
	DB	0e0H
	DB	068H
	DB	0c0H
	DB	068H
	DB	0c0H
	DB	068H
	DB	0c0H
	DB	068H
	DB	0c0H
	DB	068H
	DB	0c0H
	DB	068H
	DB	0c0H
	DB	068H
	DB	0a0H
	DB	068H
	DB	0a0H
	DB	070H
	DB	0a0H
	DB	068H
	DB	0a0H
	DB	068H
	DB	0a0H
	DB	068H
	DB	0a0H
	DB	070H
	DB	0a0H
	DB	070H
	DB	080H
	DB	068H
	DB	0a0H
	DB	070H
	DB	080H
	DB	070H
	DB	080H
	DB	070H
	DB	080H
	DB	070H
	DB	080H
	DB	070H
	DB	080H
	DB	070H
	DB	060H
	DB	070H
	DB	060H
	DB	070H
	DB	080H
	DB	078H
	DB	060H
	DB	070H
	DB	060H
	DB	078H
	DB	060H
	DB	070H
	DB	060H
	DB	078H
	DB	060H
	DB	078H
	DB	060H
	DB	070H
	DB	040H
	DB	078H
	DB	040H
	DB	078H
	DB	060H
	DB	078H
	DB	040H
	DB	078H
	DB	040H
	DB	078H
	DB	040H
	DB	078H
	DB	040H
	DB	078H
	DB	020H
	DB	078H
	DB	040H
	DB	078H
	DB	020H
	DB	080H
	DB	020H
	DB	080H
	DB	020H
	DB	078H
	DB	020H
	DB	080H
	DB	020H
	DB	080H
	DB	00H
	DB	078H
	DB	00H
	DB	080H
	DB	020H
	DB	080H
	DB	00H
	DB	080H
	DB	00H
	DB	080H
	DB	00H
	DB	080H
	DB	00H
	DB	080H
	DB	00H
	DB	080H
	DB	00H
	DB	080H
	DB	01H
	DB	080H
	DB	00H
	DB	080H
	DB	00H
	DB	078H
	DB	01H
	DB	078H
	DB	00H
	DB	080H
	DB	00H
	DB	078H
	DB	01H
	DB	080H
	DB	01H
	DB	078H
	DB	01H
	DB	080H
	DB	00H
	DB	080H
	DB	01H
	DB	078H
	DB	01H
	DB	078H
	DB	01H
	DB	078H
	DB	01H
	DB	078H
	DB	01H
	DB	078H
	DB	01H
	DB	078H
	DB	02H
	DB	078H
	DB	01H
	DB	078H
	DB	01H
	DB	078H
	DB	02H
	DB	070H
	DB	01H
	DB	078H
	DB	01H
	DB	078H
	DB	02H
	DB	070H
	DB	02H
	DB	070H
	DB	02H
	DB	070H
	DB	02H
	DB	070H
	DB	01H
	DB	070H
	DB	02H
	DB	070H
	DB	02H
	DB	070H
	DB	02H
	DB	070H
	DB	02H
	DB	070H
	DB	02H
	DB	070H
	DB	02H
	DB	070H
	DB	02H
	DB	068H
	DB	02H
	DB	070H
	DB	02H
	DB	070H
	DB	02H
	DB	068H
	DB	03H
	DB	068H
	DB	03H
	DB	070H
	DB	03H
	DB	070H
	DB	03H
	DB	068H
	DB	03H
	DB	070H
	DB	03H
	DB	068H
	DB	03H
	DB	068H
	DB	03H
	DB	068H
	DB	03H
	DB	068H
	DB	03H
	DB	068H
	DB	03H
	DB	068H
	DB	03H
	DB	068H
	DB	03H
	DB	068H
	DB	03H
	DB	068H
	DB	04H
	DB	060H
	DB	03H
	DB	068H
	DB	03H
	DB	060H
	DB	04H
	DB	060H
	DB	04H
	DB	060H
	DB	03H
	DB	068H
	DB	04H
	DB	060H
	DB	04H
	DB	060H
	DB	03H
	DB	060H
	DB	04H
	DB	060H
	DB	04H
	DB	060H
	DB	04H
	DB	060H
	DB	04H
	DB	060H
	DB	04H
	DB	060H
	DB	04H
	DB	060H
	DB	04H
	DB	060H
	DB	04H
	DB	058H
	DB	04H
	DB	060H
	DB	04H
	DB	058H
	DB	05H
	DB	060H
	DB	04H
	DB	060H
	DB	05H
	DB	058H
	DB	05H
	DB	058H
	DB	04H
	DB	060H
	DB	05H
	DB	058H
	DB	05H
	DB	058H
	DB	05H
	DB	058H
	DB	05H
	DB	058H
	DB	05H
	DB	058H
	DB	05H
	DB	058H
	DB	05H
	DB	058H
	DB	05H
	DB	058H
	DB	06H
	DB	058H
	DB	05H
	DB	058H
	DB	05H
	DB	050H
	DB	05H
	DB	058H
	DB	06H
	DB	058H
	DB	05H
	DB	050H
	DB	06H
	DB	058H
	DB	05H
	DB	050H
	DB	06H
	DB	050H
	DB	06H
	DB	050H
	DB	06H
	DB	050H
	DB	06H
	DB	050H
	DB	06H
	DB	050H
	DB	06H
	DB	050H
	DB	06H
	DB	050H
	DB	06H
	DB	050H
	DB	06H
	DB	050H
	DB	07H
	DB	050H
	DB	06H
	DB	048H
	DB	06H
	DB	050H
	DB	07H
	DB	050H
	DB	06H
	DB	048H
	DB	06H
	DB	048H
	DB	07H
	DB	048H
	DB	07H
	DB	050H
	DB	07H
	DB	048H
	DB	06H
	DB	048H
	DB	07H
	DB	048H
	DB	07H
	DB	048H
	DB	07H
	DB	048H
	DB	07H
	DB	048H
	DB	07H
	DB	048H
	DB	07H
	DB	048H
	DB	07H
	DB	048H
	DB	07H
	DB	048H
	DB	07H
	DB	048H
	DB	08H
	DB	048H
	DB	07H
	DB	040H
	DB	07H
	DB	040H
	DB	08H
	DB	048H
	DB	08H
	DB	048H
	DB	08H
	DB	040H
	DB	08H
	DB	040H
	DB	07H
	DB	040H
	DB	08H
	DB	040H
	DB	08H
	DB	040H
	DB	08H
	DB	040H
	DB	08H
	DB	040H
	DB	08H
	DB	040H
	DB	08H
	DB	040H
	DB	08H
	DB	038H
	DB	09H
	DB	038H
	DB	09H
	DB	040H
	DB	08H
	DB	038H
	DB	09H
	DB	040H
	DB	08H
	DB	040H
	DB	09H
	DB	038H
	DB	09H
	DB	038H
	DB	08H
	DB	038H
	DB	09H
	DB	038H
	DB	09H
	DB	038H
	DB	09H
	DB	038H
	DB	09H
	DB	038H
	DB	09H
	DB	038H
	DB	0aH
	DB	030H
	DB	09H
	DB	038H
	DB	09H
	DB	038H
	DB	0aH
	DB	038H
	DB	0aH
	DB	030H
	DB	0aH
	DB	030H
	DB	09H
	DB	038H
	DB	0aH
	DB	030H
	DB	0aH
	DB	030H
	DB	0aH
	DB	030H
	DB	0aH
	DB	030H
	DB	0aH
	DB	030H
	DB	0aH
	DB	030H
	DB	0bH
	DB	030H
	DB	0bH
	DB	028H
	DB	0aH
	DB	030H
	DB	0bH
	DB	030H
	DB	0bH
	DB	028H
	DB	0aH
	DB	030H
	DB	0bH
	DB	028H
	DB	0bH
	DB	028H
	DB	0bH
	DB	028H
	DB	0bH
	DB	028H
	DB	0bH
	DB	028H
	DB	0bH
	DB	028H
	DB	0bH
	DB	028H
	DB	0cH
	DB	020H
	DB	0bH
	DB	028H
	DB	0bH
	DB	028H
	DB	0cH
	DB	020H
	DB	0bH
	DB	028H
	DB	0cH
	DB	028H
	DB	0cH
	DB	020H
	DB	0cH
	DB	020H
	DB	0cH
	DB	020H
	DB	0cH
	DB	020H
	DB	0cH
	DB	020H
	DB	0cH
	DB	020H
	DB	0cH
	DB	020H
	DB	0cH
	DB	018H
	DB	0dH
	DB	018H
	DB	0cH
	DB	020H
	DB	0cH
	DB	018H
	DB	0dH
	DB	020H
	DB	0cH
	DB	018H
	DB	0dH
	DB	018H
	DB	0dH
	DB	018H
	DB	0dH
	DB	018H
	DB	0dH
	DB	018H
	DB	0dH
	DB	018H
	DB	0dH
	DB	018H
	DB	0dH
	DB	018H
	DB	0eH
	DB	018H
	DB	0dH
	DB	018H
	DB	0dH
	DB	018H
	DB	0dH
	DB	010H
	DB	0dH
	DB	010H
	DB	0eH
	DB	018H
	DB	0eH
	DB	010H
	DB	0eH
	DB	010H
	DB	0eH
	DB	010H
	DB	0eH
	DB	010H
	DB	0eH
	DB	010H
	DB	0eH
	DB	010H
	DB	0eH
	DB	010H
	DB	0eH
	DB	010H
	DB	0eH
	DB	010H
	DB	0fH
	DB	08H
	DB	0eH
	DB	010H
	DB	0eH
	DB	08H
	DB	0fH
	DB	08H
	DB	0fH
	DB	08H
	DB	0eH
	DB	08H
	DB	0fH
	DB	08H
	DB	0fH
	DB	08H
	DB	0fH
	DB	08H
	DB	0fH
	DB	08H
	DB	0fH
	DB	08H
	DB	0fH
	DB	08H
	DB	010H
	DB	08H
	DB	010H
	DB	00H
	DB	010H
	DB	08H
	DB	0fH
	DB	08H
	DB	010H
	DB	00H
	DB	010H
	DB	08H
	DB	0fH
	DB	08H
	DB	010H
	DB	00H
	DB	010H
	DB	00H
	DB	010H
	DB	00H
	DB	010H
	DB	00H
	DB	00H
	DB	04H
	DB	00H
	DB	04H
	DB	00H
	DB	04H
	DB	0e0H
	DB	03H
	DB	0e0H
	DB	03H
	DB	00H
	DB	04H
	DB	0e0H
	DB	0bH
	DB	0e0H
	DB	03H
	DB	0e0H
	DB	0bH
	DB	0e0H
	DB	03H
	DB	0e0H
	DB	0bH
	DB	0c0H
	DB	0bH
	DB	0c0H
	DB	0bH
	DB	0c0H
	DB	0bH
	DB	0c0H
	DB	0bH
	DB	0c0H
	DB	0bH
	DB	0c0H
	DB	0bH
	DB	0c0H
	DB	0bH
	DB	0a0H
	DB	0bH
	DB	0c0H
	DB	0bH
	DB	0a0H
	DB	013H
	DB	0a0H
	DB	013H
	DB	0a0H
	DB	0bH
	DB	0a0H
	DB	013H
	DB	0a0H
	DB	013H
	DB	080H
	DB	0bH
	DB	080H
	DB	013H
	DB	080H
	DB	013H
	DB	080H
	DB	013H
	DB	080H
	DB	013H
	DB	080H
	DB	013H
	DB	080H
	DB	013H
	DB	080H
	DB	013H
	DB	060H
	DB	013H
	DB	060H
	DB	01bH
	DB	080H
	DB	01bH
	DB	060H
	DB	013H
	DB	060H
	DB	013H
	DB	060H
	DB	01bH
	DB	060H
	DB	01bH
	DB	060H
	DB	013H
	DB	060H
	DB	013H
	DB	060H
	DB	01bH
	DB	040H
	DB	01bH
	DB	040H
	DB	01bH
	DB	040H
	DB	01bH
	DB	040H
	DB	01bH
	DB	040H
	DB	01bH
	DB	020H
	DB	023H
	DB	020H
	DB	01bH
	DB	020H
	DB	01bH
	DB	020H
	DB	01bH
	DB	020H
	DB	023H
	DB	020H
	DB	023H
	DB	00H
	DB	023H
	DB	00H
	DB	01bH
	DB	00H
	DB	023H
	DB	00H
	DB	023H
	DB	020H
	DB	023H
	DB	00H
	DB	023H
	DB	00H
	DB	023H
	DB	00H
	DB	023H
	DB	00H
	DB	023H
	DB	0e0H
	DB	022H
	DB	0e0H
	DB	02aH
	DB	0e0H
	DB	022H
	DB	0e0H
	DB	02aH
	DB	0e0H
	DB	02aH
	DB	0e0H
	DB	022H
	DB	0c0H
	DB	02aH
	DB	0e0H
	DB	02aH
	DB	0c0H
	DB	02aH
	DB	0c0H
	DB	02aH
	DB	0c0H
	DB	02aH
	DB	0c0H
	DB	02aH
	DB	0c0H
	DB	02aH
	DB	0c0H
	DB	02aH
	DB	0a0H
	DB	02aH
	DB	0a0H
	DB	032H
	DB	0a0H
	DB	02aH
	DB	0a0H
	DB	02aH
	DB	0a0H
	DB	032H
	DB	0a0H
	DB	02aH
	DB	0a0H
	DB	02aH
	DB	080H
	DB	032H
	DB	080H
	DB	032H
	DB	080H
	DB	032H
	DB	080H
	DB	032H
	DB	080H
	DB	032H
	DB	080H
	DB	032H
	DB	080H
	DB	032H
	DB	060H
	DB	032H
	DB	080H
	DB	03aH
	DB	060H
	DB	03aH
	DB	060H
	DB	032H
	DB	060H
	DB	03aH
	DB	060H
	DB	03aH
	DB	060H
	DB	032H
	DB	060H
	DB	03aH
	DB	040H
	DB	032H
	DB	040H
	DB	03aH
	DB	060H
	DB	03aH
	DB	040H
	DB	03aH
	DB	040H
	DB	03aH
	DB	040H
	DB	03aH
	DB	040H
	DB	03aH
	DB	040H
	DB	03aH
	DB	040H
	DB	03aH
	DB	020H
	DB	042H
	DB	020H
	DB	042H
	DB	020H
	DB	03aH
	DB	020H
	DB	042H
	DB	020H
	DB	03aH
	DB	00H
	DB	042H
	DB	00H
	DB	042H
	DB	00H
	DB	03aH
	DB	00H
	DB	042H
	DB	00H
	DB	042H
	DB	00H
	DB	042H
	DB	00H
	DB	042H
	DB	00H
	DB	042H
	DB	0e0H
	DB	041H
	DB	00H
	DB	042H
	DB	00H
	DB	04aH
	DB	0e0H
	DB	041H
	DB	0e0H
	DB	041H
	DB	0e0H
	DB	049H
	DB	0e0H
	DB	041H
	DB	0e0H
	DB	041H
	DB	0c0H
	DB	049H
	DB	0c0H
	DB	049H
	DB	0c0H
	DB	049H
	DB	0c0H
	DB	049H
	DB	0c0H
	DB	049H
	DB	0c0H
	DB	049H
	DB	0a0H
	DB	049H
	DB	0a0H
	DB	049H
	DB	0a0H
	DB	049H
	DB	0a0H
	DB	051H
	DB	0a0H
	DB	051H
	DB	0a0H
	DB	049H
	DB	0a0H
	DB	049H
	DB	0a0H
	DB	051H
	DB	080H
	DB	051H
	DB	0a0H
	DB	051H
	DB	080H
	DB	051H
	DB	080H
	DB	051H
	DB	080H
	DB	051H
	DB	080H
	DB	051H
	DB	080H
	DB	051H
	DB	080H
	DB	051H
	DB	060H
	DB	051H
	DB	080H
	DB	051H
	DB	060H
	DB	051H
	DB	080H
	DB	059H
	DB	060H
	DB	059H
	DB	060H
	DB	051H
	DB	060H
	DB	051H
	DB	060H
	DB	059H
	DB	040H
	DB	059H
	DB	040H
	DB	059H
	DB	040H
	DB	059H
	DB	040H
	DB	059H
	DB	040H
	DB	059H
	DB	040H
	DB	059H
	DB	040H
	DB	059H
	DB	020H
	DB	059H
	DB	040H
	DB	061H
	DB	020H
	DB	061H
	DB	020H
	DB	059H
	DB	040H
	DB	061H
	DB	020H
	DB	061H
	DB	020H
	DB	059H
	DB	020H
	DB	061H
	DB	00H
	DB	061H
	DB	020H
	DB	059H
	DB	00H
	DB	061H
	DB	00H
	DB	061H
	DB	00H
	DB	061H
	DB	00H
	DB	061H
	DB	00H
	DB	061H
	DB	0e0H
	DB	060H
	DB	00H
	DB	069H
	DB	0e0H
	DB	060H
	DB	0e0H
	DB	060H
	DB	0e0H
	DB	068H
	DB	0e0H
	DB	060H
	DB	0e0H
	DB	068H
	DB	0e0H
	DB	060H
	DB	0c0H
	DB	068H
	DB	0c0H
	DB	068H
	DB	0c0H
	DB	068H
	DB	0c0H
	DB	068H
	DB	0c0H
	DB	068H
	DB	0c0H
	DB	068H
	DB	0c0H
	DB	068H
	DB	0c0H
	DB	068H
	DB	0a0H
	DB	068H
	DB	0a0H
	DB	070H
	DB	0a0H
	DB	070H
	DB	0a0H
	DB	068H
	DB	0a0H
	DB	070H
	DB	0a0H
	DB	068H
	DB	0a0H
	DB	070H
	DB	080H
	DB	068H
	DB	080H
	DB	070H
	DB	080H
	DB	070H
	DB	080H
	DB	070H
	DB	080H
	DB	070H
	DB	080H
	DB	070H
	DB	080H
	DB	070H
	DB	080H
	DB	070H
	DB	080H
	DB	070H
	DB	060H
	DB	070H
	DB	060H
	DB	070H
	DB	060H
	DB	078H
	DB	060H
	DB	070H
	DB	060H
	DB	070H
	DB	060H
	DB	078H
	DB	060H
	DB	078H
	DB	040H
	DB	070H
	DB	040H
	DB	070H
	DB	040H
	DB	078H
	DB	040H
	DB	078H
	DB	040H
	DB	078H
	DB	040H
	DB	078H
	DB	040H
	DB	078H
	DB	020H
	DB	080H
	DB	020H
	DB	078H
	DB	040H
	DB	078H
	DB	020H
	DB	078H
	DB	020H
	DB	080H
	DB	020H
	DB	078H
	DB	020H
	DB	080H
	DB	00H
	DB	080H
	DB	020H
	DB	080H
	DB	020H
	DB	080H
	DB	00H
	DB	080H
	DB	00H
	DB	080H
	DB	00H
	DB	080H
	DB	00H
	DB	080H
	DB	00H
	DB	078H
	DB	00H
	DB	080H
	DB	00H
	DB	078H
	DB	01H
	DB	080H
	DB	00H
	DB	080H
	DB	01H
	DB	080H
	DB	01H
	DB	078H
	DB	00H
	DB	078H
	DB	01H
	DB	080H
	DB	01H
	DB	078H
	DB	00H
	DB	078H
	DB	01H
	DB	078H
	DB	01H
	DB	078H
	DB	01H
	DB	078H
	DB	01H
	DB	078H
	DB	01H
	DB	078H
	DB	01H
	DB	078H
	DB	01H
	DB	078H
	DB	01H
	DB	070H
	DB	01H
	DB	078H
	DB	02H
	DB	070H
	DB	01H
	DB	070H
	DB	02H
	DB	078H
	DB	02H
	DB	070H
	DB	01H
	DB	070H
	DB	02H
	DB	078H
	DB	02H
	DB	078H
	DB	02H
	DB	070H
	DB	01H
	DB	070H
	DB	02H
	DB	070H
	DB	02H
	DB	070H
	DB	02H
	DB	070H
	DB	02H
	DB	070H
	DB	02H
	DB	070H
	DB	02H
	DB	070H
	DB	03H
	DB	070H
	DB	03H
	DB	068H
	DB	02H
	DB	070H
	DB	02H
	DB	070H
	DB	02H
	DB	068H
	DB	03H
	DB	068H
	DB	02H
	DB	070H
	DB	03H
	DB	068H
	DB	02H
	DB	068H
	DB	03H
	DB	068H
	DB	03H
	DB	068H
	DB	03H
	DB	068H
	DB	03H
	DB	068H
	DB	03H
	DB	068H
	DB	03H
	DB	068H
	DB	03H
	DB	068H
	DB	03H
	DB	060H
	DB	03H
	DB	068H
	DB	04H
	DB	068H
	DB	03H
	DB	060H
	DB	03H
	DB	068H
	DB	04H
	DB	068H
	DB	03H
	DB	060H
	DB	04H
	DB	060H
	DB	04H
	DB	068H
	DB	04H
	DB	060H
	DB	04H
	DB	068H
	DB	04H
	DB	060H
	DB	04H
	DB	060H
	DB	04H
	DB	060H
	DB	04H
	DB	060H
	DB	04H
	DB	060H
	DB	04H
	DB	060H
	DB	05H
	DB	060H
	DB	05H
	DB	060H
	DB	04H
	DB	058H
	DB	04H
	DB	058H
	DB	05H
	DB	060H
	DB	04H
	DB	058H
	DB	05H
	DB	060H
	DB	05H
	DB	058H
	DB	04H
	DB	060H
	DB	05H
	DB	058H
	DB	05H
	DB	058H
	DB	05H
	DB	058H
	DB	05H
	DB	058H
	DB	05H
	DB	058H
	DB	05H
	DB	058H
	DB	05H
	DB	058H
	DB	05H
	DB	050H
	DB	05H
	DB	058H
	DB	05H
	DB	058H
	DB	06H
	DB	050H
	DB	06H
	DB	058H
	DB	05H
	DB	058H
	DB	06H
	DB	050H
	DB	06H
	DB	058H
	DB	06H
	DB	050H
	DB	05H
	DB	050H
	DB	06H
	DB	058H
	DB	05H
	DB	050H
	DB	06H
	DB	050H
	DB	06H
	DB	050H
	DB	06H
	DB	050H
	DB	06H
	DB	050H
	DB	06H
	DB	050H
	DB	06H
	DB	050H
	DB	06H
	DB	050H
	DB	06H
	DB	048H
	DB	07H
	DB	050H
	DB	07H
	DB	050H
	DB	06H
	DB	048H
	DB	07H
	DB	050H
	DB	07H
	DB	048H
	DB	07H
	DB	050H
	DB	06H
	DB	048H
	DB	07H
	DB	048H
	DB	07H
	DB	048H
	DB	07H
	DB	048H
	DB	07H
	DB	048H
	DB	07H
	DB	048H
	DB	07H
	DB	048H
	DB	07H
	DB	048H
	DB	08H
	DB	040H
	DB	07H
	DB	048H
	DB	08H
	DB	048H
	DB	08H
	DB	040H
	DB	07H
	DB	048H
	DB	08H
	DB	040H
	DB	08H
	DB	040H
	DB	07H
	DB	048H
	DB	08H
	DB	040H
	DB	08H
	DB	048H
	DB	08H
	DB	048H
	DB	08H
	DB	040H
	DB	08H
	DB	040H
	DB	08H
	DB	040H
	DB	08H
	DB	040H
	DB	08H
	DB	040H
	DB	08H
	DB	040H
	DB	09H
	DB	038H
	DB	08H
	DB	040H
	DB	08H
	DB	040H
	DB	09H
	DB	038H
	DB	09H
	DB	038H
	DB	08H
	DB	040H
	DB	09H
	DB	038H
	DB	09H
	DB	038H
	DB	09H
	DB	038H
	DB	09H
	DB	038H
	DB	09H
	DB	038H
	DB	09H
	DB	038H
	DB	09H
	DB	038H
	DB	09H
	DB	038H
	DB	09H
	DB	038H
	DB	0aH
	DB	030H
	DB	09H
	DB	030H
	DB	0aH
	DB	038H
	DB	09H
	DB	030H
	DB	0aH
	DB	030H
	DB	0aH
	DB	030H
	DB	0aH
	DB	030H
	DB	0aH
	DB	030H
	DB	0aH
	DB	030H
	DB	0aH
	DB	030H
	DB	0aH
	DB	030H
	DB	0aH
	DB	030H
	DB	0aH
	DB	028H
	DB	0aH
	DB	030H
	DB	0aH
	DB	028H
	DB	0bH
	DB	028H
	DB	0bH
	DB	030H
	DB	0bH
	DB	028H
	DB	0bH
	DB	028H
	DB	0bH
	DB	028H
	DB	0bH
	DB	028H
	DB	0bH
	DB	028H
	DB	0bH
	DB	028H
	DB	0bH
	DB	028H
	DB	0bH
	DB	028H
	DB	0bH
	DB	028H
	DB	0cH
	DB	020H
	DB	0bH
	DB	028H
	DB	0bH
	DB	020H
	DB	0cH
	DB	020H
	DB	0cH
	DB	028H
	DB	0cH
	DB	020H
	DB	0cH
	DB	020H
	DB	0cH
	DB	020H
	DB	0cH
	DB	020H
	DB	0cH
	DB	020H
	DB	0cH
	DB	020H
	DB	0cH
	DB	020H
	DB	0cH
	DB	020H
	DB	0dH
	DB	020H
	DB	0cH
	DB	020H
	DB	0dH
	DB	018H
	DB	0cH
	DB	018H
	DB	0dH
	DB	020H
	DB	0dH
	DB	018H
	DB	0cH
	DB	018H
	DB	0dH
	DB	018H
	DB	0dH
	DB	018H
	DB	0dH
	DB	018H
	DB	0dH
	DB	018H
	DB	0dH
	DB	018H
	DB	0dH
	DB	010H
	DB	0eH
	DB	018H
	DB	0dH
	DB	018H
	DB	0eH
	DB	010H
	DB	0eH
	DB	018H
	DB	0dH
	DB	010H
	DB	0dH
	DB	018H
	DB	0eH
	DB	010H
	DB	0eH
	DB	010H
	DB	0eH
	DB	010H
	DB	0eH
	DB	010H
	DB	0eH
	DB	010H
	DB	0eH
	DB	010H
	DB	0eH
	DB	010H
	DB	0fH
	DB	08H
	DB	0eH
	DB	010H
	DB	0fH
	DB	010H
	DB	0eH
	DB	08H
	DB	0eH
	DB	010H
	DB	0fH
	DB	010H
	DB	0fH
	DB	08H
	DB	0fH
	DB	08H
	DB	0fH
	DB	08H
	DB	0fH
	DB	08H
	DB	0fH
	DB	08H
	DB	0fH
	DB	08H
	DB	0fH
	DB	00H
	DB	0fH
	DB	08H
	DB	0fH
	DB	08H
	DB	0fH
	DB	00H
	DB	010H
	DB	00H
	DB	0fH
	DB	00H
	DB	010H
	DB	08H
	DB	010H
	DB	00H
	DB	010H
	DB	00H
	DB	010H
	DB	00H
	DB	010H
	DB	00H
	DB	010H
	DB	00H
	DB	00H
	DB	04H
	DB	00H
	DB	04H
	DB	00H
	DB	04H
	DB	00H
	DB	04H
	DB	0e0H
	DB	0bH
	DB	00H
	DB	0cH
	DB	0e0H
	DB	03H
	DB	0e0H
	DB	03H
	DB	0e0H
	DB	0bH
	DB	0e0H
	DB	0bH
	DB	0e0H
	DB	03H
	DB	0c0H
	DB	0bH
	DB	0c0H
	DB	0bH
	DB	0e0H
	DB	0bH
	DB	0c0H
	DB	0bH
	DB	0c0H
	DB	0bH
	DB	0c0H
	DB	0bH
	DB	0c0H
	DB	0bH
	DB	0c0H
	DB	0bH
	DB	0a0H
	DB	0bH
	DB	0c0H
	DB	0bH
	DB	0a0H
	DB	0bH
	DB	0a0H
	DB	013H
	DB	0a0H
	DB	0bH
	DB	0a0H
	DB	013H
	DB	0a0H
	DB	013H
	DB	0a0H
	DB	0bH
	DB	080H
	DB	013H
	DB	0a0H
	DB	013H
	DB	080H
	DB	013H
	DB	080H
	DB	013H
	DB	080H
	DB	013H
	DB	080H
	DB	013H
	DB	060H
	DB	013H
	DB	080H
	DB	013H
	DB	060H
	DB	013H
	DB	060H
	DB	01bH
	DB	060H
	DB	01bH
	DB	060H
	DB	01bH
	DB	060H
	DB	013H
	DB	060H
	DB	01bH
	DB	040H
	DB	01bH
	DB	040H
	DB	01bH
	DB	040H
	DB	01bH
	DB	040H
	DB	01bH
	DB	040H
	DB	01bH
	DB	040H
	DB	01bH
	DB	040H
	DB	01bH
	DB	020H
	DB	01bH
	DB	040H
	DB	023H
	DB	020H
	DB	01bH
	DB	020H
	DB	023H
	DB	020H
	DB	01bH
	DB	020H
	DB	023H
	DB	020H
	DB	01bH
	DB	020H
	DB	023H
	DB	00H
	DB	023H
	DB	00H
	DB	023H
	DB	00H
	DB	023H
	DB	00H
	DB	023H
	DB	00H
	DB	023H
	DB	00H
	DB	023H
	DB	0e0H
	DB	022H
	DB	00H
	DB	023H
	DB	0e0H
	DB	022H
	DB	0e0H
	DB	02aH
	DB	0e0H
	DB	02aH
	DB	0e0H
	DB	022H
	DB	0e0H
	DB	02aH
	DB	0c0H
	DB	02aH
	DB	0e0H
	DB	022H
	DB	0e0H
	DB	02aH
	DB	0c0H
	DB	02aH
	DB	0c0H
	DB	02aH
	DB	0c0H
	DB	02aH
	DB	0c0H
	DB	02aH
	DB	0c0H
	DB	02aH
	DB	0a0H
	DB	02aH
	DB	0a0H
	DB	02aH
	DB	0a0H
	DB	032H
	DB	0a0H
	DB	032H
	DB	0a0H
	DB	02aH
	DB	0a0H
	DB	032H
	DB	0a0H
	DB	032H
	DB	0a0H
	DB	02aH
	DB	0a0H
	DB	02aH
	DB	080H
	DB	032H
	DB	080H
	DB	032H
	DB	080H
	DB	032H
	DB	080H
	DB	032H
	DB	080H
	DB	032H
	DB	060H
	DB	032H
	DB	080H
	DB	032H
	DB	080H
	DB	032H
	DB	060H
	DB	03aH
	DB	060H
	DB	032H
	DB	060H
	DB	03aH
	DB	060H
	DB	03aH
	DB	060H
	DB	032H
	DB	040H
	DB	03aH
	DB	060H
	DB	03aH
	DB	040H
	DB	03aH
	DB	040H
	DB	03aH
	DB	040H
	DB	03aH
	DB	040H
	DB	03aH
	DB	040H
	DB	03aH
	DB	020H
	DB	03aH
	DB	020H
	DB	03aH
	DB	040H
	DB	03aH
	DB	020H
	DB	03aH
	DB	020H
	DB	042H
	DB	020H
	DB	042H
	DB	020H
	DB	03aH
	DB	020H
	DB	042H
	DB	020H
	DB	042H
	DB	00H
	DB	042H
	DB	00H
	DB	042H
	DB	00H
	DB	042H
	DB	00H
	DB	042H
	DB	00H
	DB	042H
	DB	00H
	DB	042H
	DB	0e0H
	DB	041H
	DB	0e0H
	DB	049H
	DB	0e0H
	DB	041H
	DB	0e0H
	DB	041H
	DB	0e0H
	DB	049H
	DB	0e0H
	DB	049H
	DB	0e0H
	DB	049H
	DB	0e0H
	DB	049H
	DB	0c0H
	DB	049H
	DB	0c0H
	DB	049H
	DB	0e0H
	DB	049H
	DB	0c0H
	DB	049H
	DB	0c0H
	DB	049H
	DB	0c0H
	DB	049H
	DB	0c0H
	DB	049H
	DB	0a0H
	DB	049H
	DB	0c0H
	DB	051H
	DB	0a0H
	DB	049H
	DB	0a0H
	DB	049H
	DB	0a0H
	DB	051H
	DB	0a0H
	DB	051H
	DB	0a0H
	DB	049H
	DB	0a0H
	DB	049H
	DB	0a0H
	DB	051H
	DB	0a0H
	DB	051H
	DB	080H
	DB	051H
	DB	080H
	DB	051H
	DB	080H
	DB	051H
	DB	080H
	DB	051H
	DB	080H
	DB	051H
	DB	080H
	DB	051H
	DB	060H
	DB	051H
	DB	060H
	DB	059H
	DB	060H
	DB	051H
	DB	060H
	DB	051H
	DB	060H
	DB	059H
	DB	060H
	DB	059H
	DB	040H
	DB	051H
	DB	060H
	DB	051H
	DB	060H
	DB	059H
	DB	040H
	DB	059H
	DB	040H
	DB	059H
	DB	040H
	DB	059H
	DB	040H
	DB	059H
	DB	040H
	DB	059H
	DB	020H
	DB	059H
	DB	020H
	DB	061H
	DB	040H
	DB	059H
	DB	020H
	DB	059H
	DB	020H
	DB	061H
	DB	020H
	DB	061H
	DB	020H
	DB	059H
	DB	00H
	DB	061H
	DB	00H
	DB	061H
	DB	00H
	DB	061H
	DB	00H
	DB	061H
	DB	00H
	DB	061H
	DB	00H
	DB	061H
	DB	00H
	DB	061H
	DB	00H
	DB	061H
	DB	0e0H
	DB	060H
	DB	00H
	DB	061H
	DB	00H
	DB	069H
	DB	0e0H
	DB	060H
	DB	0e0H
	DB	068H
	DB	0e0H
	DB	068H
	DB	0e0H
	DB	068H
	DB	0c0H
	DB	060H
	DB	0e0H
	DB	068H
	DB	0e0H
	DB	068H
	DB	0c0H
	DB	060H
	DB	0c0H
	DB	068H
	DB	0c0H
	DB	068H
	DB	0c0H
	DB	068H
	DB	0c0H
	DB	068H
	DB	0c0H
	DB	068H
	DB	0c0H
	DB	068H
	DB	0a0H
	DB	068H
	DB	0a0H
	DB	068H
	DB	0a0H
	DB	070H
	DB	0a0H
	DB	070H
	DB	0a0H
	DB	070H
	DB	0a0H
	DB	068H
	DB	0a0H
	DB	070H
	DB	080H
	DB	070H
	DB	0a0H
	DB	070H
	DB	080H
	DB	068H
	DB	080H
	DB	070H
	DB	080H
	DB	070H
	DB	080H
	DB	070H
	DB	080H
	DB	070H
	DB	060H
	DB	078H
	DB	080H
	DB	070H
	DB	060H
	DB	078H
	DB	060H
	DB	078H
	DB	060H
	DB	070H
	DB	060H
	DB	078H
	DB	060H
	DB	078H
	DB	040H
	DB	078H
	DB	060H
	DB	078H
	DB	040H
	DB	078H
	DB	040H
	DB	078H
	DB	040H
	DB	078H
	DB	040H
	DB	078H
	DB	040H
	DB	078H
	DB	040H
	DB	078H
	DB	020H
	DB	078H
	DB	020H
	DB	078H
	DB	020H
	DB	080H
	DB	020H
	DB	078H
	DB	020H
	DB	078H
	DB	020H
	DB	080H
	DB	020H
	DB	078H
	DB	00H
	DB	078H
	DB	00H
	DB	080H
	DB	00H
	DB	080H
	DB	00H
	DB	078H
	DB	00H
	DB	080H
	DB	00H
	DB	080H
	DB	00H
	DB	080H
	DB	01H
	DB	080H
	DB	00H
	DB	080H
	DB	00H
	DB	080H
	DB	01H
	DB	078H
	DB	00H
	DB	080H
	DB	00H
	DB	080H
	DB	01H
	DB	078H
	DB	01H
	DB	078H
	DB	00H
	DB	080H
	DB	01H
	DB	078H
	DB	01H
	DB	078H
	DB	01H
	DB	078H
	DB	00H
	DB	078H
	DB	01H
	DB	078H
	DB	01H
	DB	078H
	DB	01H
	DB	078H
	DB	01H
	DB	078H
	DB	01H
	DB	078H
	DB	01H
	DB	078H
	DB	01H
	DB	070H
	DB	02H
	DB	078H
	DB	01H
	DB	078H
	DB	02H
	DB	070H
	DB	02H
	DB	070H
	DB	01H
	DB	078H
	DB	01H
	DB	070H
	DB	02H
	DB	078H
	DB	02H
	DB	070H
	DB	02H
	DB	070H
	DB	02H
	DB	070H
	DB	02H
	DB	070H
	DB	02H
	DB	070H
	DB	02H
	DB	070H
	DB	02H
	DB	070H
	DB	02H
	DB	070H
	DB	02H
	DB	070H
	DB	03H
	DB	070H
	DB	03H
	DB	068H
	DB	03H
	DB	070H
	DB	02H
	DB	070H
	DB	02H
	DB	068H
	DB	03H
	DB	068H
	DB	02H
	DB	068H
	DB	03H
	DB	070H
	DB	03H
	DB	068H
	DB	02H
	DB	068H
	DB	03H
	DB	068H
	DB	03H
	DB	068H
	DB	03H
	DB	068H
	DB	03H
	DB	068H
	DB	03H
	DB	068H
	DB	04H
	DB	068H
	DB	03H
	DB	068H
	DB	03H
	DB	060H
	DB	04H
	DB	060H
	DB	03H
	DB	068H
	DB	04H
	DB	068H
	DB	03H
	DB	060H
	DB	04H
	DB	060H
	DB	03H
	DB	060H
	DB	03H
	DB	060H
	DB	04H
	DB	060H
	DB	04H
	DB	060H
	DB	04H
	DB	060H
	DB	04H
	DB	060H
	DB	04H
	DB	060H
	DB	04H
	DB	060H
	DB	04H
	DB	060H
	DB	04H
	DB	060H
	DB	04H
	DB	060H
	DB	04H
	DB	060H
	DB	05H
	DB	058H
	DB	05H
	DB	060H
	DB	04H
	DB	060H
	DB	05H
	DB	058H
	DB	04H
	DB	058H
	DB	05H
	DB	058H
	DB	05H
	DB	060H
	DB	04H
	DB	058H
	DB	05H
	DB	058H
	DB	05H
	DB	058H
	DB	05H
	DB	058H
	DB	05H
	DB	058H
	DB	05H
	DB	058H
	DB	05H
	DB	058H
	DB	05H
	DB	058H
	DB	06H
	DB	058H
	DB	05H
	DB	050H
	DB	05H
	DB	058H
	DB	06H
	DB	050H
	DB	05H
	DB	050H
	DB	06H
	DB	050H
	DB	06H
	DB	058H
	DB	05H
	DB	050H
	DB	06H
	DB	050H
	DB	06H
	DB	050H
	DB	06H
	DB	050H
	DB	06H
	DB	050H
	DB	06H
	DB	050H
	DB	06H
	DB	050H
	DB	06H
	DB	050H
	DB	06H
	DB	050H
	DB	06H
	DB	048H
	DB	07H
	DB	050H
	DB	07H
	DB	050H
	DB	06H
	DB	048H
	DB	06H
	DB	050H
	DB	07H
	DB	048H
	DB	06H
	DB	050H
	DB	07H
	DB	048H
	DB	07H
	DB	048H
	DB	07H
	DB	050H
	DB	07H
	DB	048H
	DB	07H
	DB	048H
	DB	07H
	DB	048H
	DB	07H
	DB	048H
	DB	07H
	DB	048H
	DB	07H
	DB	048H
	DB	07H
	DB	048H
	DB	08H
	DB	040H
	DB	07H
	DB	048H
	DB	07H
	DB	040H
	DB	08H
	DB	048H
	DB	08H
	DB	048H
	DB	07H
	DB	040H
	DB	08H
	DB	040H
	DB	08H
	DB	040H
	DB	07H
	DB	040H
	DB	08H
	DB	040H
	DB	08H
	DB	040H
	DB	08H
	DB	040H
	DB	08H
	DB	040H
	DB	08H
	DB	040H
	DB	08H
	DB	040H
	DB	08H
	DB	040H
	DB	08H
	DB	040H
	DB	09H
	DB	040H
	DB	08H
	DB	038H
	DB	08H
	DB	040H
	DB	09H
	DB	038H
	DB	09H
	DB	038H
	DB	09H
	DB	038H
	DB	09H
	DB	040H
	DB	09H
	DB	038H
	DB	09H
	DB	038H
	DB	09H
	DB	038H
	DB	09H
	DB	038H
	DB	09H
	DB	038H
	DB	0aH
	DB	038H
	DB	09H
	DB	030H
	DB	09H
	DB	038H
	DB	0aH
	DB	030H
	DB	0aH
	DB	038H
	DB	0aH
	DB	030H
	DB	09H
	DB	030H
	DB	0aH
	DB	038H
	DB	0aH
	DB	030H
	DB	0aH
	DB	030H
	DB	0aH
	DB	030H
	DB	0aH
	DB	030H
	DB	0aH
	DB	030H
	DB	0bH
	DB	030H
	DB	0aH
	DB	028H
	DB	0bH
	DB	030H
	DB	0bH
	DB	030H
	DB	0aH
	DB	028H
	DB	0aH
	DB	028H
	DB	0bH
	DB	028H
	DB	0bH
	DB	030H
	DB	0bH
	DB	028H
	DB	0bH
	DB	028H
	DB	0bH
	DB	028H
	DB	0bH
	DB	028H
	DB	0bH
	DB	028H
	DB	0bH
	DB	028H
	DB	0cH
	DB	028H
	DB	0bH
	DB	020H
	DB	0cH
	DB	028H
	DB	0cH
	DB	028H
	DB	0bH
	DB	020H
	DB	0cH
	DB	020H
	DB	0bH
	DB	020H
	DB	0cH
	DB	020H
	DB	0cH
	DB	020H
	DB	0cH
	DB	020H
	DB	0cH
	DB	020H
	DB	0cH
	DB	020H
	DB	0cH
	DB	020H
	DB	0cH
	DB	018H
	DB	0cH
	DB	020H
	DB	0dH
	DB	020H
	DB	0dH
	DB	018H
	DB	0cH
	DB	020H
	DB	0dH
	DB	020H
	DB	0dH
	DB	018H
	DB	0dH
	DB	018H
	DB	0dH
	DB	018H
	DB	0dH
	DB	018H
	DB	0dH
	DB	018H
	DB	0dH
	DB	018H
	DB	0dH
	DB	018H
	DB	0dH
	DB	018H
	DB	0eH
	DB	018H
	DB	0dH
	DB	010H
	DB	0eH
	DB	018H
	DB	0eH
	DB	010H
	DB	0eH
	DB	010H
	DB	0eH
	DB	018H
	DB	0dH
	DB	010H
	DB	0eH
	DB	010H
	DB	0eH
	DB	010H
	DB	0eH
	DB	010H
	DB	0eH
	DB	010H
	DB	0eH
	DB	010H
	DB	0eH
	DB	010H
	DB	0fH
	DB	010H
	DB	0eH
	DB	010H
	DB	0fH
	DB	08H
	DB	0fH
	DB	010H
	DB	0eH
	DB	08H
	DB	0fH
	DB	08H
	DB	0fH
	DB	010H
	DB	0fH
	DB	08H
	DB	0fH
	DB	08H
	DB	0fH
	DB	08H
	DB	0fH
	DB	08H
	DB	0fH
	DB	08H
	DB	0fH
	DB	08H
	DB	0fH
	DB	08H
	DB	010H
	DB	00H
	DB	010H
	DB	08H
	DB	0fH
	DB	08H
	DB	010H
	DB	00H
	DB	010H
	DB	00H
	DB	010H
	DB	08H
	DB	0fH
	DB	00H
	DB	010H
	DB	00H
	DB	010H
	DB	00H
	DB	010H
	DB	00H
	DB	00H
	DB	04H
	DB	00H
	DB	04H
	DB	00H
	DB	04H
	DB	00H
	DB	04H
	DB	0e0H
	DB	03H
	DB	0e0H
	DB	03H
	DB	0e0H
	DB	03H
	DB	0e0H
	DB	0bH
	DB	0e0H
	DB	03H
	DB	0e0H
	DB	0bH
	DB	0e0H
	DB	03H
	DB	0e0H
	DB	03H
	DB	0c0H
	DB	0bH
	DB	0c0H
	DB	0bH
	DB	0c0H
	DB	0bH
	DB	0c0H
	DB	0bH
	DB	0c0H
	DB	0bH
	DB	0a0H
	DB	0bH
	DB	0a0H
	DB	0bH
	DB	0c0H
	DB	013H
	DB	0c0H
	DB	0bH
	DB	0a0H
	DB	0bH
	DB	0a0H
	DB	013H
	DB	0a0H
	DB	0bH
	DB	0a0H
	DB	0bH
	DB	0a0H
	DB	013H
	DB	080H
	DB	013H
	DB	080H
	DB	0bH
	DB	080H
	DB	013H
	DB	080H
	DB	013H
	DB	080H
	DB	013H
	DB	080H
	DB	013H
	DB	080H
	DB	013H
	DB	060H
	DB	013H
	DB	060H
	DB	013H
	DB	060H
	DB	013H
	DB	060H
	DB	013H
	DB	060H
	DB	013H
	DB	060H
	DB	01bH
	DB	060H
	DB	01bH
	DB	040H
	DB	01bH
	DB	040H
	DB	01bH
	DB	040H
	DB	01bH
	DB	040H
	DB	01bH
	DB	040H
	DB	01bH
	DB	040H
	DB	01bH
	DB	040H
	DB	01bH
	DB	040H
	DB	01bH
	DB	020H
	DB	01bH
	DB	020H
	DB	023H
	DB	020H
	DB	023H
	DB	020H
	DB	01bH
	DB	020H
	DB	01bH
	DB	020H
	DB	023H
	DB	020H
	DB	023H
	DB	00H
	DB	01bH
	DB	020H
	DB	023H
	DB	00H
	DB	023H
	DB	00H
	DB	023H
	DB	00H
	DB	023H
	DB	00H
	DB	023H
	DB	00H
	DB	023H
	DB	00H
	DB	02bH
	DB	00H
	DB	023H
	DB	00H
	DB	023H
	DB	0e0H
	DB	02aH
	DB	0e0H
	DB	022H
	DB	0e0H
	DB	022H
	DB	0e0H
	DB	02aH
	DB	0c0H
	DB	022H
	DB	0e0H
	DB	02aH
	DB	0c0H
	DB	02aH
	DB	0c0H
	DB	02aH
	DB	0c0H
	DB	02aH
	DB	0c0H
	DB	02aH
	DB	0c0H
	DB	02aH
	DB	0c0H
	DB	02aH
	DB	0c0H
	DB	02aH
	DB	0c0H
	DB	032H
	DB	0a0H
	DB	02aH
	DB	0a0H
	DB	02aH
	DB	0a0H
	DB	032H
	DB	0a0H
	DB	032H
	DB	0a0H
	DB	032H
	DB	080H
	DB	032H
	DB	0a0H
	DB	032H
	DB	080H
	DB	032H
	DB	080H
	DB	032H
	DB	080H
	DB	032H
	DB	080H
	DB	032H
	DB	080H
	DB	032H
	DB	080H
	DB	032H
	DB	060H
	DB	032H
	DB	060H
	DB	03aH
	DB	060H
	DB	032H
	DB	060H
	DB	032H
	DB	060H
	DB	032H
	DB	060H
	DB	03aH
	DB	060H
	DB	03aH
	DB	040H
	DB	032H
	DB	060H
	DB	03aH
	DB	040H
	DB	03aH
	DB	040H
	DB	03aH
	DB	040H
	DB	03aH
	DB	040H
	DB	03aH
	DB	040H
	DB	03aH
	DB	040H
	DB	042H
	DB	020H
	DB	03aH
	DB	020H
	DB	03aH
	DB	020H
	DB	042H
	DB	020H
	DB	03aH
	DB	020H
	DB	042H
	DB	020H
	DB	042H
	DB	020H
	DB	042H
	DB	00H
	DB	03aH
	DB	00H
	DB	042H
	DB	00H
	DB	042H
	DB	00H
	DB	042H
	DB	00H
	DB	042H
	DB	00H
	DB	042H
	DB	0e0H
	DB	041H
	DB	00H
	DB	042H
	DB	00H
	DB	042H
	DB	0e0H
	DB	049H
	DB	0e0H
	DB	041H
	DB	0e0H
	DB	041H
	DB	0e0H
	DB	049H
	DB	0e0H
	DB	041H
	DB	0c0H
	DB	049H
	DB	0e0H
	DB	049H
	DB	0c0H
	DB	049H
	DB	0c0H
	DB	049H
	DB	0c0H
	DB	049H
	DB	0c0H
	DB	049H
	DB	0c0H
	DB	049H
	DB	0a0H
	DB	049H
	DB	0c0H
	DB	049H
	DB	0c0H
	DB	051H
	DB	0a0H
	DB	049H
	DB	0a0H
	DB	049H
	DB	0a0H
	DB	049H
	DB	0a0H
	DB	051H
	DB	0a0H
	DB	051H
	DB	0a0H
	DB	051H
	DB	080H
	DB	049H
	DB	080H
	DB	051H
	DB	080H
	DB	051H
	DB	080H
	DB	051H
	DB	080H
	DB	051H
	DB	080H
	DB	051H
	DB	080H
	DB	051H
	DB	080H
	DB	051H
	DB	080H
	DB	059H
	DB	060H
	DB	051H
	DB	060H
	DB	051H
	DB	060H
	DB	059H
	DB	060H
	DB	059H
	DB	060H
	DB	059H
	DB	060H
	DB	059H
	DB	040H
	DB	059H
	DB	040H
	DB	051H
	DB	040H
	DB	059H
	DB	040H
	DB	059H
	DB	040H
	DB	059H
	DB	040H
	DB	059H
	DB	040H
	DB	059H
	DB	020H
	DB	059H
	DB	020H
	DB	059H
	DB	020H
	DB	059H
	DB	020H
	DB	059H
	DB	020H
	DB	059H
	DB	020H
	DB	061H
	DB	020H
	DB	061H
	DB	00H
	DB	059H
	DB	020H
	DB	059H
	DB	00H
	DB	061H
	DB	020H
	DB	061H
	DB	00H
	DB	061H
	DB	00H
	DB	061H
	DB	00H
	DB	061H
	DB	00H
	DB	061H
	DB	00H
	DB	061H
	DB	0e0H
	DB	060H
	DB	0e0H
	DB	068H
	DB	0e0H
	DB	060H
	DB	0e0H
	DB	060H
	DB	0e0H
	DB	068H
	DB	0e0H
	DB	068H
	DB	0c0H
	DB	060H
	DB	0e0H
	DB	068H
	DB	0c0H
	DB	068H
	DB	0c0H
	DB	060H
	DB	0c0H
	DB	068H
	DB	0c0H
	DB	068H
	DB	0c0H
	DB	068H
	DB	0c0H
	DB	068H
	DB	0c0H
	DB	070H
	DB	0a0H
	DB	068H
	DB	0a0H
	DB	068H
	DB	0c0H
	DB	070H
	DB	0a0H
	DB	068H
	DB	0a0H
	DB	068H
	DB	0a0H
	DB	070H
	DB	0a0H
	DB	070H
	DB	080H
	DB	070H
	DB	0a0H
	DB	070H
	DB	080H
	DB	070H
	DB	080H
	DB	070H
	DB	080H
	DB	070H
	DB	080H
	DB	070H
	DB	080H
	DB	070H
	DB	060H
	DB	070H
	DB	060H
	DB	070H
	DB	080H
	DB	070H
	DB	060H
	DB	070H
	DB	060H
	DB	070H
	DB	060H
	DB	078H
	DB	060H
	DB	078H
	DB	060H
	DB	070H
	DB	040H
	DB	078H
	DB	060H
	DB	078H
	DB	040H
	DB	078H
	DB	040H
	DB	078H
	DB	040H
	DB	078H
	DB	040H
	DB	078H
	DB	040H
	DB	078H
	DB	020H
	DB	078H
	DB	040H
	DB	078H
	DB	020H
	DB	080H
	DB	020H
	DB	080H
	DB	020H
	DB	078H
	DB	020H
	DB	080H
	DB	020H
	DB	080H
	DB	020H
	DB	080H
	DB	00H
	DB	080H
	DB	020H
	DB	080H
	DB	020H
	DB	080H
	DB	00H
	DB	080H
	DB	00H
	DB	080H
	DB	00H
	DB	080H
	DB	00H
	DB	080H
	DB	00H
	DB	080H
	DB	00H
	DB	080H
	DB	00H
	DB	078H
	DB	01H
	DB	080H
	DB	00H
	DB	078H
	DB	00H
	DB	078H
	DB	01H
	DB	080H
	DB	01H
	DB	080H
	DB	00H
	DB	078H
	DB	01H
	DB	078H
	DB	01H
	DB	080H
	DB	00H
	DB	078H
	DB	01H
	DB	078H
	DB	01H
	DB	078H
	DB	01H
	DB	078H
	DB	01H
	DB	078H
	DB	01H
	DB	078H
	DB	01H
	DB	078H
	DB	01H
	DB	078H
	DB	02H
	DB	078H
	DB	01H
	DB	078H
	DB	01H
	DB	070H
	DB	01H
	DB	078H
	DB	02H
	DB	078H
	DB	02H
	DB	070H
	DB	01H
	DB	070H
	DB	02H
	DB	070H
	DB	02H
	DB	070H
	DB	01H
	DB	070H
	DB	02H
	DB	078H
	DB	02H
	DB	070H
	DB	02H
	DB	070H
	DB	02H
	DB	070H
	DB	02H
	DB	070H
	DB	02H
	DB	070H
	DB	02H
	DB	068H
	DB	02H
	DB	070H
	DB	02H
	DB	068H
	DB	02H
	DB	070H
	DB	03H
	DB	068H
	DB	03H
	DB	070H
	DB	02H
	DB	068H
	DB	03H
	DB	070H
	DB	03H
	DB	068H
	DB	03H
	DB	068H
	DB	02H
	DB	068H
	DB	03H
	DB	070H
	DB	03H
	DB	068H
	DB	03H
	DB	068H
	DB	03H
	DB	068H
	DB	03H
	DB	068H
	DB	03H
	DB	068H
	DB	03H
	DB	068H
	DB	04H
	DB	068H
	DB	03H
	DB	068H
	DB	04H
	DB	060H
	DB	03H
	DB	068H
	DB	04H
	DB	068H
	DB	04H
	DB	060H
	DB	04H
	DB	068H
	DB	04H
	DB	060H
	DB	04H
	DB	060H
	DB	04H
	DB	060H
	DB	04H
	DB	060H
	DB	04H
	DB	060H
	DB	04H
	DB	060H
	DB	04H
	DB	060H
	DB	04H
	DB	060H
	DB	04H
	DB	060H
	DB	05H
	DB	058H
	DB	04H
	DB	060H
	DB	04H
	DB	058H
	DB	05H
	DB	058H
	DB	04H
	DB	058H
	DB	05H
	DB	060H
	DB	05H
	DB	058H
	DB	05H
	DB	058H
	DB	05H
	DB	058H
	DB	05H
	DB	058H
	DB	05H
	DB	058H
	DB	05H
	DB	058H
	DB	05H
	DB	058H
	DB	05H
	DB	058H
	DB	05H
	DB	058H
	DB	05H
	DB	058H
	DB	06H
	DB	058H
	DB	05H
	DB	050H
	DB	05H
	DB	058H
	DB	05H
	DB	050H
	DB	06H
	DB	058H
	DB	05H
	DB	058H
	DB	05H
	DB	050H
	DB	06H
	DB	050H
	DB	06H
	DB	050H
	DB	06H
	DB	050H
	DB	06H
	DB	050H
	DB	06H
	DB	050H
	DB	06H
	DB	050H
	DB	06H
	DB	050H
	DB	06H
	DB	050H
	DB	06H
	DB	050H
	DB	06H
	DB	050H
	DB	06H
	DB	050H
	DB	06H
	DB	048H
	DB	06H
	DB	050H
	DB	07H
	DB	050H
	DB	07H
	DB	048H
	DB	06H
	DB	050H
	DB	07H
	DB	048H
	DB	06H
	DB	048H
	DB	07H
	DB	048H
	DB	07H
	DB	050H
	DB	06H
	DB	048H
	DB	07H
	DB	048H
	DB	07H
	DB	048H
	DB	07H
	DB	048H
	DB	07H
	DB	048H
	DB	07H
	DB	048H
	DB	07H
	DB	048H
	DB	07H
	DB	048H
	DB	07H
	DB	048H
	DB	07H
	DB	040H
	DB	08H
	DB	048H
	DB	07H
	DB	048H
	DB	07H
	DB	040H
	DB	08H
	DB	048H
	DB	08H
	DB	040H
	DB	08H
	DB	040H
	DB	07H
	DB	040H
	DB	08H
	DB	040H
	DB	08H
	DB	040H
	DB	08H
	DB	040H
	DB	08H
	DB	040H
	DB	08H
	DB	040H
	DB	08H
	DB	040H
	DB	08H
	DB	038H
	DB	09H
	DB	038H
	DB	08H
	DB	040H
	DB	09H
	DB	040H
	DB	08H
	DB	038H
	DB	08H
	DB	038H
	DB	09H
	DB	038H
	DB	09H
	DB	038H
	DB	09H
	DB	038H
	DB	09H
	DB	038H
	DB	09H
	DB	038H
	DB	09H
	DB	038H
	DB	09H
	DB	038H
	DB	09H
	DB	038H
	DB	0aH
	DB	030H
	DB	0aH
	DB	038H
	DB	09H
	DB	038H
	DB	0aH
	DB	030H
	DB	09H
	DB	030H
	DB	0aH
	DB	038H
	DB	0aH
	DB	030H
	DB	0aH
	DB	030H
	DB	0aH
	DB	030H
	DB	0aH
	DB	030H
	DB	0aH
	DB	030H
	DB	0aH
	DB	030H
	DB	0aH
	DB	030H
	DB	0bH
	DB	030H
	DB	0aH
	DB	028H
	DB	0bH
	DB	030H
	DB	0aH
	DB	030H
	DB	0bH
	DB	028H
	DB	0aH
	DB	030H
	DB	0bH
	DB	028H
	DB	0aH
	DB	028H
	DB	0bH
	DB	028H
	DB	0bH
	DB	028H
	DB	0bH
	DB	028H
	DB	0bH
	DB	028H
	DB	0bH
	DB	028H
	DB	0bH
	DB	028H
	DB	0bH
	DB	020H
	DB	0cH
	DB	020H
	DB	0bH
	DB	028H
	DB	0cH
	DB	020H
	DB	0cH
	DB	028H
	DB	0cH
	DB	020H
	DB	0cH
	DB	020H
	DB	0cH
	DB	028H
	DB	0cH
	DB	020H
	DB	0cH
	DB	020H
	DB	0cH
	DB	020H
	DB	0cH
	DB	020H
	DB	0cH
	DB	020H
	DB	0dH
	DB	018H
	DB	0cH
	DB	020H
	DB	0cH
	DB	018H
	DB	0dH
	DB	018H
	DB	0cH
	DB	018H
	DB	0dH
	DB	018H
	DB	0dH
	DB	020H
	DB	0dH
	DB	018H
	DB	0dH
	DB	018H
	DB	0dH
	DB	018H
	DB	0dH
	DB	018H
	DB	0dH
	DB	018H
	DB	0dH
	DB	018H
	DB	0dH
	DB	010H
	DB	0eH
	DB	018H
	DB	0dH
	DB	010H
	DB	0dH
	DB	018H
	DB	0eH
	DB	010H
	DB	0eH
	DB	010H
	DB	0eH
	DB	010H
	DB	0eH
	DB	010H
	DB	0eH
	DB	010H
	DB	0eH
	DB	010H
	DB	0eH
	DB	010H
	DB	0eH
	DB	010H
	DB	0eH
	DB	010H
	DB	0eH
	DB	010H
	DB	0eH
	DB	08H
	DB	0eH
	DB	08H
	DB	0fH
	DB	08H
	DB	0fH
	DB	08H
	DB	0eH
	DB	010H
	DB	0fH
	DB	08H
	DB	0eH
	DB	08H
	DB	0fH
	DB	08H
	DB	0fH
	DB	08H
	DB	0fH
	DB	08H
	DB	0fH
	DB	08H
	DB	0fH
	DB	08H
	DB	0fH
	DB	08H
	DB	010H
	DB	08H
	DB	0fH
	DB	00H
	DB	0fH
	DB	08H
	DB	010H
	DB	00H
	DB	0fH
	DB	00H
	DB	010H
	DB	08H
	DB	010H
	DB	00H
	DB	010H
	DB	00H
	DB	010H
	DB	00H
	DB	010H
	DB	00H
	DB	00H
	DB	04H
	DB	00H
	DB	04H
	DB	00H
	DB	04H
	DB	0e0H
	DB	03H
	DB	00H
	DB	04H
	DB	0e0H
	DB	03H
	DB	0e0H
	DB	0bH
	DB	0e0H
	DB	0bH
	DB	0e0H
	DB	03H
	DB	0e0H
	DB	03H
	DB	0e0H
	DB	0bH
	DB	0e0H
	DB	0bH
	DB	0e0H
	DB	0bH
	DB	0c0H
	DB	0bH
	DB	0c0H
	DB	0bH
	DB	0c0H
	DB	0bH
	DB	0c0H
	DB	0bH
	DB	0c0H
	DB	0bH
	DB	0c0H
	DB	0bH
	DB	0a0H
	DB	013H
	DB	0a0H
	DB	013H
	DB	0a0H
	DB	0bH
	DB	0a0H
	DB	0bH
	DB	0a0H
	DB	013H
	DB	0a0H
	DB	013H
	DB	080H
	DB	0bH
	DB	0a0H
	DB	013H
	DB	080H
	DB	013H
	DB	080H
	DB	013H
	DB	080H
	DB	013H
	DB	080H
	DB	013H
	DB	080H
	DB	013H
	DB	080H
	DB	013H
	DB	080H
	DB	013H
	DB	060H
	DB	01bH
	DB	060H
	DB	01bH
	DB	060H
	DB	01bH
	DB	060H
	DB	013H
	DB	060H
	DB	013H
	DB	060H
	DB	01bH
	DB	060H
	DB	013H
	DB	060H
	DB	013H
	DB	040H
	DB	01bH
	DB	040H
	DB	01bH
	DB	040H
	DB	01bH
	DB	040H
	DB	01bH
	DB	040H
	DB	01bH
	DB	040H
	DB	01bH
	DB	040H
	DB	01bH
	DB	020H
	DB	01bH
	DB	020H
	DB	01bH
	DB	020H
	DB	023H
	DB	020H
	DB	023H
	DB	020H
	DB	01bH
	DB	020H
	DB	023H
	DB	00H
	DB	023H
	DB	00H
	DB	023H
	DB	00H
	DB	023H
	DB	00H
	DB	023H
	DB	00H
	DB	023H
	DB	00H
	DB	023H
	DB	00H
	DB	023H
	DB	0e0H
	DB	022H
	DB	0e0H
	DB	022H
	DB	0e0H
	DB	02aH
	DB	0e0H
	DB	022H
	DB	0e0H
	DB	022H
	DB	0e0H
	DB	02aH
	DB	0e0H
	DB	022H
	DB	0e0H
	DB	02aH
	DB	0c0H
	DB	02aH
	DB	0c0H
	DB	02aH
	DB	0c0H
	DB	022H
	DB	0c0H
	DB	02aH
	DB	0c0H
	DB	02aH
	DB	0c0H
	DB	02aH
	DB	0c0H
	DB	02aH
	DB	0a0H
	DB	02aH
	DB	0c0H
	DB	02aH
	DB	0a0H
	DB	02aH
	DB	0a0H
	DB	032H
	DB	0a0H
	DB	02aH
	DB	0a0H
	DB	02aH
	DB	0a0H
	DB	02aH
	DB	0a0H
	DB	032H
	DB	080H
	DB	032H
	DB	080H
	DB	032H
	DB	080H
	DB	032H
	DB	080H
	DB	032H
	DB	080H
	DB	032H
	DB	080H
	DB	032H
	DB	060H
	DB	032H
	DB	080H
	DB	032H
	DB	060H
	DB	03aH
	DB	060H
	DB	032H
	DB	060H
	DB	03aH
	DB	060H
	DB	03aH
	DB	060H
	DB	032H
	DB	040H
	DB	03aH
	DB	060H
	DB	03aH
	DB	060H
	DB	032H
	DB	040H
	DB	03aH
	DB	040H
	DB	03aH
	DB	040H
	DB	03aH
	DB	040H
	DB	03aH
	DB	040H
	DB	03aH
	DB	020H
	DB	03aH
	DB	020H
	DB	03aH
	DB	040H
	DB	042H
	DB	020H
	DB	03aH
	DB	020H
	DB	042H
	DB	020H
	DB	03aH
	DB	020H
	DB	042H
	DB	00H
	DB	03aH
	DB	020H
	DB	042H
	DB	00H
	DB	042H
	DB	020H
	DB	042H
	DB	00H
	DB	042H
	DB	00H
	DB	042H
	DB	00H
	DB	042H
	DB	00H
	DB	042H
	DB	0e0H
	DB	049H
	DB	00H
	DB	042H
	DB	0e0H
	DB	049H
	DB	0e0H
	DB	041H
	DB	0e0H
	DB	049H
	DB	0e0H
	DB	049H
	DB	0e0H
	DB	041H
	DB	0c0H
	DB	041H
	DB	0e0H
	DB	049H
	DB	0c0H
	DB	049H
	DB	0c0H
	DB	041H
	DB	0c0H
	DB	049H
	DB	0c0H
	DB	049H
	DB	0c0H
	DB	049H
	DB	0c0H
	DB	049H
	DB	0a0H
	DB	049H
	DB	0c0H
	DB	051H
	DB	0a0H
	DB	051H
	DB	0a0H
	DB	051H
	DB	0a0H
	DB	049H
	DB	0a0H
	DB	049H
	DB	0a0H
	DB	051H
	DB	080H
	DB	051H
	DB	080H
	DB	051H
	DB	0a0H
	DB	049H
	DB	080H
	DB	051H
	DB	080H
	DB	051H
	DB	080H
	DB	051H
	DB	080H
	DB	051H
	DB	080H
	DB	051H
	DB	060H
	DB	051H
	DB	080H
	DB	051H
	DB	080H
	DB	059H
	DB	060H
	DB	051H
	DB	060H
	DB	059H
	DB	060H
	DB	051H
	DB	060H
	DB	051H
	DB	040H
	DB	059H
	DB	060H
	DB	059H
	DB	040H
	DB	059H
	DB	040H
	DB	059H
	DB	040H
	DB	059H
	DB	040H
	DB	059H
	DB	040H
	DB	059H
	DB	040H
	DB	059H
	DB	040H
	DB	059H
	DB	040H
	DB	061H
	DB	020H
	DB	061H
	DB	020H
	DB	061H
	DB	020H
	DB	059H
	DB	020H
	DB	059H
	DB	020H
	DB	061H
	DB	020H
	DB	061H
	DB	020H
	DB	061H
	DB	020H
	DB	061H
	DB	00H
	DB	061H
	DB	00H
	DB	061H
	DB	00H
	DB	061H
	DB	00H
	DB	061H
	DB	00H
	DB	061H
	DB	0e0H
	DB	060H
	DB	00H
	DB	069H
	DB	0e0H
	DB	060H
	DB	0e0H
	DB	060H
	DB	0e0H
	DB	068H
	DB	0e0H
	DB	060H
	DB	0e0H
	DB	068H
	DB	0c0H
	DB	068H
	DB	0e0H
	DB	068H
	DB	0c0H
	DB	068H
	DB	0c0H
	DB	068H
	DB	0c0H
	DB	068H
	DB	0c0H
	DB	068H
	DB	0c0H
	DB	068H
	DB	0c0H
	DB	068H
	DB	0a0H
	DB	068H
	DB	0a0H
	DB	068H
	DB	0c0H
	DB	070H
	DB	0a0H
	DB	070H
	DB	0a0H
	DB	068H
	DB	0a0H
	DB	068H
	DB	0a0H
	DB	070H
	DB	0a0H
	DB	068H
	DB	080H
	DB	070H
	DB	080H
	DB	068H
	DB	080H
	DB	070H
	DB	080H
	DB	070H
	DB	080H
	DB	070H
	DB	080H
	DB	070H
	DB	080H
	DB	070H
	DB	080H
	DB	070H
	DB	060H
	DB	078H
	DB	080H
	DB	078H
	DB	060H
	DB	070H
	DB	060H
	DB	070H
	DB	060H
	DB	078H
	DB	060H
	DB	070H
	DB	060H
	DB	070H
	DB	040H
	DB	078H
	DB	060H
	DB	078H
	DB	040H
	DB	070H
	DB	040H
	DB	078H
	DB	040H
	DB	078H
	DB	040H
	DB	078H
	DB	040H
	DB	078H
	DB	040H
	DB	078H
	DB	020H
	DB	078H
	DB	040H
	DB	078H
	DB	020H
	DB	078H
	DB	020H
	DB	078H
	DB	020H
	DB	080H
	DB	020H
	DB	080H
	DB	020H
	DB	078H
	DB	00H
	DB	078H
	DB	020H
	DB	080H
	DB	00H
	DB	080H
	DB	00H
	DB	080H
	DB	00H
	DB	080H
	DB	00H
	DB	080H
	DB	00H
	DB	080H
	DB	00H
	DB	080H
	DB	00H
	DB	080H
	DB	01H
	DB	078H
	DB	00H
	DB	080H
	DB	00H
	DB	080H
	DB	01H
	DB	080H
	DB	00H
	DB	078H
	DB	01H
	DB	080H
	DB	00H
	DB	078H
	DB	01H
	DB	080H
	DB	01H
	DB	078H
	DB	01H
	DB	078H
	DB	01H
	DB	078H
	DB	01H
	DB	078H
	DB	01H
	DB	078H
	DB	01H
	DB	078H
	DB	01H
	DB	078H
	DB	01H
	DB	078H
	DB	01H
	DB	078H
	DB	01H
	DB	078H
	DB	01H
	DB	078H
	DB	02H
	DB	070H
	DB	01H
	DB	078H
	DB	02H
	DB	078H
	DB	02H
	DB	070H
	DB	02H
	DB	078H
	DB	01H
	DB	070H
	DB	02H
	DB	070H
	DB	02H
	DB	070H
	DB	02H
	DB	070H
	DB	02H
	DB	070H
	DB	02H
	DB	070H
	DB	02H
	DB	070H
	DB	02H
	DB	070H
	DB	02H
	DB	070H
	DB	03H
	DB	070H
	DB	02H
	DB	070H
	DB	02H
	DB	070H
	DB	03H
	DB	068H
	DB	03H
	DB	070H
	DB	03H
	DB	070H
	DB	02H
	DB	068H
	DB	03H
	DB	068H
	DB	03H
	DB	070H
	DB	03H
	DB	068H
	DB	03H
	DB	068H
	DB	03H
	DB	068H
	DB	03H
	DB	068H
	DB	03H
	DB	068H
	DB	03H
	DB	068H
	DB	03H
	DB	068H
	DB	03H
	DB	060H
	DB	03H
	DB	068H
	DB	03H
	DB	068H
	DB	04H
	DB	060H
	DB	03H
	DB	068H
	DB	03H
	DB	060H
	DB	03H
	DB	060H
	DB	04H
	DB	068H
	DB	04H
	DB	060H
	DB	03H
	DB	060H
	DB	04H
	DB	060H
	DB	04H
	DB	060H
	DB	04H
	DB	060H
	DB	04H
	DB	060H
	DB	04H
	DB	060H
	DB	04H
	DB	060H
	DB	04H
	DB	060H
	DB	05H
	DB	058H
	DB	04H
	DB	060H
	DB	04H
	DB	060H
	DB	05H
	DB	060H
	DB	04H
	DB	058H
	DB	04H
	DB	060H
	DB	05H
	DB	060H
	DB	05H
	DB	058H
	DB	04H
	DB	058H
	DB	05H
	DB	060H
	DB	05H
	DB	058H
	DB	05H
	DB	058H
	DB	05H
	DB	058H
	DB	05H
	DB	058H
	DB	05H
	DB	058H
	DB	05H
	DB	058H
	DB	05H
	DB	058H
	DB	05H
	DB	058H
	DB	05H
	DB	050H
	DB	06H
	DB	058H
	DB	06H
	DB	050H
	DB	05H
	DB	058H
	DB	06H
	DB	050H
	DB	05H
	DB	050H
	DB	06H
	DB	058H
	DB	05H
	DB	050H
	DB	06H
	DB	050H
	DB	05H
	DB	058H
	DB	06H
	DB	050H
	DB	06H
	DB	050H
	DB	06H
	DB	050H
	DB	06H
	DB	050H
	DB	06H
	DB	050H
	DB	07H
	DB	050H
	DB	06H
	DB	048H
	DB	06H
	DB	050H
	DB	07H
	DB	048H
	DB	06H
	DB	050H
	DB	06H
	DB	048H
	DB	07H
	DB	050H
	DB	07H
	DB	048H
	DB	07H
	DB	048H
	DB	06H
	DB	048H
	DB	07H
	DB	048H
	DB	07H
	DB	048H
	DB	07H
	DB	048H
	DB	07H
	DB	048H
	DB	07H
	DB	048H
	DB	07H
	DB	048H
	DB	07H
	DB	048H
	DB	07H
	DB	040H
	DB	07H
	DB	048H
	DB	08H
	DB	048H
	DB	08H
	DB	040H
	DB	07H
	DB	048H
	DB	08H
	DB	040H
	DB	08H
	DB	048H
	DB	07H
	DB	040H
	DB	08H
	DB	040H
	DB	08H
	DB	048H
	DB	08H
	DB	040H
	DB	08H
	DB	040H
	DB	08H
	DB	040H
	DB	08H
	DB	040H
	DB	08H
	DB	040H
	DB	08H
	DB	040H
	DB	08H
	DB	040H
	DB	09H
	DB	038H
	DB	08H
	DB	040H
	DB	08H
	DB	040H
	DB	09H
	DB	038H
	DB	09H
	DB	038H
	DB	08H
	DB	040H
	DB	09H
	DB	038H
	DB	09H
	DB	038H
	DB	09H
	DB	038H
	DB	09H
	DB	038H
	DB	09H
	DB	038H
	DB	09H
	DB	038H
	DB	09H
	DB	038H
	DB	09H
	DB	038H
	DB	0aH
	DB	030H
	DB	09H
	DB	038H
	DB	09H
	DB	030H
	DB	0aH
	DB	030H
	DB	0aH
	DB	038H
	DB	09H
	DB	030H
	DB	0aH
	DB	030H
	DB	0aH
	DB	030H
	DB	0aH
	DB	030H
	DB	0aH
	DB	030H
	DB	0aH
	DB	030H
	DB	0aH
	DB	030H
	DB	0aH
	DB	030H
	DB	0aH
	DB	028H
	DB	0bH
	DB	030H
	DB	0aH
	DB	028H
	DB	0bH
	DB	028H
	DB	0bH
	DB	030H
	DB	0bH
	DB	028H
	DB	0bH
	DB	028H
	DB	0bH
	DB	028H
	DB	0bH
	DB	028H
	DB	0bH
	DB	028H
	DB	0bH
	DB	028H
	DB	0bH
	DB	028H
	DB	0cH
	DB	028H
	DB	0bH
	DB	028H
	DB	0cH
	DB	020H
	DB	0bH
	DB	028H
	DB	0bH
	DB	020H
	DB	0bH
	DB	020H
	DB	0cH
	DB	028H
	DB	0cH
	DB	020H
	DB	0cH
	DB	020H
	DB	0cH
	DB	020H
	DB	0cH
	DB	020H
	DB	0cH
	DB	020H
	DB	0cH
	DB	020H
	DB	0cH
	DB	020H
	DB	0dH
	DB	018H
	DB	0cH
	DB	020H
	DB	0cH
	DB	020H
	DB	0dH
	DB	018H
	DB	0dH
	DB	018H
	DB	0cH
	DB	020H
	DB	0dH
	DB	020H
	DB	0dH
	DB	018H
	DB	0dH
	DB	018H
	DB	0dH
	DB	018H
	DB	0dH
	DB	018H
	DB	0dH
	DB	018H
	DB	0dH
	DB	018H
	DB	0dH
	DB	010H
	DB	0eH
	DB	018H
	DB	0eH
	DB	018H
	DB	0dH
	DB	010H
	DB	0eH
	DB	018H
	DB	0dH
	DB	018H
	DB	0dH
	DB	010H
	DB	0eH
	DB	010H
	DB	0eH
	DB	010H
	DB	0eH
	DB	010H
	DB	0eH
	DB	010H
	DB	0eH
	DB	010H
	DB	0eH
	DB	010H
	DB	0fH
	DB	08H
	DB	0fH
	DB	010H
	DB	0eH
	DB	010H
	DB	0eH
	DB	010H
	DB	0fH
	DB	010H
	DB	0eH
	DB	08H
	DB	0fH
	DB	08H
	DB	0fH
	DB	08H
	DB	0fH
	DB	08H
	DB	0fH
	DB	08H
	DB	0fH
	DB	08H
	DB	0fH
	DB	08H
	DB	0fH
	DB	08H
	DB	0fH
	DB	08H
	DB	0fH
	DB	00H
	DB	0fH
	DB	08H
	DB	010H
	DB	00H
	DB	010H
	DB	08H
	DB	0fH
	DB	00H
	DB	010H
	DB	00H
	DB	010H
	DB	00H
	DB	010H
	DB	08H
	DB	010H
	DB	00H
	DB	010H
	DB	00H
	DB	010H
	DB	00H
	DB	00H
	DB	04H
	DB	00H
	DB	04H
	DB	00H
	DB	04H
	DB	00H
	DB	04H
	DB	0e0H
	DB	0bH
	DB	0e0H
	DB	0bH
	DB	00H
	DB	04H
	DB	0e0H
	DB	03H
	DB	0e0H
	DB	0bH
	DB	0e0H
	DB	0bH
	DB	0e0H
	DB	0bH
	DB	0c0H
	DB	0bH
	DB	0c0H
	DB	03H
	DB	0c0H
	DB	0bH
	DB	0c0H
	DB	0bH
	DB	0c0H
	DB	0bH
	DB	0c0H
	DB	0bH
	DB	0c0H
	DB	0bH
	DB	0a0H
	DB	0bH
	DB	0c0H
	DB	0bH
	DB	0a0H
	DB	013H
	DB	0a0H
	DB	0bH
	DB	0a0H
	DB	0bH
	DB	0a0H
	DB	013H
	DB	0a0H
	DB	013H
	DB	080H
	DB	0bH
	DB	0a0H
	DB	013H
	DB	080H
	DB	013H
	DB	0a0H
	DB	013H
	DB	080H
	DB	013H
	DB	080H
	DB	013H
	DB	080H
	DB	013H
	DB	080H
	DB	013H
	DB	060H
	DB	013H
	DB	060H
	DB	013H
	DB	080H
	DB	013H
	DB	060H
	DB	01bH
	DB	060H
	DB	01bH
	DB	060H
	DB	01bH
	DB	060H
	DB	013H
	DB	040H
	DB	01bH
	DB	060H
	DB	01bH
	DB	040H
	DB	01bH
	DB	040H
	DB	01bH
	DB	040H
	DB	01bH
	DB	040H
	DB	01bH
	DB	040H
	DB	01bH
	DB	020H
	DB	01bH
	DB	020H
	DB	023H
	DB	040H
	DB	01bH
	DB	020H
	DB	01bH
	DB	020H
	DB	023H
	DB	020H
	DB	01bH
	DB	020H
	DB	01bH
	DB	020H
	DB	023H
	DB	020H
	DB	023H
	DB	020H
	DB	01bH
	DB	00H
	DB	023H
	DB	00H
	DB	023H
	DB	00H
	DB	023H
	DB	00H
	DB	023H
	DB	00H
	DB	023H
	DB	0e0H
	DB	022H
	DB	0e0H
	DB	022H
	DB	0e0H
	DB	02aH
	DB	0e0H
	DB	02aH
	DB	0e0H
	DB	022H
	DB	0e0H
	DB	02aH
	DB	0e0H
	DB	02aH
	DB	0e0H
	DB	022H
	DB	0c0H
	DB	02aH
	DB	0c0H
	DB	02aH
	DB	0e0H
	DB	02aH
	DB	0c0H
	DB	02aH
	DB	0c0H
	DB	02aH
	DB	0c0H
	DB	02aH
	DB	0c0H
	DB	02aH
	DB	0c0H
	DB	02aH
	DB	0a0H
	DB	032H
	DB	0a0H
	DB	02aH
	DB	0a0H
	DB	02aH
	DB	0a0H
	DB	032H
	DB	0a0H
	DB	02aH
	DB	0a0H
	DB	032H
	DB	0a0H
	DB	032H
	DB	080H
	DB	02aH
	DB	0a0H
	DB	02aH
	DB	080H
	DB	032H
	DB	080H
	DB	032H
	DB	080H
	DB	032H
	DB	080H
	DB	032H
	DB	080H
	DB	032H
	DB	080H
	DB	032H
	DB	080H
	DB	032H
	DB	060H
	DB	03aH
	DB	060H
	DB	03aH
	DB	060H
	DB	03aH
	DB	060H
	DB	032H
	DB	060H
	DB	03aH
	DB	060H
	DB	03aH
	DB	040H
	DB	03aH
	DB	060H
	DB	03aH
	DB	040H
	DB	03aH
	DB	040H
	DB	03aH
	DB	040H
	DB	03aH
	DB	040H
	DB	03aH
	DB	040H
	DB	03aH
	DB	040H
	DB	03aH
	DB	040H
	DB	042H
	DB	020H
	DB	042H
	DB	020H
	DB	03aH
	DB	020H
	DB	03aH
	DB	020H
	DB	042H
	DB	00H
	DB	042H
	DB	020H
	DB	042H
	DB	020H
	DB	042H
	DB	00H
	DB	042H
	DB	00H
	DB	042H
	DB	00H
	DB	042H
	DB	00H
	DB	042H
	DB	00H
	DB	042H
	DB	00H
	DB	042H
	DB	0e0H
	DB	049H
	DB	0e0H
	DB	041H
	DB	0e0H
	DB	041H
	DB	0e0H
	DB	049H
	DB	0e0H
	DB	049H
	DB	0e0H
	DB	049H
	DB	0e0H
	DB	049H
	DB	0c0H
	DB	049H
	DB	0e0H
	DB	049H
	DB	0c0H
	DB	049H
	DB	0c0H
	DB	049H
	DB	0c0H
	DB	049H
	DB	0c0H
	DB	049H
	DB	0c0H
	DB	049H
	DB	0c0H
	DB	049H
	DB	0a0H
	DB	049H
	DB	0a0H
	DB	049H
	DB	0a0H
	DB	051H
	DB	0a0H
	DB	049H
	DB	0a0H
	DB	049H
	DB	0a0H
	DB	051H
	DB	080H
	DB	051H
	DB	0a0H
	DB	051H
	DB	0a0H
	DB	051H
	DB	080H
	DB	051H
	DB	080H
	DB	051H
	DB	080H
	DB	051H
	DB	080H
	DB	051H
	DB	080H
	DB	051H
	DB	060H
	DB	051H
	DB	060H
	DB	051H
	DB	060H
	DB	059H
	DB	060H
	DB	059H
	DB	060H
	DB	051H
	DB	060H
	DB	059H
	DB	060H
	DB	051H
	DB	060H
	DB	059H
	DB	060H
	DB	059H
	DB	040H
	DB	059H
	DB	040H
	DB	059H
	DB	060H
	DB	059H
	DB	040H
	DB	059H
	DB	040H
	DB	059H
	DB	040H
	DB	059H
	DB	020H
	DB	059H
	DB	020H
	DB	059H
	DB	040H
	DB	059H
	DB	020H
	DB	061H
	DB	020H
	DB	061H
	DB	020H
	DB	059H
	DB	020H
	DB	061H
	DB	020H
	DB	059H
	DB	00H
	DB	061H
	DB	00H
	DB	061H
	DB	00H
	DB	061H
	DB	00H
	DB	061H
	DB	00H
	DB	061H
	DB	00H
	DB	061H
	DB	00H
	DB	061H
	DB	0e0H
	DB	060H
	DB	00H
	DB	061H
	DB	0e0H
	DB	068H
	DB	0e0H
	DB	068H
	DB	0e0H
	DB	060H
	DB	0e0H
	DB	060H
	DB	0e0H
	DB	060H
	DB	0e0H
	DB	068H
	DB	0c0H
	DB	060H
	DB	0e0H
	DB	068H
	DB	0c0H
	DB	068H
	DB	0c0H
	DB	068H
	DB	0c0H
	DB	068H
	DB	0c0H
	DB	068H
	DB	0c0H
	DB	068H
	DB	0c0H
	DB	068H
	DB	0c0H
	DB	068H
	DB	0a0H
	DB	068H
	DB	0a0H
	DB	068H
	DB	0a0H
	DB	070H
	DB	0a0H
	DB	070H
	DB	0a0H
	DB	070H
	DB	080H
	DB	070H
	DB	0a0H
	DB	070H
	DB	080H
	DB	070H
	DB	080H
	DB	070H
	DB	0a0H
	DB	070H
	DB	080H
	DB	070H
	DB	080H
	DB	070H
	DB	080H
	DB	070H
	DB	060H
	DB	070H
	DB	080H
	DB	070H
	DB	060H
	DB	070H
	DB	060H
	DB	078H
	DB	060H
	DB	070H
	DB	060H
	DB	078H
	DB	060H
	DB	078H
	DB	060H
	DB	078H
	DB	040H
	DB	078H
	DB	060H
	DB	078H
	DB	040H
	DB	078H
	DB	040H
	DB	078H
	DB	040H
	DB	078H
	DB	040H
	DB	078H
	DB	040H
	DB	078H
	DB	020H
	DB	078H
	DB	040H
	DB	078H
	DB	020H
	DB	080H
	DB	020H
	DB	078H
	DB	020H
	DB	078H
	DB	020H
	DB	080H
	DB	020H
	DB	080H
	DB	020H
	DB	078H
	DB	020H
	DB	080H
	DB	00H
	DB	080H
	DB	00H
	DB	080H
	DB	00H
	DB	080H
	DB	00H
	DB	080H
	DB	00H
	DB	080H
	DB	00H
	DB	080H
	DB	00H
	DB	080H
	DB	01H
	DB	080H
	DB	00H
	DB	080H
	DB	00H
	DB	080H
	DB	01H
	DB	080H
	DB	01H
	DB	078H
	DB	00H
	DB	078H
	DB	00H
	DB	080H
	DB	01H
	DB	078H
	DB	01H
	DB	078H
	DB	01H
	DB	078H
	DB	01H
	DB	080H
	DB	01H
	DB	078H
	DB	01H
	DB	078H
	DB	01H
	DB	078H
	DB	01H
	DB	078H
	DB	01H
	DB	078H
	DB	01H
	DB	078H
	DB	01H
	DB	070H
	DB	02H
	DB	070H
	DB	02H
	DB	078H
	DB	01H
	DB	078H
	DB	02H
	DB	070H
	DB	01H
	DB	070H
	DB	01H
	DB	078H
	DB	02H
	DB	070H
	DB	02H
	DB	070H
	DB	02H
	DB	078H
	DB	02H
	DB	070H
	DB	02H
	DB	070H
	DB	02H
	DB	070H
	DB	02H
	DB	070H
	DB	02H
	DB	070H
	DB	02H
	DB	070H
	DB	02H
	DB	070H
	DB	02H
	DB	068H
	DB	02H
	DB	070H
	DB	03H
	DB	070H
	DB	02H
	DB	068H
	DB	02H
	DB	068H
	DB	03H
	DB	070H
	DB	03H
	DB	068H
	DB	02H
	DB	068H
	DB	03H
	DB	068H
	DB	03H
	DB	070H
	DB	03H
	DB	068H
	DB	03H
	DB	068H
	DB	03H
	DB	068H
	DB	03H
	DB	068H
	DB	03H
	DB	068H
	DB	03H
	DB	068H
	DB	03H
	DB	068H
	DB	04H
	DB	068H
	DB	03H
	DB	060H
	DB	03H
	DB	068H
	DB	04H
	DB	060H
	DB	04H
	DB	068H
	DB	03H
	DB	060H
	DB	04H
	DB	060H
	DB	04H
	DB	068H
	DB	03H
	DB	060H
	DB	04H
	DB	068H
	DB	04H
	DB	060H
	DB	04H
	DB	060H
	DB	04H
	DB	060H
	DB	04H
	DB	060H
	DB	04H
	DB	060H
	DB	04H
	DB	060H
	DB	04H
	DB	060H
	DB	05H
	DB	058H
	DB	04H
	DB	060H
	DB	04H
	DB	060H
	DB	05H
	DB	058H
	DB	05H
	DB	060H
	DB	04H
	DB	058H
	DB	04H
	DB	058H
	DB	05H
	DB	060H
	DB	05H
	DB	058H
	DB	04H
	DB	058H
	DB	05H
	DB	058H
	DB	05H
	DB	058H
	DB	05H
	DB	058H
	DB	05H
	DB	058H
	DB	05H
	DB	058H
	DB	05H
	DB	058H
	DB	05H
	DB	058H
	DB	06H
	DB	058H
	DB	05H
	DB	058H
	DB	05H
	DB	050H
	DB	06H
	DB	058H
	DB	06H
	DB	058H
	DB	06H
	DB	050H
	DB	06H
	DB	058H
	DB	06H
	DB	050H
	DB	06H
	DB	050H
	DB	06H
	DB	050H
	DB	06H
	DB	050H
	DB	06H
	DB	050H
	DB	06H
	DB	050H
	DB	06H
	DB	050H
	DB	06H
	DB	050H
	DB	06H
	DB	050H
	DB	06H
	DB	050H
	DB	07H
	DB	050H
	DB	06H
	DB	050H
	DB	06H
	DB	048H
	DB	07H
	DB	048H
	DB	07H
	DB	050H
	DB	06H
	DB	050H
	DB	07H
	DB	048H
	DB	07H
	DB	050H
	DB	07H
	DB	048H
	DB	07H
	DB	048H
	DB	07H
	DB	048H
	DB	07H
	DB	048H
	DB	07H
	DB	048H
	DB	07H
	DB	048H
	DB	07H
	DB	048H
	DB	08H
	DB	048H
	DB	07H
	DB	048H
	DB	07H
	DB	040H
	DB	08H
	DB	040H
	DB	07H
	DB	048H
	DB	07H
	DB	040H
	DB	08H
	DB	048H
	DB	08H
	DB	040H
	DB	07H
	DB	040H
	DB	08H
	DB	040H
	DB	08H
	DB	048H
	DB	08H
	DB	040H
	DB	08H
	DB	040H
	DB	08H
	DB	040H
	DB	08H
	DB	040H
	DB	08H
	DB	040H
	DB	08H
	DB	040H
	DB	09H
	DB	040H
	DB	08H
	DB	038H
	DB	08H
	DB	040H
	DB	09H
	DB	038H
	DB	09H
	DB	038H
	DB	08H
	DB	040H
	DB	09H
	DB	038H
	DB	09H
	DB	038H
	DB	09H
	DB	038H
	DB	09H
	DB	038H
	DB	09H
	DB	038H
	DB	09H
	DB	038H
	DB	09H
	DB	038H
	DB	09H
	DB	038H
	DB	0aH
	DB	030H
	DB	09H
	DB	030H
	DB	09H
	DB	038H
	DB	0aH
	DB	038H
	DB	0aH
	DB	030H
	DB	09H
	DB	030H
	DB	0aH
	DB	030H
	DB	0aH
	DB	030H
	DB	0aH
	DB	030H
	DB	0aH
	DB	030H
	DB	0aH
	DB	030H
	DB	0aH
	DB	030H
	DB	0aH
	DB	028H
	DB	0bH
	DB	030H
	DB	0aH
	DB	028H
	DB	0aH
	DB	030H
	DB	0aH
	DB	028H
	DB	0bH
	DB	028H
	DB	0aH
	DB	028H
	DB	0bH
	DB	030H
	DB	0bH
	DB	028H
	DB	0bH
	DB	028H
	DB	0bH
	DB	028H
	DB	0bH
	DB	028H
	DB	0bH
	DB	028H
	DB	0bH
	DB	028H
	DB	0bH
	DB	020H
	DB	0cH
	DB	028H
	DB	0bH
	DB	028H
	DB	0cH
	DB	020H
	DB	0cH
	DB	020H
	DB	0bH
	DB	028H
	DB	0cH
	DB	020H
	DB	0bH
	DB	020H
	DB	0cH
	DB	020H
	DB	0cH
	DB	020H
	DB	0cH
	DB	020H
	DB	0cH
	DB	020H
	DB	0cH
	DB	020H
	DB	0dH
	DB	020H
	DB	0cH
	DB	018H
	DB	0dH
	DB	020H
	DB	0dH
	DB	020H
	DB	0dH
	DB	018H
	DB	0cH
	DB	018H
	DB	0dH
	DB	018H
	DB	0dH
	DB	018H
	DB	0dH
	DB	018H
	DB	0dH
	DB	018H
	DB	0dH
	DB	018H
	DB	0dH
	DB	018H
	DB	0dH
	DB	018H
	DB	0dH
	DB	018H
	DB	0eH
	DB	018H
	DB	0dH
	DB	010H
	DB	0dH
	DB	010H
	DB	0eH
	DB	010H
	DB	0eH
	DB	018H
	DB	0dH
	DB	010H
	DB	0eH
	DB	018H
	DB	0eH
	DB	018H
	DB	0eH
	DB	010H
	DB	0eH
	DB	010H
	DB	0eH
	DB	010H
	DB	0eH
	DB	010H
	DB	0eH
	DB	010H
	DB	0fH
	DB	010H
	DB	0eH
	DB	08H
	DB	0fH
	DB	08H
	DB	0fH
	DB	010H
	DB	0eH
	DB	010H
	DB	0fH
	DB	08H
	DB	0fH
	DB	010H
	DB	0fH
	DB	08H
	DB	0fH
	DB	08H
	DB	0fH
	DB	08H
	DB	0fH
	DB	08H
	DB	0fH
	DB	08H
	DB	010H
	DB	08H
	DB	0fH
	DB	00H
	DB	0fH
	DB	08H
	DB	010H
	DB	00H
	DB	0fH
	DB	08H
	DB	0fH
	DB	08H
	DB	010H
	DB	00H
	DB	010H
	DB	00H
	DB	010H
	DB	00H
	DB	0fH
	DB	00H
	DB	010H
	DB	00H
	DB	010H
	DB	00H
	DB	00H
	DB	04H
	DB	00H
	DB	04H
	DB	00H
	DB	04H
	DB	0e0H
	DB	03H
	DB	00H
	DB	04H
	DB	0e0H
	DB	03H
	DB	0e0H
	DB	03H
	DB	0e0H
	DB	0bH
	DB	0e0H
	DB	03H
	DB	0e0H
	DB	0bH
	DB	0c0H
	DB	03H
	DB	0e0H
	DB	03H
	DB	0e0H
	DB	0bH
	DB	0e0H
	DB	0bH
	DB	0c0H
	DB	0bH
	DB	0c0H
	DB	0bH
	DB	0c0H
	DB	0bH
	DB	0c0H
	DB	0bH
	DB	0a0H
	DB	0bH
	DB	0a0H
	DB	0bH
	DB	0c0H
	DB	0bH
	DB	0a0H
	DB	013H
	DB	0a0H
	DB	013H
	DB	0a0H
	DB	0bH
	DB	0a0H
	DB	013H
	DB	0a0H
	DB	013H
	DB	080H
	DB	0bH
	DB	080H
	DB	013H
	DB	080H
	DB	013H
	DB	080H
	DB	013H
	DB	080H
	DB	013H
	DB	080H
	DB	013H
	DB	080H
	DB	013H
	DB	060H
	DB	01bH
	DB	080H
	DB	013H
	DB	060H
	DB	013H
	DB	060H
	DB	013H
	DB	060H
	DB	01bH
	DB	060H
	DB	013H
	DB	060H
	DB	01bH
	DB	040H
	DB	01bH
	DB	040H
	DB	01bH
	DB	040H
	DB	013H
	DB	040H
	DB	01bH
	DB	040H
	DB	01bH
	DB	040H
	DB	01bH
	DB	040H
	DB	01bH
	DB	040H
	DB	01bH
	DB	020H
	DB	01bH
	DB	040H
	DB	023H
	DB	020H
	DB	01bH
	DB	020H
	DB	023H
	DB	020H
	DB	023H
	DB	020H
	DB	023H
	DB	00H
	DB	01bH
	DB	020H
	DB	023H
	DB	020H
	DB	023H
	DB	00H
	DB	023H
	DB	00H
	DB	023H
	DB	00H
	DB	023H
	DB	00H
	DB	023H
	DB	00H
	DB	023H
	DB	00H
	DB	023H
	DB	0e0H
	DB	02aH
	DB	00H
	DB	023H
	DB	0e0H
	DB	022H
	DB	0e0H
	DB	02aH
	DB	0e0H
	DB	02aH
	DB	0e0H
	DB	022H
	DB	0e0H
	DB	02aH
	DB	0e0H
	DB	02aH
	DB	0e0H
	DB	02aH
	DB	0c0H
	DB	02aH
	DB	0c0H
	DB	02aH
	DB	0c0H
	DB	02aH
	DB	0c0H
	DB	02aH
	DB	0c0H
	DB	02aH
	DB	0a0H
	DB	02aH
	DB	0a0H
	DB	032H
	DB	0a0H
	DB	02aH
	DB	0a0H
	DB	032H
	DB	0a0H
	DB	032H
	DB	0a0H
	DB	032H
	DB	0a0H
	DB	032H
	DB	080H
	DB	032H
	DB	0a0H
	DB	032H
	DB	080H
	DB	032H
	DB	080H
	DB	032H
	DB	080H
	DB	032H
	DB	080H
	DB	032H
	DB	080H
	DB	032H
	DB	080H
	DB	032H
	DB	060H
	DB	03aH
	DB	060H
	DB	032H
	DB	060H
	DB	032H
	DB	060H
	DB	032H
	DB	060H
	DB	032H
	DB	060H
	DB	03aH
	DB	040H
	DB	032H
	DB	040H
	DB	03aH
	DB	040H
	DB	03aH
	DB	040H
	DB	03aH
	DB	040H
	DB	03aH
	DB	040H
	DB	03aH
	DB	040H
	DB	03aH
	DB	040H
	DB	03aH
	DB	020H
	DB	03aH
	DB	020H
	DB	03aH
	DB	020H
	DB	03aH
	DB	020H
	DB	03aH
	DB	020H
	DB	042H
	DB	020H
	DB	042H
	DB	020H
	DB	03aH
	DB	00H
	DB	03aH
	DB	00H
	DB	042H
	DB	020H
	DB	042H
	DB	00H
	DB	042H
	DB	00H
	DB	042H
	DB	00H
	DB	042H
	DB	00H
	DB	042H
	DB	00H
	DB	042H
	DB	0e0H
	DB	041H
	DB	00H
	DB	042H
	DB	0e0H
	DB	041H
	DB	0e0H
	DB	041H
	DB	0e0H
	DB	041H
	DB	0e0H
	DB	049H
	DB	0e0H
	DB	041H
	DB	0e0H
	DB	049H
	DB	0c0H
	DB	041H
	DB	0c0H
	DB	049H
	DB	0c0H
	DB	049H
	DB	0c0H
	DB	049H
	DB	0c0H
	DB	049H
	DB	0c0H
	DB	049H
	DB	0a0H
	DB	049H
	DB	0a0H
	DB	049H
	DB	0c0H
	DB	049H
	DB	0a0H
	DB	049H
	DB	0a0H
	DB	049H
	DB	0a0H
	DB	051H
	DB	0a0H
	DB	051H
	DB	0a0H
	DB	049H
	DB	0a0H
	DB	049H
	DB	080H
	DB	051H
	DB	0a0H
	DB	051H
	DB	080H
	DB	051H
	DB	080H
	DB	051H
	DB	080H
	DB	051H
	DB	080H
	DB	051H
	DB	080H
	DB	051H
	DB	060H
	DB	051H
	DB	080H
	DB	051H
	DB	060H
	DB	051H
	DB	060H
	DB	051H
	DB	060H
	DB	059H
	DB	060H
	DB	051H
	DB	060H
	DB	059H
	DB	040H
	DB	059H
	DB	040H
	DB	051H
	DB	060H
	DB	051H
	DB	040H
	DB	059H
	DB	040H
	DB	059H
	DB	040H
	DB	059H
	DB	040H
	DB	059H
	DB	040H
	DB	059H
	DB	020H
	DB	059H
	DB	040H
	DB	059H
	DB	020H
	DB	059H
	DB	020H
	DB	059H
	DB	020H
	DB	061H
	DB	020H
	DB	059H
	DB	020H
	DB	061H
	DB	020H
	DB	061H
	DB	020H
	DB	059H
	DB	00H
	DB	059H
	DB	00H
	DB	061H
	DB	00H
	DB	061H
	DB	00H
	DB	061H
	DB	00H
	DB	061H
	DB	00H
	DB	061H
	DB	0e0H
	DB	060H
	DB	00H
	DB	061H
	DB	0e0H
	DB	060H
	DB	0e0H
	DB	068H
	DB	0e0H
	DB	068H
	DB	0e0H
	DB	060H
	DB	0e0H
	DB	068H
	DB	0e0H
	DB	068H
	DB	0c0H
	DB	068H
	DB	0e0H
	DB	060H
	DB	0c0H
	DB	068H
	DB	0c0H
	DB	068H
	DB	0c0H
	DB	068H
	DB	0c0H
	DB	068H
	DB	0c0H
	DB	068H
	DB	0c0H
	DB	068H
	DB	0a0H
	DB	070H
	DB	0a0H
	DB	068H
	DB	0a0H
	DB	068H
	DB	0a0H
	DB	070H
	DB	0a0H
	DB	068H
	DB	0a0H
	DB	068H
	DB	0a0H
	DB	070H
	DB	0a0H
	DB	068H
	DB	0a0H
	DB	070H
	DB	080H
	DB	070H
	DB	080H
	DB	070H
	DB	080H
	DB	070H
	DB	080H
	DB	070H
	DB	080H
	DB	070H
	DB	080H
	DB	070H
	DB	080H
	DB	070H
	DB	080H
	DB	070H
	DB	060H
	DB	078H
	DB	060H
	DB	070H
	DB	060H
	DB	070H
	DB	060H
	DB	078H
	DB	060H
	DB	070H
	DB	040H
	DB	070H
	DB	060H
	DB	078H
	DB	040H
	DB	078H
	DB	040H
	DB	078H
	DB	040H
	DB	078H
	DB	040H
	DB	078H
	DB	040H
	DB	078H
	DB	040H
	DB	078H
	DB	020H
	DB	080H
	DB	020H
	DB	080H
	DB	040H
	DB	078H
	DB	020H
	DB	078H
	DB	020H
	DB	080H
	DB	020H
	DB	080H
	DB	020H
	DB	078H
	DB	00H
	DB	080H
	DB	020H
	DB	080H
	DB	020H
	DB	080H
	DB	00H
	DB	080H
	DB	00H
	DB	080H
	DB	00H
	DB	080H
	DB	00H
	DB	080H
	DB	00H
	DB	078H
	DB	00H
	DB	080H
	DB	00H
	DB	078H
	DB	00H
	DB	078H
	DB	01H
	DB	080H
	DB	00H
	DB	078H
	DB	01H
	DB	078H
	DB	01H
	DB	080H
	DB	00H
	DB	078H
	DB	00H
	DB	078H
	DB	01H
	DB	080H
	DB	00H
	DB	078H
	DB	01H
	DB	078H
	DB	01H
	DB	078H
	DB	01H
	DB	078H
	DB	01H
	DB	078H
	DB	01H
	DB	078H
	DB	01H
	DB	078H
	DB	01H
	DB	078H
	DB	01H
	DB	078H
	DB	01H
	DB	070H
	DB	01H
	DB	078H
	DB	02H
	DB	078H
	DB	01H
	DB	070H
	DB	02H
	DB	070H
	DB	01H
	DB	078H
	DB	02H
	DB	070H
	DB	02H
	DB	070H
	DB	02H
	DB	070H
	DB	02H
	DB	070H
	DB	02H
	DB	070H
	DB	02H
	DB	070H
	DB	02H
	DB	070H
	DB	02H
	DB	070H
	DB	02H
	DB	070H
	DB	03H
	DB	070H
	DB	02H
	DB	068H
	DB	03H
	DB	070H
	DB	02H
	DB	068H
	DB	02H
	DB	070H
	DB	03H
	DB	070H
	DB	02H
	DB	070H
	DB	02H
	DB	068H
	DB	03H
	DB	068H
	DB	02H
	DB	068H
	DB	03H
	DB	068H
	DB	03H
	DB	068H
	DB	03H
	DB	068H
	DB	03H
	DB	068H
	DB	03H
	DB	068H
	DB	03H
	DB	068H
	DB	03H
	DB	068H
	DB	03H
	DB	068H
	DB	04H
	DB	068H
	DB	03H
	DB	060H
	DB	04H
	DB	068H
	DB	04H
	DB	068H
	DB	03H
	DB	068H
	DB	04H
	DB	060H
	DB	04H
	DB	060H
	DB	04H
	DB	060H
	DB	03H
	DB	068H
	DB	04H
	DB	060H
	DB	04H
	DB	060H
	DB	04H
	DB	060H
	DB	04H
	DB	060H
	DB	04H
	DB	060H
	DB	04H
	DB	060H
	DB	04H
	DB	060H
	DB	04H
	DB	060H
	DB	05H
	DB	058H
	DB	05H
	DB	060H
	DB	04H
	DB	058H
	DB	05H
	DB	060H
	DB	04H
	DB	058H
	DB	05H
	DB	058H
	DB	05H
	DB	058H
	DB	05H
	DB	058H
	DB	05H
	DB	058H
	DB	05H
	DB	060H
	DB	05H
	DB	058H
	DB	05H
	DB	058H
	DB	05H
	DB	058H
	DB	05H
	DB	058H
	DB	05H
	DB	058H
	DB	06H
	DB	058H
	DB	05H
	DB	050H
	DB	05H
	DB	058H
	DB	05H
	DB	058H
	DB	06H
	DB	050H
	DB	05H
	DB	050H
	DB	05H
	DB	058H
	DB	06H
	DB	050H
	DB	06H
	DB	050H
	DB	05H
	DB	058H
	DB	06H
	DB	050H
	DB	06H
	DB	050H
	DB	06H
	DB	050H
	DB	06H
	DB	050H
	DB	06H
	DB	050H
	DB	06H
	DB	050H
	DB	06H
	DB	050H
	DB	06H
	DB	048H
	DB	07H
	DB	050H
	DB	06H
	DB	050H
	DB	06H
	DB	048H
	DB	07H
	DB	050H
	DB	06H
	DB	048H
	DB	07H
	DB	048H
	DB	07H
	DB	050H
	DB	06H
	DB	048H
	DB	07H
	DB	048H
	DB	07H
	DB	048H
	DB	07H
	DB	048H
	DB	07H
	DB	048H
	DB	07H
	DB	048H
	DB	07H
	DB	048H
	DB	07H
	DB	048H
	DB	07H
	DB	048H
	DB	07H
	DB	048H
	DB	08H
	DB	048H
	DB	08H
	DB	048H
	DB	07H
	DB	040H
	DB	07H
	DB	040H
	DB	08H
	DB	040H
	DB	08H
	DB	048H
	DB	08H
	DB	040H
	DB	07H
	DB	040H
	DB	08H
	DB	040H
	DB	08H
	DB	040H
	DB	08H
	DB	040H
	DB	08H
	DB	040H
	DB	08H
	DB	040H
	DB	08H
	DB	040H
	DB	08H
	DB	040H
	DB	08H
	DB	040H
	DB	09H
	DB	038H
	DB	09H
	DB	040H
	DB	08H
	DB	038H
	DB	09H
	DB	040H
	DB	09H
	DB	038H
	DB	09H
	DB	038H
	DB	08H
	DB	038H
	DB	09H
	DB	040H
	DB	09H
	DB	038H
	DB	09H
	DB	038H
	DB	09H
	DB	038H
	DB	09H
	DB	038H
	DB	09H
	DB	038H
	DB	0aH
	DB	038H
	DB	0aH
	DB	030H
	DB	09H
	DB	038H
	DB	0aH
	DB	030H
	DB	0aH
	DB	030H
	DB	0aH
	DB	038H
	DB	0aH
	DB	030H
	DB	0aH
	DB	030H
	DB	0aH
	DB	030H
	DB	0aH
	DB	030H
	DB	0aH
	DB	030H
	DB	0aH
	DB	030H
	DB	0bH
	DB	030H
	DB	0aH
	DB	030H
	DB	0bH
	DB	030H
	DB	0bH
	DB	030H
	DB	0aH
	DB	028H
	DB	0bH
	DB	030H
	DB	0bH
	DB	028H
	DB	0aH
	DB	028H
	DB	0bH
	DB	030H
	DB	0bH
	DB	028H
	DB	0bH
	DB	028H
	DB	0bH
	DB	028H
	DB	0bH
	DB	028H
	DB	0bH
	DB	028H
	DB	0bH
	DB	020H
	DB	0cH
	DB	028H
	DB	0cH
	DB	020H
	DB	0bH
	DB	028H
	DB	0cH
	DB	020H
	DB	0cH
	DB	028H
	DB	0cH
	DB	020H
	DB	0cH
	DB	020H
	DB	0cH
	DB	020H
	DB	0cH
	DB	020H
	DB	0cH
	DB	020H
	DB	0cH
	DB	020H
	DB	0cH
	DB	020H
	DB	0cH
	DB	020H
	DB	0cH
	DB	018H
	DB	0dH
	DB	018H
	DB	0cH
	DB	020H
	DB	0cH
	DB	018H
	DB	0dH
	DB	020H
	DB	0cH
	DB	018H
	DB	0dH
	DB	018H
	DB	0dH
	DB	018H
	DB	0dH
	DB	018H
	DB	0dH
	DB	018H
	DB	0dH
	DB	018H
	DB	0dH
	DB	018H
	DB	0eH
	DB	018H
	DB	0dH
	DB	010H
	DB	0dH
	DB	018H
	DB	0eH
	DB	018H
	DB	0eH
	DB	018H
	DB	0eH
	DB	010H
	DB	0eH
	DB	010H
	DB	0eH
	DB	010H
	DB	0dH
	DB	010H
	DB	0eH
	DB	010H
	DB	0eH
	DB	010H
	DB	0eH
	DB	010H
	DB	0eH
	DB	010H
	DB	0eH
	DB	010H
	DB	0eH
	DB	08H
	DB	0eH
	DB	010H
	DB	0fH
	DB	08H
	DB	0eH
	DB	08H
	DB	0fH
	DB	08H
	DB	0eH
	DB	010H
	DB	0fH
	DB	08H
	DB	0fH
	DB	08H
	DB	0fH
	DB	08H
	DB	0fH
	DB	08H
	DB	0fH
	DB	08H
	DB	0fH
	DB	08H
	DB	0fH
	DB	08H
	DB	010H
	DB	08H
	DB	0fH
	DB	08H
	DB	0fH
	DB	08H
	DB	010H
	DB	00H
	DB	010H
	DB	08H
	DB	0fH
	DB	00H
	DB	010H
	DB	00H
	DB	010H
	DB	08H
	DB	010H
	DB	00H
	DB	010H
	DB	00H
	DB	010H
	DB	00H
	DB	00H
	DB	04H
	DB	00H
	DB	04H
	DB	00H
	DB	04H
	DB	00H
	DB	04H
	DB	0e0H
	DB	03H
	DB	00H
	DB	04H
	DB	0e0H
	DB	0bH
	DB	0e0H
	DB	03H
	DB	0e0H
	DB	0bH
	DB	0e0H
	DB	03H
	DB	0e0H
	DB	0bH
	DB	0e0H
	DB	0bH
	DB	0c0H
	DB	0bH
	DB	0c0H
	DB	0bH
	DB	0c0H
	DB	0bH
	DB	0c0H
	DB	0bH
	DB	0c0H
	DB	0bH
	DB	0c0H
	DB	0bH
	DB	0c0H
	DB	0bH
	DB	0a0H
	DB	0bH
	DB	0a0H
	DB	013H
	DB	0a0H
	DB	0bH
	DB	0a0H
	DB	0bH
	DB	0a0H
	DB	0bH
	DB	0a0H
	DB	013H
	DB	0a0H
	DB	013H
	DB	0a0H
	DB	013H
	DB	0a0H
	DB	013H
	DB	080H
	DB	013H
	DB	080H
	DB	013H
	DB	080H
	DB	013H
	DB	080H
	DB	013H
	DB	080H
	DB	013H
	DB	060H
	DB	013H
	DB	080H
	DB	01bH
	DB	060H
	DB	013H
	DB	060H
	DB	013H
	DB	060H
	DB	01bH
	DB	060H
	DB	013H
	DB	060H
	DB	013H
	DB	060H
	DB	01bH
	DB	060H
	DB	01bH
	DB	040H
	DB	01bH
	DB	040H
	DB	01bH
	DB	040H
	DB	01bH
	DB	040H
	DB	01bH
	DB	040H
	DB	01bH
	DB	020H
	DB	01bH
	DB	040H
	DB	01bH
	DB	040H
	DB	01bH
	DB	020H
	DB	01bH
	DB	020H
	DB	023H
	DB	020H
	DB	023H
	DB	020H
	DB	01bH
	DB	020H
	DB	023H
	DB	020H
	DB	023H
	DB	00H
	DB	023H
	DB	00H
	DB	023H
	DB	00H
	DB	023H
	DB	00H
	DB	023H
	DB	00H
	DB	023H
	DB	00H
	DB	023H
	DB	0e0H
	DB	022H
	DB	0e0H
	DB	02aH
	DB	0e0H
	DB	022H
	DB	00H
	DB	023H
	DB	0e0H
	DB	02aH
	DB	0e0H
	DB	022H
	DB	0e0H
	DB	02aH
	DB	0c0H
	DB	022H
	DB	0c0H
	DB	02aH
	DB	0c0H
	DB	02aH
	DB	0c0H
	DB	02aH
	DB	0c0H
	DB	02aH
	DB	0c0H
	DB	02aH
	DB	0c0H
	DB	02aH
	DB	0c0H
	DB	02aH
	DB	0a0H
	DB	02aH
	DB	0c0H
	DB	02aH
	DB	0a0H
	DB	02aH
	DB	0a0H
	DB	02aH
	DB	0a0H
	DB	02aH
	DB	0a0H
	DB	032H
	DB	0a0H
	DB	02aH
	DB	080H
	DB	02aH
	DB	0a0H
	DB	032H
	DB	080H
	DB	032H
	DB	080H
	DB	032H
	DB	080H
	DB	032H
	DB	080H
	DB	032H
	DB	080H
	DB	032H
	DB	080H
	DB	032H
	DB	060H
	DB	032H
	DB	080H
	DB	03aH
	DB	060H
	DB	032H
	DB	060H
	DB	03aH
	DB	060H
	DB	03aH
	DB	060H
	DB	03aH
	DB	040H
	DB	03aH
	DB	060H
	DB	032H
	DB	040H
	DB	03aH
	DB	040H
	DB	03aH
	DB	040H
	DB	03aH
	DB	040H
	DB	03aH
	DB	040H
	DB	03aH
	DB	040H
	DB	03aH
	DB	020H
	DB	042H
	DB	040H
	DB	03aH
	DB	020H
	DB	03aH
	DB	020H
	DB	042H
	DB	020H
	DB	03aH
	DB	020H
	DB	042H
	DB	020H
	DB	042H
	DB	020H
	DB	03aH
	DB	00H
	DB	042H
	DB	020H
	DB	042H
	DB	00H
	DB	03aH
	DB	00H
	DB	042H
	DB	00H
	DB	042H
	DB	00H
	DB	042H
	DB	0e0H
	DB	041H
	DB	0e0H
	DB	041H
	DB	00H
	DB	04aH
	DB	0e0H
	DB	049H
	DB	0e0H
	DB	041H
	DB	0e0H
	DB	049H
	DB	0e0H
	DB	041H
	DB	0e0H
	DB	049H
	DB	0e0H
	DB	049H
	DB	0c0H
	DB	049H
	DB	0c0H
	DB	041H
	DB	0e0H
	DB	049H
	DB	0c0H
	DB	049H
	DB	0c0H
	DB	049H
	DB	0c0H
	DB	049H
	DB	0c0H
	DB	049H
	DB	0a0H
	DB	049H
	DB	0c0H
	DB	051H
	DB	0c0H
	DB	051H
	DB	0a0H
	DB	049H
	DB	0a0H
	DB	049H
	DB	0a0H
	DB	051H
	DB	0a0H
	DB	051H
	DB	080H
	DB	049H
	DB	0a0H
	DB	051H
	DB	080H
	DB	049H
	DB	080H
	DB	051H
	DB	080H
	DB	051H
	DB	080H
	DB	051H
	DB	080H
	DB	051H
	DB	080H
	DB	051H
	DB	060H
	DB	051H
	DB	080H
	DB	059H
	DB	060H
	DB	051H
	DB	060H
	DB	051H
	DB	060H
	DB	059H
	DB	060H
	DB	051H
	DB	060H
	DB	059H
	DB	040H
	DB	059H
	DB	060H
	DB	059H
	DB	040H
	DB	059H
	DB	040H
	DB	059H
	DB	040H
	DB	059H
	DB	040H
	DB	059H
	DB	040H
	DB	059H
	DB	040H
	DB	059H
	DB	040H
	DB	061H
	DB	020H
	DB	059H
	DB	020H
	DB	061H
	DB	020H
	DB	061H
	DB	020H
	DB	059H
	DB	020H
	DB	059H
	DB	020H
	DB	061H
	DB	020H
	DB	061H
	DB	00H
	DB	061H
	DB	020H
	DB	061H
	DB	020H
	DB	061H
	DB	00H
	DB	061H
	DB	00H
	DB	061H
	DB	00H
	DB	061H
	DB	00H
	DB	061H
	DB	0e0H
	DB	060H
	DB	0e0H
	DB	060H
	DB	0e0H
	DB	060H
	DB	0e0H
	DB	060H
	DB	0e0H
	DB	068H
	DB	0e0H
	DB	060H
	DB	0e0H
	DB	060H
	DB	0e0H
	DB	068H
	DB	0c0H
	DB	068H
	DB	0e0H
	DB	068H
	DB	0c0H
	DB	068H
	DB	0c0H
	DB	068H
	DB	0c0H
	DB	068H
	DB	0c0H
	DB	068H
	DB	0c0H
	DB	068H
	DB	0a0H
	DB	068H
	DB	0c0H
	DB	070H
	DB	0c0H
	DB	070H
	DB	0a0H
	DB	068H
	DB	0a0H
	DB	070H
	DB	0a0H
	DB	068H
	DB	0a0H
	DB	070H
	DB	0a0H
	DB	070H
	DB	080H
	DB	068H
	DB	080H
	DB	070H
	DB	080H
	DB	070H
	DB	080H
	DB	070H
	DB	080H
	DB	070H
	DB	080H
	DB	070H
	DB	080H
	DB	070H
	DB	080H
	DB	070H
	DB	060H
	DB	078H
	DB	060H
	DB	070H
	DB	060H
	DB	070H
	DB	060H
	DB	078H
	DB	060H
	DB	078H
	DB	060H
	DB	078H
	DB	060H
	DB	070H
	DB	060H
	DB	078H
	DB	040H
	DB	078H
	DB	040H
	DB	078H
	DB	040H
	DB	078H
	DB	040H
	DB	078H
	DB	040H
	DB	078H
	DB	040H
	DB	078H
	DB	040H
	DB	078H
	DB	040H
	DB	078H
	DB	040H
	DB	078H
	DB	020H
	DB	080H
	DB	020H
	DB	080H
	DB	020H
	DB	078H
	DB	020H
	DB	078H
	DB	020H
	DB	080H
	DB	020H
	DB	078H
	DB	00H
	DB	080H
	DB	00H
	DB	078H
	DB	00H
	DB	080H
	DB	020H
	DB	080H
	DB	00H
	DB	080H
	DB	00H
	DB	080H
	DB	00H
	DB	080H
	DB	01H
	DB	080H
	DB	00H
	DB	080H
	DB	01H
	DB	080H
	DB	00H
	DB	078H
	DB	00H
	DB	080H
	DB	01H
	DB	080H
	DB	01H
	DB	078H
	DB	01H
	DB	080H
	DB	01H
	DB	078H
	DB	01H
	DB	078H
	DB	01H
	DB	078H
	DB	01H
	DB	078H
	DB	01H
	DB	078H
	DB	01H
	DB	078H
	DB	01H
	DB	078H
	DB	01H
	DB	078H
	DB	01H
	DB	078H
	DB	02H
	DB	078H
	DB	01H
	DB	078H
	DB	02H
	DB	070H
	DB	01H
	DB	078H
	DB	02H
	DB	070H
	DB	02H
	DB	078H
	DB	01H
	DB	070H
	DB	02H
	DB	070H
	DB	01H
	DB	078H
	DB	02H
	DB	070H
	DB	02H
	DB	070H
	DB	01H
	DB	070H
	DB	02H
	DB	070H
	DB	02H
	DB	070H
	DB	02H
	DB	070H
	DB	02H
	DB	070H
	DB	02H
	DB	070H
	DB	02H
	DB	070H
	DB	02H
	DB	070H
	DB	03H
	DB	068H
	DB	03H
	DB	070H
	DB	02H
	DB	068H
	DB	03H
	DB	068H
	DB	03H
	DB	070H
	DB	03H
	DB	068H
	DB	03H
	DB	070H
	DB	03H
	DB	068H
	DB	02H
	DB	068H
	DB	03H
	DB	068H
	DB	03H
	DB	068H
	DB	03H
	DB	068H
	DB	03H
	DB	068H
	DB	03H
	DB	068H
	DB	04H
	DB	060H
	DB	03H
	DB	068H
	DB	03H
	DB	060H
	DB	03H
	DB	068H
	DB	04H
	DB	068H
	DB	03H
	DB	060H
	DB	03H
	DB	060H
	DB	04H
	DB	068H
	DB	03H
	DB	060H
	DB	04H
	DB	060H
	DB	04H
	DB	060H
	DB	03H
	DB	060H
	DB	04H
	DB	060H
	DB	04H
	DB	060H
	DB	04H
	DB	060H
	DB	04H
	DB	060H
	DB	04H
	DB	060H
	DB	04H
	DB	058H
	DB	04H
	DB	060H
	DB	04H
	DB	060H
	DB	05H
	DB	058H
	DB	04H
	DB	060H
	DB	04H
	DB	058H
	DB	05H
	DB	060H
	DB	05H
	DB	060H
	DB	04H
	DB	058H
	DB	05H
	DB	058H
	DB	05H
	DB	058H
	DB	05H
	DB	058H
	DB	05H
	DB	058H
	DB	05H
	DB	058H
	DB	05H
	DB	058H
	DB	05H
	DB	058H
	DB	05H
	DB	058H
	DB	05H
	DB	050H
	DB	06H
	DB	050H
	DB	06H
	DB	058H
	DB	06H
	DB	058H
	DB	05H
	DB	050H
	DB	05H
	DB	050H
	DB	06H
	DB	058H
	DB	06H
	DB	050H
	DB	05H
	DB	050H
	DB	06H
	DB	058H
	DB	06H
	DB	050H
	DB	06H
	DB	050H
	DB	06H
	DB	050H
	DB	06H
	DB	050H
	DB	06H
	DB	050H
	DB	06H
	DB	050H
	DB	06H
	DB	050H
	DB	06H
	DB	050H
	DB	07H
	DB	048H
	DB	06H
	DB	050H
	DB	07H
	DB	050H
	DB	07H
	DB	048H
	DB	06H
	DB	048H
	DB	07H
	DB	048H
	DB	07H
	DB	050H
	DB	06H
	DB	048H
	DB	07H
	DB	048H
	DB	07H
	DB	048H
	DB	07H
	DB	048H
	DB	07H
	DB	048H
	DB	07H
	DB	048H
	DB	07H
	DB	048H
	DB	07H
	DB	048H
	DB	07H
	DB	040H
	DB	07H
	DB	048H
	DB	07H
	DB	040H
	DB	07H
	DB	048H
	DB	08H
	DB	048H
	DB	08H
	DB	048H
	DB	07H
	DB	040H
	DB	07H
	DB	040H
	DB	08H
	DB	048H
	DB	08H
	DB	040H
	DB	08H
	DB	040H
	DB	08H
	DB	040H
	DB	08H
	DB	040H
	DB	08H
	DB	040H
	DB	08H
	DB	040H
	DB	08H
	DB	040H
	DB	08H
	DB	040H
	DB	09H
	DB	038H
	DB	08H
	DB	040H
	DB	08H
	DB	040H
	DB	08H
	DB	038H
	DB	09H
	DB	040H
	DB	09H
	DB	038H
	DB	08H
	DB	038H
	DB	09H
	DB	038H
	DB	09H
	DB	038H
	DB	09H
	DB	038H
	DB	09H
	DB	038H
	DB	09H
	DB	038H
	DB	09H
	DB	038H
	DB	09H
	DB	030H
	DB	09H
	DB	038H
	DB	09H
	DB	030H
	DB	0aH
	DB	038H
	DB	0aH
	DB	030H
	DB	09H
	DB	030H
	DB	0aH
	DB	030H
	DB	0aH
	DB	030H
	DB	0aH
	DB	030H
	DB	0aH
	DB	030H
	DB	0aH
	DB	030H
	DB	0aH
	DB	030H
	DB	0aH
	DB	030H
	DB	0aH
	DB	030H
	DB	0aH
	DB	028H
	DB	0aH
	DB	030H
	DB	0bH
	DB	028H
	DB	0bH
	DB	028H
	DB	0aH
	DB	030H
	DB	0bH
	DB	028H
	DB	0bH
	DB	028H
	DB	0bH
	DB	028H
	DB	0bH
	DB	028H
	DB	0bH
	DB	028H
	DB	0bH
	DB	028H
	DB	0bH
	DB	028H
	DB	0bH
	DB	028H
	DB	0bH
	DB	028H
	DB	0bH
	DB	020H
	DB	0cH
	DB	028H
	DB	0cH
	DB	020H
	DB	0bH
	DB	020H
	DB	0cH
	DB	020H
	DB	0cH
	DB	028H
	DB	0bH
	DB	020H
	DB	0cH
	DB	020H
	DB	0cH
	DB	020H
	DB	0cH
	DB	020H
	DB	0cH
	DB	020H
	DB	0cH
	DB	020H
	DB	0dH
	DB	020H
	DB	0cH
	DB	018H
	DB	0dH
	DB	020H
	DB	0cH
	DB	020H
	DB	0dH
	DB	018H
	DB	0dH
	DB	018H
	DB	0dH
	DB	020H
	DB	0cH
	DB	018H
	DB	0dH
	DB	018H
	DB	0dH
	DB	018H
	DB	0dH
	DB	018H
	DB	0dH
	DB	018H
	DB	0dH
	DB	018H
	DB	0dH
	DB	010H
	DB	0dH
	DB	018H
	DB	0dH
	DB	018H
	DB	0eH
	DB	018H
	DB	0dH
	DB	010H
	DB	0dH
	DB	010H
	DB	0eH
	DB	018H
	DB	0eH
	DB	010H
	DB	0eH
	DB	010H
	DB	0eH
	DB	010H
	DB	0eH
	DB	010H
	DB	0eH
	DB	010H
	DB	0eH
	DB	010H
	DB	0eH
	DB	010H
	DB	0fH
	DB	010H
	DB	0eH
	DB	010H
	DB	0fH
	DB	010H
	DB	0fH
	DB	08H
	DB	0eH
	DB	010H
	DB	0fH
	DB	08H
	DB	0fH
	DB	08H
	DB	0fH
	DB	08H
	DB	0fH
	DB	08H
	DB	0fH
	DB	08H
	DB	0fH
	DB	08H
	DB	0fH
	DB	08H
	DB	0fH
	DB	08H
	DB	0fH
	DB	08H
	DB	010H
	DB	00H
	DB	0fH
	DB	00H
	DB	010H
	DB	08H
	DB	010H
	DB	00H
	DB	010H
	DB	00H
	DB	0fH
	DB	08H
	DB	010H
	DB	00H
	DB	010H
	DB	00H
	DB	010H
	DB	00H
	DB	010H
	DB	00H
	DB	00H
	DB	04H
	DB	00H
	DB	04H
	DB	00H
	DB	04H
	DB	00H
	DB	04H
	DB	0e0H
	DB	0bH
	DB	00H
	DB	0cH
	DB	0e0H
	DB	03H
	DB	0e0H
	DB	0bH
	DB	0e0H
	DB	0bH
	DB	0e0H
	DB	0bH
	DB	0c0H
	DB	0bH
	DB	0e0H
	DB	0bH
	DB	0c0H
	DB	03H
	DB	0c0H
	DB	0bH
	DB	0c0H
	DB	0bH
	DB	0c0H
	DB	0bH
	DB	0c0H
	DB	0bH
	DB	0c0H
	DB	0bH
	DB	0c0H
	DB	0bH
	DB	0c0H
	DB	0bH
	DB	0c0H
	DB	013H
	DB	0a0H
	DB	013H
	DB	0a0H
	DB	0bH
	DB	0a0H
	DB	013H
	DB	0a0H
	DB	013H
	DB	080H
	DB	0bH
	DB	080H
	DB	013H
	DB	080H
	DB	013H
	DB	080H
	DB	013H
	DB	080H
	DB	013H
	DB	080H
	DB	013H
	DB	080H
	DB	013H
	DB	080H
	DB	013H
	DB	060H
	DB	013H
	DB	080H
	DB	013H
	DB	060H
	DB	013H
	DB	060H
	DB	01bH
	DB	060H
	DB	01bH
	DB	060H
	DB	013H
	DB	060H
	DB	01bH
	DB	040H
	DB	013H
	DB	060H
	DB	01bH
	DB	040H
	DB	01bH
	DB	040H
	DB	01bH
	DB	040H
	DB	01bH
	DB	040H
	DB	01bH
	DB	040H
	DB	01bH
	DB	020H
	DB	01bH
	DB	020H
	DB	023H
	DB	040H
	DB	01bH
	DB	020H
	DB	023H
	DB	020H
	DB	01bH
	DB	020H
	DB	01bH
	DB	020H
	DB	023H
	DB	020H
	DB	01bH
	DB	00H
	DB	023H
	DB	00H
	DB	023H
	DB	00H
	DB	023H
	DB	00H
	DB	023H
	DB	00H
	DB	023H
	DB	00H
	DB	023H
	DB	00H
	DB	023H
	DB	00H
	DB	023H
	DB	00H
	DB	023H
	DB	0e0H
	DB	022H
	DB	0e0H
	DB	02aH
	DB	0e0H
	DB	022H
	DB	0e0H
	DB	022H
	DB	0e0H
	DB	02aH
	DB	0c0H
	DB	02aH
	DB	0e0H
	DB	022H
	DB	0e0H
	DB	02aH
	DB	0c0H
	DB	02aH
	DB	0c0H
	DB	02aH
	DB	0c0H
	DB	02aH
	DB	0c0H
	DB	02aH
	DB	0a0H
	DB	02aH
	DB	0c0H
	DB	032H
	DB	0c0H
	DB	032H
	DB	0a0H
	DB	02aH
	DB	0a0H
	DB	032H
	DB	0a0H
	DB	032H
	DB	0a0H
	DB	02aH
	DB	0a0H
	DB	032H
	DB	080H
	DB	032H
	DB	0a0H
	DB	032H
	DB	0a0H
	DB	032H
	DB	080H
	DB	032H
	DB	080H
	DB	032H
	DB	080H
	DB	032H
	DB	080H
	DB	032H
	DB	060H
	DB	032H
	DB	060H
	DB	032H
	DB	060H
	DB	032H
	DB	060H
	DB	03aH
	DB	060H
	DB	032H
	DB	060H
	DB	032H
	DB	060H
	DB	03aH
	DB	060H
	DB	03aH
	DB	060H
	DB	032H
	DB	040H
	DB	03aH
	DB	040H
	DB	03aH
	DB	040H
	DB	03aH
	DB	040H
	DB	03aH
	DB	040H
	DB	03aH
	DB	040H
	DB	03aH
	DB	040H
	DB	03aH
	DB	040H
	DB	042H
	DB	020H
	DB	042H
	DB	020H
	DB	03aH
	DB	020H
	DB	03aH
	DB	020H
	DB	042H
	DB	020H
	DB	042H
	DB	00H
	DB	03aH
	DB	020H
	DB	042H
	DB	020H
	DB	042H
	DB	00H
	DB	042H
	DB	00H
	DB	042H
	DB	00H
	DB	042H
	DB	00H
	DB	042H
	DB	00H
	DB	042H
	DB	0e0H
	DB	041H
	DB	00H
	DB	042H
	DB	0e0H
	DB	049H
	DB	0e0H
	DB	041H
	DB	0e0H
	DB	049H
	DB	0e0H
	DB	041H
	DB	0e0H
	DB	049H
	DB	0e0H
	DB	041H
	DB	0c0H
	DB	049H
	DB	0e0H
	DB	049H
	DB	0c0H
	DB	049H
	DB	0c0H
	DB	049H
	DB	0c0H
	DB	049H
	DB	0c0H
	DB	049H
	DB	0c0H
	DB	049H
	DB	0a0H
	DB	049H
	DB	0a0H
	DB	049H
	DB	0a0H
	DB	051H
	DB	0a0H
	DB	049H
	DB	0a0H
	DB	051H
	DB	0a0H
	DB	049H
	DB	0a0H
	DB	051H
	DB	0a0H
	DB	051H
	DB	080H
	DB	051H
	DB	0a0H
	DB	051H
	DB	080H
	DB	051H
	DB	080H
	DB	051H
	DB	080H
	DB	051H
	DB	080H
	DB	051H
	DB	080H
	DB	051H
	DB	080H
	DB	051H
	DB	060H
	DB	059H
	DB	060H
	DB	059H
	DB	060H
	DB	059H
	DB	060H
	DB	051H
	DB	060H
	DB	059H
	DB	060H
	DB	051H
	DB	060H
	DB	051H
	DB	040H
	DB	059H
	DB	060H
	DB	059H
	DB	040H
	DB	059H
	DB	040H
	DB	059H
	DB	040H
	DB	059H
	DB	040H
	DB	059H
	DB	020H
	DB	059H
	DB	020H
	DB	059H
	DB	040H
	DB	061H
	DB	020H
	DB	059H
	DB	020H
	DB	059H
	DB	020H
	DB	061H
	DB	020H
	DB	061H
	DB	020H
	DB	059H
	DB	020H
	DB	061H
	DB	00H
	DB	061H
	DB	00H
	DB	059H
	DB	00H
	DB	061H
	DB	00H
	DB	061H
	DB	00H
	DB	061H
	DB	00H
	DB	061H
	DB	00H
	DB	061H
	DB	00H
	DB	061H
	DB	00H
	DB	069H
	DB	0e0H
	DB	060H
	DB	00H
	DB	061H
	DB	0e0H
	DB	068H
	DB	0e0H
	DB	068H
	DB	0e0H
	DB	060H
	DB	0e0H
	DB	068H
	DB	0c0H
	DB	068H
	DB	0e0H
	DB	068H
	DB	0c0H
	DB	068H
	DB	0c0H
	DB	068H
	DB	0c0H
	DB	068H
	DB	0c0H
	DB	068H
	DB	0c0H
	DB	068H
	DB	0a0H
	DB	068H
	DB	0a0H
	DB	068H
	DB	0a0H
	DB	068H
	DB	0a0H
	DB	068H
	DB	0a0H
	DB	068H
	DB	0a0H
	DB	070H
	DB	0a0H
	DB	070H
	DB	0a0H
	DB	068H
	DB	080H
	DB	070H
	DB	0a0H
	DB	070H
	DB	080H
	DB	070H
	DB	080H
	DB	070H
	DB	080H
	DB	070H
	DB	080H
	DB	070H
	DB	080H
	DB	070H
	DB	080H
	DB	070H
	DB	060H
	DB	070H
	DB	060H
	DB	070H
	DB	060H
	DB	078H
	DB	060H
	DB	070H
	DB	060H
	DB	070H
	DB	060H
	DB	078H
	DB	060H
	DB	078H
	DB	040H
	DB	078H
	DB	060H
	DB	078H
	DB	060H
	DB	078H
	DB	040H
	DB	078H
	DB	040H
	DB	078H
	DB	040H
	DB	078H
	DB	040H
	DB	078H
	DB	040H
	DB	078H
	DB	020H
	DB	078H
	DB	020H
	DB	078H
	DB	020H
	DB	078H
	DB	020H
	DB	080H
	DB	020H
	DB	078H
	DB	020H
	DB	080H
	DB	020H
	DB	080H
	DB	00H
	DB	080H
	DB	020H
	DB	080H
	DB	00H
	DB	080H
	DB	00H
	DB	080H
	DB	00H
	DB	080H
	DB	00H
	DB	080H
	DB	00H
	DB	080H
	DB	00H
	DB	080H
	DB	00H
	DB	078H
	DB	00H
	DB	080H
	DB	00H
	DB	080H
	DB	00H
	DB	078H
	DB	00H
	DB	080H
	DB	00H
	DB	080H
	DB	01H
	DB	078H
	DB	00H
	DB	078H
	DB	01H
	DB	080H
	DB	01H
	DB	078H
	DB	01H
	DB	078H
	DB	01H
	DB	080H
	DB	01H
	DB	078H
	DB	01H
	DB	078H
	DB	01H
	DB	078H
	DB	01H
	DB	078H
	DB	01H
	DB	078H
	DB	01H
	DB	078H
	DB	01H
	DB	070H
	DB	02H
	DB	078H
	DB	02H
	DB	078H
	DB	01H
	DB	078H
	DB	01H
	DB	070H
	DB	02H
	DB	070H
	DB	02H
	DB	078H
	DB	02H
	DB	070H
	DB	01H
	DB	070H
	DB	02H
	DB	078H
	DB	02H
	DB	070H
	DB	02H
	DB	070H
	DB	02H
	DB	070H
	DB	02H
	DB	070H
	DB	02H
	DB	070H
	DB	02H
	DB	070H
	DB	02H
	DB	068H
	DB	03H
	DB	070H
	DB	02H
	DB	070H
	DB	02H
	DB	070H
	DB	03H
	DB	068H
	DB	03H
	DB	068H
	DB	02H
	DB	068H
	DB	03H
	DB	070H
	DB	03H
	DB	068H
	DB	03H
	DB	068H
	DB	03H
	DB	068H
	DB	03H
	DB	068H
	DB	03H
	DB	068H
	DB	03H
	DB	068H
	DB	03H
	DB	068H
	DB	03H
	DB	068H
	DB	03H
	DB	068H
	DB	04H
	DB	068H
	DB	03H
	DB	060H
	DB	03H
	DB	060H
	DB	04H
	DB	068H
	DB	04H
	DB	060H
	DB	04H
	DB	060H
	DB	03H
	DB	068H
	DB	04H
	DB	060H
	DB	04H
	DB	060H
	DB	04H
	DB	068H
	DB	04H
	DB	060H
	DB	04H
	DB	060H
	DB	04H
	DB	060H
	DB	04H
	DB	060H
	DB	04H
	DB	060H
	DB	04H
	DB	060H
	DB	05H
	DB	060H
	DB	05H
	DB	060H
	DB	04H
	DB	058H
	DB	04H
	DB	060H
	DB	05H
	DB	058H
	DB	04H
	DB	058H
	DB	05H
	DB	060H
	DB	05H
	DB	058H
	DB	05H
	DB	058H
	DB	04H
	DB	060H
	DB	05H
	DB	058H
	DB	05H
	DB	058H
	DB	05H
	DB	058H
	DB	05H
	DB	058H
	DB	05H
	DB	058H
	DB	05H
	DB	058H
	DB	05H
	DB	058H
	DB	05H
	DB	058H
	DB	05H
	DB	058H
	DB	05H
	DB	050H
	DB	05H
	DB	050H
	DB	06H
	DB	058H
	DB	06H
	DB	058H
	DB	05H
	DB	050H
	DB	06H
	DB	058H
	DB	06H
	DB	050H
	DB	06H
	DB	050H
	DB	06H
	DB	050H
	DB	06H
	DB	050H
	DB	06H
	DB	050H
	DB	06H
	DB	050H
	DB	06H
	DB	050H
	DB	06H
	DB	050H
	DB	06H
	DB	050H
	DB	06H
	DB	050H
	DB	07H
	DB	050H
	DB	06H
	DB	048H
	DB	07H
	DB	048H
	DB	06H
	DB	050H
	DB	07H
	DB	048H
	DB	06H
	DB	050H
	DB	07H
	DB	048H
	DB	07H
	DB	048H
	DB	07H
	DB	050H
	DB	07H
	DB	048H
	DB	07H
	DB	048H
	DB	07H
	DB	048H
	DB	07H
	DB	048H
	DB	07H
	DB	048H
	DB	07H
	DB	048H
	DB	07H
	DB	048H
	DB	08H
	DB	048H
	DB	07H
	DB	048H
	DB	07H
	DB	040H
	DB	08H
	DB	048H
	DB	08H
	DB	040H
	DB	07H
	DB	048H
	DB	08H
	DB	040H
	DB	08H
	DB	040H
	DB	07H
	DB	048H
	DB	08H
	DB	040H
	DB	08H
	DB	040H
	DB	08H
	DB	040H
	DB	08H
	DB	040H
	DB	08H
	DB	040H
	DB	08H
	DB	040H
	DB	08H
	DB	040H
	DB	09H
	DB	040H
	DB	08H
	DB	038H
	DB	08H
	DB	038H
	DB	09H
	DB	040H
	DB	09H
	DB	038H
	DB	09H
	DB	040H
	DB	09H
	DB	038H
	DB	09H
	DB	038H
	DB	09H
	DB	038H
	DB	09H
	DB	038H
	DB	09H
	DB	038H
	DB	09H
	DB	038H
	DB	09H
	DB	038H
	DB	0aH
	DB	038H
	DB	09H
	DB	030H
	DB	0aH
	DB	038H
	DB	09H
	DB	030H
	DB	0aH
	DB	038H
	DB	0aH
	DB	030H
	DB	09H
	DB	038H
	DB	0aH
	DB	030H
	DB	0aH
	DB	030H
	DB	0aH
	DB	030H
	DB	0aH
	DB	030H
	DB	0aH
	DB	030H
	DB	0aH
	DB	030H
	DB	0aH
	DB	028H
	DB	0bH
	DB	030H
	DB	0aH
	DB	030H
	DB	0aH
	DB	028H
	DB	0bH
	DB	030H
	DB	0aH
	DB	028H
	DB	0bH
	DB	028H
	DB	0bH
	DB	030H
	DB	0bH
	DB	028H
	DB	0bH
	DB	028H
	DB	0bH
	DB	028H
	DB	0bH
	DB	028H
	DB	0bH
	DB	028H
	DB	0cH
	DB	020H
	DB	0bH
	DB	028H
	DB	0bH
	DB	028H
	DB	0cH
	DB	020H
	DB	0bH
	DB	028H
	DB	0cH
	DB	020H
	DB	0bH
	DB	028H
	DB	0cH
	DB	020H
	DB	0cH
	DB	020H
	DB	0cH
	DB	020H
	DB	0cH
	DB	020H
	DB	0cH
	DB	020H
	DB	0cH
	DB	020H
	DB	0cH
	DB	020H
	DB	0cH
	DB	018H
	DB	0cH
	DB	020H
	DB	0cH
	DB	018H
	DB	0dH
	DB	020H
	DB	0cH
	DB	018H
	DB	0dH
	DB	018H
	DB	0dH
	DB	018H
	DB	0dH
	DB	018H
	DB	0dH
	DB	018H
	DB	0dH
	DB	018H
	DB	0dH
	DB	018H
	DB	0dH
	DB	018H
	DB	0dH
	DB	018H
	DB	0dH
	DB	018H
	DB	0eH
	DB	018H
	DB	0dH
	DB	010H
	DB	0eH
	DB	010H
	DB	0eH
	DB	018H
	DB	0dH
	DB	010H
	DB	0eH
	DB	010H
	DB	0eH
	DB	010H
	DB	0eH
	DB	010H
	DB	0eH
	DB	010H
	DB	0eH
	DB	010H
	DB	0eH
	DB	010H
	DB	0eH
	DB	010H
	DB	0eH
	DB	010H
	DB	0eH
	DB	08H
	DB	0fH
	DB	010H
	DB	0eH
	DB	010H
	DB	0eH
	DB	08H
	DB	0fH
	DB	08H
	DB	0eH
	DB	08H
	DB	0fH
	DB	010H
	DB	0fH
	DB	08H
	DB	0eH
	DB	08H
	DB	0fH
	DB	08H
	DB	0fH
	DB	08H
	DB	0fH
	DB	08H
	DB	0fH
	DB	08H
	DB	0fH
	DB	08H
	DB	010H
	DB	00H
	DB	0fH
	DB	08H
	DB	0fH
	DB	08H
	DB	0fH
	DB	00H
	DB	010H
	DB	00H
	DB	010H
	DB	00H
	DB	0fH
	DB	00H
	DB	010H
	DB	00H
	DB	010H
	DB	00H
	DB	010H
	DB	00H
	DB	00H
	DB	04H
	DB	00H
	DB	04H
	DB	0e0H
	DB	03H
	DB	00H
	DB	04H
	DB	0e0H
	DB	03H
	DB	00H
	DB	04H
	DB	0e0H
	DB	03H
	DB	0e0H
	DB	03H
	DB	0e0H
	DB	03H
	DB	0e0H
	DB	0bH
	DB	0e0H
	DB	03H
	DB	0c0H
	DB	0bH
	DB	0e0H
	DB	0bH
	DB	0c0H
	DB	0bH
	DB	0c0H
	DB	0bH
	DB	0c0H
	DB	0bH
	DB	0c0H
	DB	0bH
	DB	0c0H
	DB	0bH
	DB	0a0H
	DB	0bH
	DB	0a0H
	DB	013H
	DB	0c0H
	DB	0bH
	DB	0a0H
	DB	0bH
	DB	0a0H
	DB	013H
	DB	0a0H
	DB	0bH
	DB	0a0H
	DB	013H
	DB	0a0H
	DB	0bH
	DB	080H
	DB	013H
	DB	080H
	DB	013H
	DB	080H
	DB	0bH
	DB	080H
	DB	013H
	DB	080H
	DB	013H
	DB	080H
	DB	013H
	DB	080H
	DB	013H
	DB	080H
	DB	01bH
	DB	060H
	DB	013H
	DB	060H
	DB	013H
	DB	060H
	DB	01bH
	DB	060H
	DB	013H
	DB	060H
	DB	01bH
	DB	060H
	DB	01bH
	DB	040H
	DB	01bH
	DB	040H
	DB	013H
	DB	060H
	DB	01bH
	DB	040H
	DB	01bH
	DB	040H
	DB	01bH
	DB	040H
	DB	01bH
	DB	040H
	DB	01bH
	DB	040H
	DB	01bH
	DB	020H
	DB	01bH
	DB	040H
	DB	023H
	DB	020H
	DB	01bH
	DB	020H
	DB	023H
	DB	020H
	DB	01bH
	DB	020H
	DB	023H
	DB	020H
	DB	023H
	DB	00H
	DB	01bH
	DB	00H
	DB	023H
	DB	020H
	DB	023H
	DB	00H
	DB	023H
	DB	00H
	DB	023H
	DB	00H
	DB	023H
	DB	00H
	DB	023H
	DB	00H
	DB	023H
	DB	0e0H
	DB	022H
	DB	0e0H
	DB	02aH
	DB	0e0H
	DB	022H
	DB	0e0H
	DB	022H
	DB	0e0H
	DB	02aH
	DB	0e0H
	DB	02aH
	DB	0e0H
	DB	022H
	DB	0c0H
	DB	02aH
	DB	0e0H
	DB	02aH
	DB	0c0H
	DB	02aH
	DB	0c0H
	DB	02aH
	DB	0c0H
	DB	02aH
	DB	0c0H
	DB	02aH
	DB	0a0H
	DB	02aH
	DB	0a0H
	DB	02aH
	DB	0a0H
	DB	02aH
	DB	0a0H
	DB	032H
	DB	0a0H
	DB	032H
	DB	0a0H
	DB	02aH
	DB	0a0H
	DB	032H
	DB	0a0H
	DB	032H
	DB	080H
	DB	02aH
	DB	080H
	DB	032H
	DB	080H
	DB	032H
	DB	080H
	DB	032H
	DB	080H
	DB	032H
	DB	080H
	DB	032H
	DB	080H
	DB	032H
	DB	060H
	DB	032H
	DB	080H
	DB	03aH
	DB	060H
	DB	032H
	DB	060H
	DB	032H
	DB	060H
	DB	032H
	DB	060H
	DB	032H
	DB	060H
	DB	03aH
	DB	060H
	DB	03aH
	DB	040H
	DB	03aH
	DB	040H
	DB	032H
	DB	060H
	DB	03aH
	DB	040H
	DB	03aH
	DB	040H
	DB	03aH
	DB	040H
	DB	03aH
	DB	020H
	DB	03aH
	DB	020H
	DB	03aH
	DB	040H
	DB	03aH
	DB	020H
	DB	03aH
	DB	020H
	DB	03aH
	DB	020H
	DB	03aH
	DB	020H
	DB	042H
	DB	020H
	DB	042H
	DB	00H
	DB	042H
	DB	00H
	DB	042H
	DB	00H
	DB	042H
	DB	00H
	DB	042H
	DB	00H
	DB	042H
	DB	00H
	DB	042H
	DB	00H
	DB	042H
	DB	00H
	DB	042H
	DB	00H
	DB	042H
	DB	00H
	DB	042H
	DB	0e0H
	DB	041H
	DB	0e0H
	DB	049H
	DB	0e0H
	DB	041H
	DB	0e0H
	DB	049H
	DB	0e0H
	DB	049H
	DB	0e0H
	DB	041H
	DB	0c0H
	DB	049H
	DB	0c0H
	DB	049H
	DB	0c0H
	DB	049H
	DB	0c0H
	DB	049H
	DB	0c0H
	DB	049H
	DB	0c0H
	DB	049H
	DB	0c0H
	DB	049H
	DB	0c0H
	DB	049H
	DB	0c0H
	DB	049H
	DB	0a0H
	DB	049H
	DB	0a0H
	DB	051H
	DB	0a0H
	DB	049H
	DB	0a0H
	DB	049H
	DB	0a0H
	DB	051H
	DB	0a0H
	DB	051H
	DB	080H
	DB	049H
	DB	0a0H
	DB	051H
	DB	080H
	DB	051H
	DB	080H
	DB	051H
	DB	080H
	DB	051H
	DB	080H
	DB	051H
	DB	080H
	DB	051H
	DB	080H
	DB	051H
	DB	060H
	DB	051H
	DB	060H
	DB	051H
	DB	060H
	DB	059H
	DB	060H
	DB	051H
	DB	060H
	DB	059H
	DB	060H
	DB	051H
	DB	040H
	DB	059H
	DB	060H
	DB	059H
	DB	040H
	DB	051H
	DB	040H
	DB	059H
	DB	040H
	DB	059H
	DB	040H
	DB	059H
	DB	040H
	DB	059H
	DB	040H
	DB	059H
	DB	040H
	DB	059H
	DB	040H
	DB	059H
	DB	040H
	DB	059H
	DB	020H
	DB	059H
	DB	020H
	DB	061H
	DB	020H
	DB	059H
	DB	020H
	DB	061H
	DB	020H
	DB	061H
	DB	020H
	DB	059H
	DB	00H
	DB	061H
	DB	00H
	DB	061H
	DB	00H
	DB	061H
	DB	00H
	DB	061H
	DB	00H
	DB	061H
	DB	00H
	DB	061H
	DB	0e0H
	DB	060H
	DB	00H
	DB	061H
	DB	00H
	DB	069H
	DB	0e0H
	DB	068H
	DB	0e0H
	DB	060H
	DB	0e0H
	DB	060H
	DB	0e0H
	DB	068H
	DB	0c0H
	DB	060H
	DB	0e0H
	DB	060H
	DB	0e0H
	DB	068H
	DB	0c0H
	DB	068H
	DB	0c0H
	DB	068H
	DB	0c0H
	DB	068H
	DB	0c0H
	DB	068H
	DB	0c0H
	DB	068H
	DB	0c0H
	DB	068H
	DB	0a0H
	DB	068H
	DB	0a0H
	DB	068H
	DB	0a0H
	DB	070H
	DB	0a0H
	DB	070H
	DB	0a0H
	DB	068H
	DB	0a0H
	DB	070H
	DB	0a0H
	DB	070H
	DB	080H
	DB	070H
	DB	0a0H
	DB	068H
	DB	080H
	DB	070H
	DB	080H
	DB	070H
	DB	080H
	DB	070H
	DB	080H
	DB	070H
	DB	080H
	DB	070H
	DB	060H
	DB	070H
	DB	080H
	DB	070H
	DB	080H
	DB	078H
	DB	060H
	DB	070H
	DB	060H
	DB	070H
	DB	060H
	DB	078H
	DB	060H
	DB	078H
	DB	060H
	DB	070H
	DB	040H
	DB	078H
	DB	040H
	DB	070H
	DB	040H
	DB	078H
	DB	040H
	DB	078H
	DB	040H
	DB	078H
	DB	040H
	DB	078H
	DB	040H
	DB	078H
	DB	020H
	DB	078H
	DB	020H
	DB	080H
	DB	040H
	DB	078H
	DB	020H
	DB	078H
	DB	020H
	DB	080H
	DB	020H
	DB	080H
	DB	020H
	DB	078H
	DB	020H
	DB	080H
	DB	00H
	DB	080H
	DB	020H
	DB	078H
	DB	020H
	DB	080H
	DB	00H
	DB	080H
	DB	00H
	DB	080H
	DB	00H
	DB	080H
	DB	00H
	DB	080H
	DB	00H
	DB	080H
	DB	00H
	DB	080H
	DB	01H
	DB	080H
	DB	01H
	DB	080H
	DB	00H
	DB	078H
	DB	01H
	DB	080H
	DB	01H
	DB	078H
	DB	00H
	DB	078H
	DB	00H
	DB	080H
	DB	01H
	DB	078H
	DB	00H
	DB	078H
	DB	01H
	DB	080H
	DB	01H
	DB	078H
	DB	01H
	DB	078H
	DB	01H
	DB	078H
	DB	01H
	DB	078H
	DB	01H
	DB	078H
	DB	01H
	DB	078H
	DB	01H
	DB	078H
	DB	01H
	DB	078H
	DB	01H
	DB	070H
	DB	02H
	DB	070H
	DB	01H
	DB	078H
	DB	01H
	DB	070H
	DB	02H
	DB	078H
	DB	02H
	DB	070H
	DB	02H
	DB	070H
	DB	02H
	DB	070H
	DB	01H
	DB	070H
	DB	02H
	DB	070H
	DB	02H
	DB	070H
	DB	02H
	DB	070H
	DB	02H
	DB	070H
	DB	02H
	DB	070H
	DB	02H
	DB	070H
	DB	03H
	DB	070H
	DB	02H
	DB	068H
	DB	02H
	DB	070H
	DB	02H
	DB	070H
	DB	03H
	DB	068H
	DB	02H
	DB	070H
	DB	02H
	DB	068H
	DB	03H
	DB	068H
	DB	02H
	DB	070H
	DB	03H
	DB	068H
	DB	03H
	DB	068H
	DB	03H
	DB	068H
	DB	03H
	DB	068H
	DB	03H
	DB	068H
	DB	03H
	DB	068H
	DB	03H
	DB	068H
	DB	03H
	DB	068H
	DB	03H
	DB	068H
	DB	04H
	DB	068H
	DB	03H
	DB	068H
	DB	03H
	DB	068H
	DB	04H
	DB	060H
	DB	03H
	DB	060H
	DB	04H
	DB	068H
	DB	04H
	DB	060H
	DB	03H
	DB	060H
	DB	04H
	DB	068H
	DB	04H
	DB	060H
	DB	04H
	DB	060H
	DB	04H
	DB	060H
	DB	04H
	DB	060H
	DB	04H
	DB	060H
	DB	04H
	DB	060H
	DB	04H
	DB	060H
	DB	04H
	DB	058H
	DB	04H
	DB	060H
	DB	05H
	DB	060H
	DB	05H
	DB	058H
	DB	04H
	DB	060H
	DB	05H
	DB	060H
	DB	05H
	DB	058H
	DB	05H
	DB	058H
	DB	05H
	DB	060H
	DB	05H
	DB	058H
	DB	05H
	DB	058H
	DB	05H
	DB	058H
	DB	05H
	DB	058H
	DB	05H
	DB	058H
	DB	05H
	DB	058H
	DB	05H
	DB	058H
	DB	06H
	DB	058H
	DB	05H
	DB	058H
	DB	05H
	DB	058H
	DB	06H
	DB	058H
	DB	06H
	DB	050H
	DB	05H
	DB	050H
	DB	05H
	DB	050H
	DB	06H
	DB	058H
	DB	06H
	DB	050H
	DB	06H
	DB	050H
	DB	06H
	DB	050H
	DB	06H
	DB	050H
	DB	06H
	DB	050H
	DB	06H
	DB	050H
	DB	06H
	DB	050H
	DB	06H
	DB	050H
	DB	06H
	DB	048H
	DB	06H
	DB	050H
	DB	07H
	DB	050H
	DB	06H
	DB	048H
	DB	06H
	DB	050H
	DB	07H
	DB	050H
	DB	07H
	DB	050H
	DB	06H
	DB	048H
	DB	07H
	DB	048H
	DB	06H
	DB	048H
	DB	07H
	DB	048H
	DB	07H
	DB	048H
	DB	06H
	DB	048H
	DB	07H
	DB	048H
	DB	07H
	DB	048H
	DB	07H
	DB	048H
	DB	07H
	DB	048H
	DB	08H
	DB	048H
	DB	08H
	DB	040H
	DB	07H
	DB	040H
	DB	07H
	DB	048H
	DB	08H
	DB	040H
	DB	07H
	DB	040H
	DB	07H
	DB	048H
	DB	08H
	DB	040H
	DB	08H
	DB	040H
	DB	08H
	DB	040H
	DB	07H
	DB	048H
	DB	08H
	DB	040H
	DB	08H
	DB	040H
	DB	08H
	DB	040H
	DB	08H
	DB	040H
	DB	08H
	DB	040H
	DB	08H
	DB	040H
	DB	08H
	DB	038H
	DB	09H
	DB	040H
	DB	08H
	DB	040H
	DB	09H
	DB	038H
	DB	08H
	DB	038H
	DB	08H
	DB	040H
	DB	09H
	DB	038H
	DB	09H
	DB	040H
	DB	09H
	DB	038H
	DB	09H
	DB	038H
	DB	09H
	DB	038H
	DB	09H
	DB	038H
	DB	09H
	DB	038H
	DB	09H
	DB	030H
	DB	0aH
	DB	038H
	DB	09H
	DB	030H
	DB	09H
	DB	038H
	DB	0aH
	DB	038H
	DB	0aH
	DB	030H
	DB	09H
	DB	038H
	DB	0aH
	DB	030H
	DB	0aH
	DB	030H
	DB	0aH
	DB	030H
	DB	0aH
	DB	030H
	DB	0aH
	DB	030H
	DB	0aH
	DB	030H
	DB	0bH
	DB	030H
	DB	0bH
	DB	030H
	DB	0aH
	DB	028H
	DB	0bH
	DB	030H
	DB	0bH
	DB	030H
	DB	0aH
	DB	028H
	DB	0aH
	DB	028H
	DB	0bH
	DB	028H
	DB	0bH
	DB	030H
	DB	0bH
	DB	028H
	DB	0bH
	DB	028H
	DB	0bH
	DB	028H
	DB	0bH
	DB	028H
	DB	0bH
	DB	028H
	DB	0cH
	DB	028H
	DB	0bH
	DB	020H
	DB	0bH
	DB	028H
	DB	0cH
	DB	028H
	DB	0cH
	DB	020H
	DB	0bH
	DB	020H
	DB	0cH
	DB	020H
	DB	0cH
	DB	020H
	DB	0cH
	DB	020H
	DB	0cH
	DB	020H
	DB	0cH
	DB	020H
	DB	0cH
	DB	020H
	DB	0cH
	DB	020H
	DB	0dH
	DB	018H
	DB	0dH
	DB	020H
	DB	0dH
	DB	020H
	DB	0cH
	DB	018H
	DB	0cH
	DB	020H
	DB	0dH
	DB	020H
	DB	0dH
	DB	018H
	DB	0dH
	DB	018H
	DB	0dH
	DB	018H
	DB	0dH
	DB	018H
	DB	0dH
	DB	018H
	DB	0dH
	DB	018H
	DB	0dH
	DB	018H
	DB	0dH
	DB	018H
	DB	0eH
	DB	010H
	DB	0dH
	DB	018H
	DB	0dH
	DB	010H
	DB	0eH
	DB	010H
	DB	0eH
	DB	018H
	DB	0eH
	DB	010H
	DB	0dH
	DB	010H
	DB	0eH
	DB	010H
	DB	0eH
	DB	010H
	DB	0eH
	DB	010H
	DB	0eH
	DB	010H
	DB	0eH
	DB	010H
	DB	0eH
	DB	010H
	DB	0fH
	DB	08H
	DB	0eH
	DB	010H
	DB	0fH
	DB	010H
	DB	0fH
	DB	08H
	DB	0fH
	DB	08H
	DB	0eH
	DB	010H
	DB	0fH
	DB	08H
	DB	0fH
	DB	08H
	DB	0fH
	DB	08H
	DB	0fH
	DB	08H
	DB	0fH
	DB	08H
	DB	0fH
	DB	08H
	DB	0fH
	DB	08H
	DB	0fH
	DB	08H
	DB	010H
	DB	00H
	DB	0fH
	DB	08H
	DB	010H
	DB	00H
	DB	0fH
	DB	00H
	DB	010H
	DB	08H
	DB	010H
	DB	00H
	DB	010H
	DB	00H
	DB	010H
	DB	00H
	DB	010H
	DB	00H
	DB	010H
	DB	00H
	DB	00H
	DB	04H
	DB	00H
	DB	04H
	DB	00H
	DB	04H
	DB	00H
	DB	04H
	DB	0e0H
	DB	0bH
	DB	0e0H
	DB	03H
	DB	0e0H
	DB	0bH
	DB	0e0H
	DB	0bH
	DB	0e0H
	DB	03H
	DB	0e0H
	DB	0bH
	DB	0e0H
	DB	03H
	DB	0e0H
	DB	0bH
	DB	0e0H
	DB	0bH
	DB	0c0H
	DB	0bH
	DB	0c0H
	DB	0bH
	DB	0c0H
	DB	0bH
	DB	0c0H
	DB	0bH
	DB	0c0H
	DB	0bH
	DB	0a0H
	DB	0bH
	DB	0a0H
	DB	0bH
	DB	0c0H
	DB	0bH
	DB	0a0H
	DB	0bH
	DB	0a0H
	DB	013H
	DB	0a0H
	DB	0bH
	DB	0a0H
	DB	013H
	DB	080H
	DB	013H
	DB	0a0H
	DB	013H
	DB	0a0H
	DB	013H
	DB	080H
	DB	013H
	DB	080H
	DB	013H
	DB	080H
	DB	013H
	DB	080H
	DB	013H
	DB	080H
	DB	013H
	DB	060H
	DB	013H
	DB	060H
	DB	01bH
	DB	060H
	DB	013H
	DB	060H
	DB	01bH
	DB	060H
	DB	013H
	DB	060H
	DB	01bH
	DB	060H
	DB	013H
	DB	060H
	DB	01bH
	DB	040H
	DB	01bH
	DB	060H
	DB	01bH
	DB	040H
	DB	01bH
	DB	040H
	DB	01bH
	DB	040H
	DB	01bH
	DB	040H
	DB	01bH
	DB	040H
	DB	01bH
	DB	020H
	DB	01bH
	DB	020H
	DB	01bH
	DB	020H
	DB	023H
	DB	020H
	DB	01bH
	DB	020H
	DB	023H
	DB	020H
	DB	023H
	DB	020H
	DB	01bH
	DB	020H
	DB	023H
	DB	00H
	DB	023H
	DB	020H
	DB	023H
	DB	00H
	DB	023H
	DB	00H
	DB	023H
	DB	00H
	DB	023H
	DB	00H
	DB	023H
	DB	0e0H
	DB	022H
	DB	00H
	DB	02bH
	DB	00H
	DB	023H
	DB	0e0H
	DB	022H
	DB	0e0H
	DB	02aH
	DB	0e0H
	DB	02aH
	DB	0e0H
	DB	02aH
	DB	0e0H
	DB	022H
	DB	0c0H
	DB	02aH
	DB	0c0H
	DB	02aH
	DB	0c0H
	DB	02aH
	DB	0c0H
	DB	02aH
	DB	0c0H
	DB	02aH
	DB	0c0H
	DB	02aH
	DB	0c0H
	DB	02aH
	DB	0c0H
	DB	02aH
	DB	0a0H
	DB	02aH
	DB	0c0H
	DB	02aH
	DB	0a0H
	DB	02aH
	DB	0a0H
	DB	02aH
	DB	0a0H
	DB	032H
	DB	0a0H
	DB	032H
	DB	080H
	DB	02aH
	DB	0a0H
	DB	032H
	DB	080H
	DB	02aH
	DB	080H
	DB	032H
	DB	080H
	DB	032H
	DB	080H
	DB	032H
	DB	080H
	DB	032H
	DB	080H
	DB	032H
	DB	080H
	DB	032H
	DB	080H
	DB	03aH
	DB	060H
	DB	03aH
	DB	060H
	DB	03aH
	DB	060H
	DB	032H
	DB	060H
	DB	03aH
	DB	060H
	DB	032H
	DB	040H
	DB	03aH
	DB	060H
	DB	03aH
	DB	040H
	DB	03aH
	DB	040H
	DB	03aH
	DB	040H
	DB	03aH
	DB	040H
	DB	03aH
	DB	020H
	DB	03aH
	DB	040H
	DB	03aH
	DB	040H
	DB	03aH
	DB	020H
	DB	042H
	DB	020H
	DB	042H
	DB	020H
	DB	042H
	DB	020H
	DB	03aH
	DB	020H
	DB	03aH
	DB	020H
	DB	042H
	DB	020H
	DB	03aH
	DB	00H
	DB	042H
	DB	00H
	DB	042H
	DB	00H
	DB	042H
	DB	00H
	DB	042H
	DB	00H
	DB	042H
	DB	00H
	DB	042H
	DB	0e0H
	DB	041H
	DB	0e0H
	DB	049H
	DB	0e0H
	DB	049H
	DB	00H
	DB	042H
	DB	0e0H
	DB	041H
	DB	0e0H
	DB	049H
	DB	0e0H
	DB	049H
	DB	0e0H
	DB	041H
	DB	0c0H
	DB	049H
	DB	0c0H
	DB	049H
	DB	0c0H
	DB	049H
	DB	0c0H
	DB	049H
	DB	0c0H
	DB	049H
	DB	0c0H
	DB	049H
	DB	0a0H
	DB	049H
	DB	0a0H
	DB	051H
	DB	0c0H
	DB	051H
	DB	0a0H
	DB	049H
	DB	0a0H
	DB	051H
	DB	0a0H
	DB	051H
	DB	0a0H
	DB	051H
	DB	0a0H
	DB	049H
	DB	0a0H
	DB	051H
	DB	080H
	DB	051H
	DB	0a0H
	DB	051H
	DB	080H
	DB	051H
	DB	080H
	DB	051H
	DB	080H
	DB	051H
	DB	080H
	DB	051H
	DB	080H
	DB	051H
	DB	060H
	DB	051H
	DB	080H
	DB	051H
	DB	060H
	DB	051H
	DB	060H
	DB	059H
	DB	060H
	DB	051H
	DB	060H
	DB	051H
	DB	060H
	DB	059H
	DB	060H
	DB	059H
	DB	040H
	DB	059H
	DB	060H
	DB	059H
	DB	040H
	DB	059H
	DB	040H
	DB	059H
	DB	040H
	DB	059H
	DB	040H
	DB	059H
	DB	040H
	DB	059H
	DB	040H
	DB	059H
	DB	020H
	DB	059H
	DB	020H
	DB	061H
	DB	020H
	DB	061H
	DB	020H
	DB	059H
	DB	020H
	DB	059H
	DB	020H
	DB	061H
	DB	020H
	DB	061H
	DB	00H
	DB	061H
	DB	00H
	DB	061H
	DB	020H
	DB	061H
	DB	00H
	DB	061H
	DB	00H
	DB	061H
	DB	00H
	DB	061H
	DB	00H
	DB	061H
	DB	0e0H
	DB	060H
	DB	0e0H
	DB	060H
	DB	00H
	DB	069H
	DB	0e0H
	DB	060H
	DB	0e0H
	DB	060H
	DB	0e0H
	DB	068H
	DB	0e0H
	DB	068H
	DB	0e0H
	DB	068H
	DB	0e0H
	DB	068H
	DB	0c0H
	DB	068H
	DB	0c0H
	DB	068H
	DB	0c0H
	DB	068H
	DB	0c0H
	DB	068H
	DB	0c0H
	DB	068H
	DB	0c0H
	DB	068H
	DB	0c0H
	DB	068H
	DB	0c0H
	DB	070H
	DB	0c0H
	DB	068H
	DB	0a0H
	DB	068H
	DB	0a0H
	DB	070H
	DB	0a0H
	DB	068H
	DB	0a0H
	DB	068H
	DB	0a0H
	DB	070H
	DB	080H
	DB	068H
	DB	080H
	DB	070H
	DB	080H
	DB	070H
	DB	080H
	DB	070H
	DB	080H
	DB	070H
	DB	080H
	DB	070H
	DB	080H
	DB	070H
	DB	080H
	DB	070H
	DB	060H
	DB	078H
	DB	060H
	DB	070H
	DB	060H
	DB	070H
	DB	060H
	DB	078H
	DB	060H
	DB	070H
	DB	060H
	DB	070H
	DB	060H
	DB	078H
	DB	040H
	DB	070H
	DB	060H
	DB	078H
	DB	040H
	DB	078H
	DB	040H
	DB	078H
	DB	040H
	DB	078H
	DB	040H
	DB	078H
	DB	040H
	DB	078H
	DB	020H
	DB	078H
	DB	040H
	DB	078H
	DB	040H
	DB	080H
	DB	020H
	DB	078H
	DB	020H
	DB	080H
	DB	020H
	DB	078H
	DB	020H
	DB	080H
	DB	020H
	DB	078H
	DB	020H
	DB	080H
	DB	00H
	DB	080H
	DB	00H
	DB	080H
	DB	00H
	DB	080H
	DB	020H
	DB	080H
	DB	00H
	DB	080H
	DB	00H
	DB	078H
	DB	00H
	DB	080H
	DB	00H
	DB	080H
	DB	00H
	DB	078H
	DB	01H
	DB	078H
	DB	00H
	DB	080H
	DB	01H
	DB	078H
	DB	01H
	DB	080H
	DB	01H
	DB	078H
	DB	01H
	DB	080H
	DB	01H
	DB	078H
	DB	01H
	DB	078H
	DB	01H
	DB	078H
	DB	01H
	DB	078H
	DB	01H
	DB	078H
	DB	01H
	DB	078H
	DB	01H
	DB	078H
	DB	01H
	DB	078H
	DB	02H
	DB	078H
	DB	01H
	DB	078H
	DB	01H
	DB	078H
	DB	02H
	DB	078H
	DB	02H
	DB	070H
	DB	01H
	DB	070H
	DB	02H
	DB	078H
	DB	01H
	DB	070H
	DB	01H
	DB	070H
	DB	02H
	DB	078H
	DB	02H
	DB	070H
	DB	02H
	DB	070H
	DB	02H
	DB	070H
	DB	02H
	DB	070H
	DB	02H
	DB	070H
	DB	02H
	DB	070H
	DB	02H
	DB	070H
	DB	02H
	DB	070H
	DB	02H
	DB	070H
	DB	03H
	DB	070H
	DB	02H
	DB	068H
	DB	03H
	DB	068H
	DB	02H
	DB	070H
	DB	03H
	DB	068H
	DB	03H
	DB	070H
	DB	03H
	DB	068H
	DB	03H
	DB	068H
	DB	02H
	DB	070H
	DB	03H
	DB	068H
	DB	03H
	DB	068H
	DB	03H
	DB	068H
	DB	03H
	DB	068H
	DB	03H
	DB	068H
	DB	03H
	DB	068H
	DB	03H
	DB	068H
	DB	03H
	DB	060H
	DB	04H
	DB	060H
	DB	03H
	DB	068H
	DB	04H
	DB	068H
	DB	03H
	DB	060H
	DB	04H
	DB	068H
	DB	04H
	DB	060H
	DB	03H
	DB	060H
	DB	04H
	DB	060H
	DB	04H
	DB	060H
	DB	04H
	DB	060H
	DB	04H
	DB	060H
	DB	04H
	DB	060H
	DB	04H
	DB	060H
	DB	04H
	DB	060H
	DB	04H
	DB	060H
	DB	04H
	DB	058H
	DB	04H
	DB	060H
	DB	04H
	DB	060H
	DB	05H
	DB	060H
	DB	04H
	DB	058H
	DB	04H
	DB	060H
	DB	04H
	DB	058H
	DB	04H
	DB	058H
	DB	05H
	DB	060H
	DB	05H
	DB	058H
	DB	04H
	DB	058H
	DB	05H
	DB	058H
	DB	05H
	DB	058H
	DB	05H
	DB	058H
	DB	05H
	DB	058H
	DB	05H
	DB	058H
	DB	05H
	DB	050H
	DB	05H
	DB	058H
	DB	06H
	DB	058H
	DB	05H
	DB	050H
	DB	05H
	DB	050H
	DB	06H
	DB	058H
	DB	06H
	DB	058H
	DB	06H
	DB	050H
	DB	06H
	DB	050H
	DB	05H
	DB	058H
	DB	05H
	DB	050H
	DB	06H
	DB	050H
	DB	06H
	DB	050H
	DB	06H
	DB	050H
	DB	06H
	DB	050H
	DB	06H
	DB	050H
	DB	06H
	DB	050H
	DB	06H
	DB	050H
	DB	06H
	DB	048H
	DB	07H
	DB	050H
	DB	06H
	DB	050H
	DB	06H
	DB	048H
	DB	07H
	DB	048H
	DB	07H
	DB	050H
	DB	06H
	DB	048H
	DB	07H
	DB	050H
	DB	07H
	DB	048H
	DB	06H
	DB	048H
	DB	07H
	DB	048H
	DB	07H
	DB	048H
	DB	07H
	DB	048H
	DB	07H
	DB	048H
	DB	07H
	DB	048H
	DB	07H
	DB	048H
	DB	07H
	DB	048H
	DB	07H
	DB	048H
	DB	08H
	DB	048H
	DB	07H
	DB	048H
	DB	08H
	DB	040H
	DB	08H
	DB	048H
	DB	07H
	DB	040H
	DB	08H
	DB	048H
	DB	08H
	DB	040H
	DB	08H
	DB	040H
	DB	08H
	DB	040H
	DB	08H
	DB	040H
	DB	08H
	DB	040H
	DB	08H
	DB	040H
	DB	08H
	DB	040H
	DB	08H
	DB	040H
	DB	08H
	DB	040H
	DB	09H
	DB	040H
	DB	08H
	DB	038H
	DB	09H
	DB	040H
	DB	08H
	DB	040H
	DB	09H
	DB	038H
	DB	08H
	DB	038H
	DB	09H
	DB	038H
	DB	09H
	DB	038H
	DB	09H
	DB	038H
	DB	09H
	DB	038H
	DB	09H
	DB	038H
	DB	09H
	DB	038H
	DB	09H
	DB	038H
	DB	09H
	DB	038H
	DB	0aH
	DB	038H
	DB	09H
	DB	030H
	DB	0aH
	DB	030H
	DB	0aH
	DB	030H
	DB	09H
	DB	030H
	DB	0aH
	DB	030H
	DB	0aH
	DB	030H
	DB	0aH
	DB	030H
	DB	0aH
	DB	030H
	DB	0aH
	DB	030H
	DB	0aH
	DB	030H
	DB	0aH
	DB	030H
	DB	0aH
	DB	030H
	DB	0aH
	DB	028H
	DB	0aH
	DB	030H
	DB	0bH
	DB	028H
	DB	0aH
	DB	028H
	DB	0bH
	DB	030H
	DB	0bH
	DB	028H
	DB	0bH
	DB	028H
	DB	0bH
	DB	028H
	DB	0bH
	DB	028H
	DB	0bH
	DB	028H
	DB	0bH
	DB	028H
	DB	0bH
	DB	028H
	DB	0bH
	DB	028H
	DB	0bH
	DB	020H
	DB	0cH
	DB	028H
	DB	0bH
	DB	028H
	DB	0cH
	DB	020H
	DB	0cH
	DB	020H
	DB	0bH
	DB	028H
	DB	0cH
	DB	020H
	DB	0cH
	DB	028H
	DB	0cH
	DB	020H
	DB	0cH
	DB	020H
	DB	0cH
	DB	020H
	DB	0cH
	DB	020H
	DB	0cH
	DB	020H
	DB	0cH
	DB	020H
	DB	0cH
	DB	020H
	DB	0cH
	DB	018H
	DB	0dH
	DB	018H
	DB	0dH
	DB	018H
	DB	0cH
	DB	020H
	DB	0dH
	DB	018H
	DB	0cH
	DB	020H
	DB	0dH
	DB	018H
	DB	0dH
	DB	018H
	DB	0dH
	DB	018H
	DB	0dH
	DB	018H
	DB	0dH
	DB	018H
	DB	0dH
	DB	018H
	DB	0eH
	DB	018H
	DB	0dH
	DB	018H
	DB	0eH
	DB	018H
	DB	0dH
	DB	010H
	DB	0eH
	DB	018H
	DB	0eH
	DB	010H
	DB	0dH
	DB	018H
	DB	0eH
	DB	010H
	DB	0eH
	DB	010H
	DB	0eH
	DB	010H
	DB	0eH
	DB	010H
	DB	0eH
	DB	010H
	DB	0eH
	DB	010H
	DB	0fH
	DB	010H
	DB	0eH
	DB	08H
	DB	0eH
	DB	010H
