; Listing generated by Microsoft (R) Optimizing Compiler Version 19.00.24215.1 

	TITLE	D:\TouchGFX\4.8.0\app\template\PowerSupplySystem\generated\images\src\BitmapDatabase.cpp
	.686P
	.XMM
	include listing.inc
	.model	flat

INCLUDELIB MSVCRTD
INCLUDELIB OLDNAMES

PUBLIC	?getInstance@BitmapDatabase@@YAPBUBitmapData@Bitmap@touchgfx@@XZ ; BitmapDatabase::getInstance
PUBLIC	?getInstanceSize@BitmapDatabase@@YAGXZ		; BitmapDatabase::getInstanceSize
EXTRN	__RTC_InitBase:PROC
EXTRN	__RTC_Shutdown:PROC
EXTRN	?_Background_Rev1@@3QBEB:BYTE			; _Background_Rev1
EXTRN	?_Blue_Buttons_Round_Edge_icon_button@@3QBEB:BYTE ; _Blue_Buttons_Round_Edge_icon_button
EXTRN	?_Blue_Buttons_Round_Edge_icon_button_pressed@@3QBEB:BYTE ; _Blue_Buttons_Round_Edge_icon_button_pressed
EXTRN	?_Blue_Icons_Down_arrow_48@@3QBEB:BYTE		; _Blue_Icons_Down_arrow_48
EXTRN	?_Blue_Icons_Power_48@@3QBEB:BYTE		; _Blue_Icons_Power_48
EXTRN	?_Blue_Icons_Up_arrow_48@@3QBEB:BYTE		; _Blue_Icons_Up_arrow_48
EXTRN	?_Down_arrow_48@@3QBEB:BYTE			; _Down_arrow_48
EXTRN	?_GraphImage@@3QBEB:BYTE			; _GraphImage
EXTRN	?_Green_Bolt@@3QBEB:BYTE			; _Green_Bolt
EXTRN	?_Red_Bolt@@3QBEB:BYTE				; _Red_Bolt
EXTRN	?_Round_Edge_icon_button@@3QBEB:BYTE		; _Round_Edge_icon_button
EXTRN	?_Round_Edge_icon_button_pressed@@3QBEB:BYTE	; _Round_Edge_icon_button_pressed
EXTRN	?_Up_arrow_48@@3QBEB:BYTE			; _Up_arrow_48
_BSS	SEGMENT
?bitmap_database@@3QBUBitmapData@Bitmap@touchgfx@@B DB 0138H DUP (?) ; bitmap_database
_BSS	ENDS
CRT$XCU	SEGMENT
?bitmap_database$initializer$@@3P6AXXZA DD FLAT:??__Ebitmap_database@@YAXXZ ; bitmap_database$initializer$
CRT$XCU	ENDS
;	COMDAT rtc$TMZ
rtc$TMZ	SEGMENT
__RTC_Shutdown.rtc$TMZ DD FLAT:__RTC_Shutdown
rtc$TMZ	ENDS
;	COMDAT rtc$IMZ
rtc$IMZ	SEGMENT
__RTC_InitBase.rtc$IMZ DD FLAT:__RTC_InitBase
rtc$IMZ	ENDS
; Function compile flags: /Odtp /RTCsu /ZI
;	COMDAT ??__Ebitmap_database@@YAXXZ
text$di	SEGMENT
??__Ebitmap_database@@YAXXZ PROC			; `dynamic initializer for 'bitmap_database'', COMDAT
; File d:\touchgfx\4.8.0\app\template\powersupplysystem\generated\images\src\bitmapdatabase.cpp
; Line 38
	push	ebp
	mov	ebp, esp
	sub	esp, 192				; 000000c0H
	push	ebx
	push	esi
	push	edi
	lea	edi, DWORD PTR [ebp-192]
	mov	ecx, 48					; 00000030H
	mov	eax, -858993460				; ccccccccH
	rep stosd
; Line 25
	mov	DWORD PTR ?bitmap_database@@3QBUBitmapData@Bitmap@touchgfx@@B, OFFSET ?_Background_Rev1@@3QBEB ; _Background_Rev1
	mov	DWORD PTR ?bitmap_database@@3QBUBitmapData@Bitmap@touchgfx@@B+4, 0
	mov	eax, 480				; 000001e0H
	mov	WORD PTR ?bitmap_database@@3QBUBitmapData@Bitmap@touchgfx@@B+8, ax
	mov	eax, 272				; 00000110H
	mov	WORD PTR ?bitmap_database@@3QBUBitmapData@Bitmap@touchgfx@@B+10, ax
	xor	eax, eax
	mov	WORD PTR ?bitmap_database@@3QBUBitmapData@Bitmap@touchgfx@@B+12, ax
	xor	eax, eax
	mov	WORD PTR ?bitmap_database@@3QBUBitmapData@Bitmap@touchgfx@@B+14, ax
	mov	eax, 480				; 000001e0H
	mov	WORD PTR ?bitmap_database@@3QBUBitmapData@Bitmap@touchgfx@@B+16, ax
	mov	eax, 272				; 00000110H
	mov	WORD PTR ?bitmap_database@@3QBUBitmapData@Bitmap@touchgfx@@B+18, ax
	mov	BYTE PTR ?bitmap_database@@3QBUBitmapData@Bitmap@touchgfx@@B+20, 0
; Line 26
	mov	DWORD PTR ?bitmap_database@@3QBUBitmapData@Bitmap@touchgfx@@B+24, OFFSET ?_Blue_Buttons_Round_Edge_icon_button@@3QBEB ; _Blue_Buttons_Round_Edge_icon_button
	mov	DWORD PTR ?bitmap_database@@3QBUBitmapData@Bitmap@touchgfx@@B+28, 0
	mov	eax, 60					; 0000003cH
	mov	WORD PTR ?bitmap_database@@3QBUBitmapData@Bitmap@touchgfx@@B+32, ax
	mov	eax, 60					; 0000003cH
	mov	WORD PTR ?bitmap_database@@3QBUBitmapData@Bitmap@touchgfx@@B+34, ax
	mov	eax, 7
	mov	WORD PTR ?bitmap_database@@3QBUBitmapData@Bitmap@touchgfx@@B+36, ax
	mov	eax, 6
	mov	WORD PTR ?bitmap_database@@3QBUBitmapData@Bitmap@touchgfx@@B+38, ax
	mov	eax, 46					; 0000002eH
	mov	WORD PTR ?bitmap_database@@3QBUBitmapData@Bitmap@touchgfx@@B+40, ax
	mov	eax, 46					; 0000002eH
	mov	WORD PTR ?bitmap_database@@3QBUBitmapData@Bitmap@touchgfx@@B+42, ax
	mov	BYTE PTR ?bitmap_database@@3QBUBitmapData@Bitmap@touchgfx@@B+44, 2
; Line 27
	mov	DWORD PTR ?bitmap_database@@3QBUBitmapData@Bitmap@touchgfx@@B+48, OFFSET ?_Blue_Buttons_Round_Edge_icon_button_pressed@@3QBEB ; _Blue_Buttons_Round_Edge_icon_button_pressed
	mov	DWORD PTR ?bitmap_database@@3QBUBitmapData@Bitmap@touchgfx@@B+52, 0
	mov	eax, 60					; 0000003cH
	mov	WORD PTR ?bitmap_database@@3QBUBitmapData@Bitmap@touchgfx@@B+56, ax
	mov	eax, 60					; 0000003cH
	mov	WORD PTR ?bitmap_database@@3QBUBitmapData@Bitmap@touchgfx@@B+58, ax
	mov	eax, 7
	mov	WORD PTR ?bitmap_database@@3QBUBitmapData@Bitmap@touchgfx@@B+60, ax
	mov	eax, 6
	mov	WORD PTR ?bitmap_database@@3QBUBitmapData@Bitmap@touchgfx@@B+62, ax
	mov	eax, 46					; 0000002eH
	mov	WORD PTR ?bitmap_database@@3QBUBitmapData@Bitmap@touchgfx@@B+64, ax
	mov	eax, 46					; 0000002eH
	mov	WORD PTR ?bitmap_database@@3QBUBitmapData@Bitmap@touchgfx@@B+66, ax
	mov	BYTE PTR ?bitmap_database@@3QBUBitmapData@Bitmap@touchgfx@@B+68, 2
; Line 28
	mov	DWORD PTR ?bitmap_database@@3QBUBitmapData@Bitmap@touchgfx@@B+72, OFFSET ?_Blue_Icons_Down_arrow_48@@3QBEB ; _Blue_Icons_Down_arrow_48
	mov	DWORD PTR ?bitmap_database@@3QBUBitmapData@Bitmap@touchgfx@@B+76, 0
	mov	eax, 46					; 0000002eH
	mov	WORD PTR ?bitmap_database@@3QBUBitmapData@Bitmap@touchgfx@@B+80, ax
	mov	eax, 26					; 0000001aH
	mov	WORD PTR ?bitmap_database@@3QBUBitmapData@Bitmap@touchgfx@@B+82, ax
	mov	eax, 17					; 00000011H
	mov	WORD PTR ?bitmap_database@@3QBUBitmapData@Bitmap@touchgfx@@B+84, ax
	mov	eax, 15					; 0000000fH
	mov	WORD PTR ?bitmap_database@@3QBUBitmapData@Bitmap@touchgfx@@B+86, ax
	mov	eax, 12					; 0000000cH
	mov	WORD PTR ?bitmap_database@@3QBUBitmapData@Bitmap@touchgfx@@B+88, ax
	mov	eax, 7
	mov	WORD PTR ?bitmap_database@@3QBUBitmapData@Bitmap@touchgfx@@B+90, ax
	mov	BYTE PTR ?bitmap_database@@3QBUBitmapData@Bitmap@touchgfx@@B+92, 2
; Line 29
	mov	DWORD PTR ?bitmap_database@@3QBUBitmapData@Bitmap@touchgfx@@B+96, OFFSET ?_Blue_Icons_Power_48@@3QBEB ; _Blue_Icons_Power_48
	mov	DWORD PTR ?bitmap_database@@3QBUBitmapData@Bitmap@touchgfx@@B+100, 0
	mov	eax, 46					; 0000002eH
	mov	WORD PTR ?bitmap_database@@3QBUBitmapData@Bitmap@touchgfx@@B+104, ax
	mov	eax, 46					; 0000002eH
	mov	WORD PTR ?bitmap_database@@3QBUBitmapData@Bitmap@touchgfx@@B+106, ax
	mov	eax, 37					; 00000025H
	mov	WORD PTR ?bitmap_database@@3QBUBitmapData@Bitmap@touchgfx@@B+108, ax
	mov	eax, 12					; 0000000cH
	mov	WORD PTR ?bitmap_database@@3QBUBitmapData@Bitmap@touchgfx@@B+110, ax
	mov	eax, 6
	mov	WORD PTR ?bitmap_database@@3QBUBitmapData@Bitmap@touchgfx@@B+112, ax
	mov	eax, 22					; 00000016H
	mov	WORD PTR ?bitmap_database@@3QBUBitmapData@Bitmap@touchgfx@@B+114, ax
	mov	BYTE PTR ?bitmap_database@@3QBUBitmapData@Bitmap@touchgfx@@B+116, 2
; Line 30
	mov	DWORD PTR ?bitmap_database@@3QBUBitmapData@Bitmap@touchgfx@@B+120, OFFSET ?_Blue_Icons_Up_arrow_48@@3QBEB ; _Blue_Icons_Up_arrow_48
	mov	DWORD PTR ?bitmap_database@@3QBUBitmapData@Bitmap@touchgfx@@B+124, 0
	mov	eax, 46					; 0000002eH
	mov	WORD PTR ?bitmap_database@@3QBUBitmapData@Bitmap@touchgfx@@B+128, ax
	mov	eax, 26					; 0000001aH
	mov	WORD PTR ?bitmap_database@@3QBUBitmapData@Bitmap@touchgfx@@B+130, ax
	mov	eax, 17					; 00000011H
	mov	WORD PTR ?bitmap_database@@3QBUBitmapData@Bitmap@touchgfx@@B+132, ax
	mov	eax, 4
	mov	WORD PTR ?bitmap_database@@3QBUBitmapData@Bitmap@touchgfx@@B+134, ax
	mov	eax, 12					; 0000000cH
	mov	WORD PTR ?bitmap_database@@3QBUBitmapData@Bitmap@touchgfx@@B+136, ax
	mov	eax, 7
	mov	WORD PTR ?bitmap_database@@3QBUBitmapData@Bitmap@touchgfx@@B+138, ax
	mov	BYTE PTR ?bitmap_database@@3QBUBitmapData@Bitmap@touchgfx@@B+140, 2
; Line 31
	mov	DWORD PTR ?bitmap_database@@3QBUBitmapData@Bitmap@touchgfx@@B+144, OFFSET ?_Down_arrow_48@@3QBEB ; _Down_arrow_48
	mov	DWORD PTR ?bitmap_database@@3QBUBitmapData@Bitmap@touchgfx@@B+148, 0
	mov	eax, 48					; 00000030H
	mov	WORD PTR ?bitmap_database@@3QBUBitmapData@Bitmap@touchgfx@@B+152, ax
	mov	eax, 28					; 0000001cH
	mov	WORD PTR ?bitmap_database@@3QBUBitmapData@Bitmap@touchgfx@@B+154, ax
	mov	eax, 18					; 00000012H
	mov	WORD PTR ?bitmap_database@@3QBUBitmapData@Bitmap@touchgfx@@B+156, ax
	mov	eax, 15					; 0000000fH
	mov	WORD PTR ?bitmap_database@@3QBUBitmapData@Bitmap@touchgfx@@B+158, ax
	mov	eax, 12					; 0000000cH
	mov	WORD PTR ?bitmap_database@@3QBUBitmapData@Bitmap@touchgfx@@B+160, ax
	mov	eax, 7
	mov	WORD PTR ?bitmap_database@@3QBUBitmapData@Bitmap@touchgfx@@B+162, ax
	mov	BYTE PTR ?bitmap_database@@3QBUBitmapData@Bitmap@touchgfx@@B+164, 2
; Line 32
	mov	DWORD PTR ?bitmap_database@@3QBUBitmapData@Bitmap@touchgfx@@B+168, OFFSET ?_GraphImage@@3QBEB ; _GraphImage
	mov	DWORD PTR ?bitmap_database@@3QBUBitmapData@Bitmap@touchgfx@@B+172, 0
	mov	eax, 110				; 0000006eH
	mov	WORD PTR ?bitmap_database@@3QBUBitmapData@Bitmap@touchgfx@@B+176, ax
	mov	eax, 110				; 0000006eH
	mov	WORD PTR ?bitmap_database@@3QBUBitmapData@Bitmap@touchgfx@@B+178, ax
	mov	eax, 6
	mov	WORD PTR ?bitmap_database@@3QBUBitmapData@Bitmap@touchgfx@@B+180, ax
	xor	eax, eax
	mov	WORD PTR ?bitmap_database@@3QBUBitmapData@Bitmap@touchgfx@@B+182, ax
	mov	eax, 4
	mov	WORD PTR ?bitmap_database@@3QBUBitmapData@Bitmap@touchgfx@@B+184, ax
	mov	eax, 110				; 0000006eH
	mov	WORD PTR ?bitmap_database@@3QBUBitmapData@Bitmap@touchgfx@@B+186, ax
	mov	BYTE PTR ?bitmap_database@@3QBUBitmapData@Bitmap@touchgfx@@B+188, 2
; Line 33
	mov	DWORD PTR ?bitmap_database@@3QBUBitmapData@Bitmap@touchgfx@@B+192, OFFSET ?_Green_Bolt@@3QBEB ; _Green_Bolt
	mov	DWORD PTR ?bitmap_database@@3QBUBitmapData@Bitmap@touchgfx@@B+196, 0
	mov	eax, 40					; 00000028H
	mov	WORD PTR ?bitmap_database@@3QBUBitmapData@Bitmap@touchgfx@@B+200, ax
	mov	eax, 40					; 00000028H
	mov	WORD PTR ?bitmap_database@@3QBUBitmapData@Bitmap@touchgfx@@B+202, ax
	mov	eax, 12					; 0000000cH
	mov	WORD PTR ?bitmap_database@@3QBUBitmapData@Bitmap@touchgfx@@B+204, ax
	mov	eax, 17					; 00000011H
	mov	WORD PTR ?bitmap_database@@3QBUBitmapData@Bitmap@touchgfx@@B+206, ax
	mov	eax, 15					; 0000000fH
	mov	WORD PTR ?bitmap_database@@3QBUBitmapData@Bitmap@touchgfx@@B+208, ax
	mov	eax, 6
	mov	WORD PTR ?bitmap_database@@3QBUBitmapData@Bitmap@touchgfx@@B+210, ax
	mov	BYTE PTR ?bitmap_database@@3QBUBitmapData@Bitmap@touchgfx@@B+212, 2
; Line 34
	mov	DWORD PTR ?bitmap_database@@3QBUBitmapData@Bitmap@touchgfx@@B+216, OFFSET ?_Red_Bolt@@3QBEB ; _Red_Bolt
	mov	DWORD PTR ?bitmap_database@@3QBUBitmapData@Bitmap@touchgfx@@B+220, 0
	mov	eax, 40					; 00000028H
	mov	WORD PTR ?bitmap_database@@3QBUBitmapData@Bitmap@touchgfx@@B+224, ax
	mov	eax, 40					; 00000028H
	mov	WORD PTR ?bitmap_database@@3QBUBitmapData@Bitmap@touchgfx@@B+226, ax
	mov	eax, 15					; 0000000fH
	mov	WORD PTR ?bitmap_database@@3QBUBitmapData@Bitmap@touchgfx@@B+228, ax
	mov	eax, 19					; 00000013H
	mov	WORD PTR ?bitmap_database@@3QBUBitmapData@Bitmap@touchgfx@@B+230, ax
	mov	eax, 11					; 0000000bH
	mov	WORD PTR ?bitmap_database@@3QBUBitmapData@Bitmap@touchgfx@@B+232, ax
	mov	eax, 3
	mov	WORD PTR ?bitmap_database@@3QBUBitmapData@Bitmap@touchgfx@@B+234, ax
	mov	BYTE PTR ?bitmap_database@@3QBUBitmapData@Bitmap@touchgfx@@B+236, 2
; Line 35
	mov	DWORD PTR ?bitmap_database@@3QBUBitmapData@Bitmap@touchgfx@@B+240, OFFSET ?_Round_Edge_icon_button@@3QBEB ; _Round_Edge_icon_button
	mov	DWORD PTR ?bitmap_database@@3QBUBitmapData@Bitmap@touchgfx@@B+244, 0
	mov	eax, 60					; 0000003cH
	mov	WORD PTR ?bitmap_database@@3QBUBitmapData@Bitmap@touchgfx@@B+248, ax
	mov	eax, 60					; 0000003cH
	mov	WORD PTR ?bitmap_database@@3QBUBitmapData@Bitmap@touchgfx@@B+250, ax
	mov	eax, 7
	mov	WORD PTR ?bitmap_database@@3QBUBitmapData@Bitmap@touchgfx@@B+252, ax
	mov	eax, 6
	mov	WORD PTR ?bitmap_database@@3QBUBitmapData@Bitmap@touchgfx@@B+254, ax
	mov	eax, 46					; 0000002eH
	mov	WORD PTR ?bitmap_database@@3QBUBitmapData@Bitmap@touchgfx@@B+256, ax
	mov	eax, 46					; 0000002eH
	mov	WORD PTR ?bitmap_database@@3QBUBitmapData@Bitmap@touchgfx@@B+258, ax
	mov	BYTE PTR ?bitmap_database@@3QBUBitmapData@Bitmap@touchgfx@@B+260, 2
; Line 36
	mov	DWORD PTR ?bitmap_database@@3QBUBitmapData@Bitmap@touchgfx@@B+264, OFFSET ?_Round_Edge_icon_button_pressed@@3QBEB ; _Round_Edge_icon_button_pressed
	mov	DWORD PTR ?bitmap_database@@3QBUBitmapData@Bitmap@touchgfx@@B+268, 0
	mov	eax, 60					; 0000003cH
	mov	WORD PTR ?bitmap_database@@3QBUBitmapData@Bitmap@touchgfx@@B+272, ax
	mov	eax, 60					; 0000003cH
	mov	WORD PTR ?bitmap_database@@3QBUBitmapData@Bitmap@touchgfx@@B+274, ax
	mov	eax, 7
	mov	WORD PTR ?bitmap_database@@3QBUBitmapData@Bitmap@touchgfx@@B+276, ax
	mov	eax, 6
	mov	WORD PTR ?bitmap_database@@3QBUBitmapData@Bitmap@touchgfx@@B+278, ax
	mov	eax, 46					; 0000002eH
	mov	WORD PTR ?bitmap_database@@3QBUBitmapData@Bitmap@touchgfx@@B+280, ax
	mov	eax, 46					; 0000002eH
	mov	WORD PTR ?bitmap_database@@3QBUBitmapData@Bitmap@touchgfx@@B+282, ax
	mov	BYTE PTR ?bitmap_database@@3QBUBitmapData@Bitmap@touchgfx@@B+284, 2
; Line 37
	mov	DWORD PTR ?bitmap_database@@3QBUBitmapData@Bitmap@touchgfx@@B+288, OFFSET ?_Up_arrow_48@@3QBEB ; _Up_arrow_48
	mov	DWORD PTR ?bitmap_database@@3QBUBitmapData@Bitmap@touchgfx@@B+292, 0
	mov	eax, 48					; 00000030H
	mov	WORD PTR ?bitmap_database@@3QBUBitmapData@Bitmap@touchgfx@@B+296, ax
	mov	eax, 28					; 0000001cH
	mov	WORD PTR ?bitmap_database@@3QBUBitmapData@Bitmap@touchgfx@@B+298, ax
	mov	eax, 18					; 00000012H
	mov	WORD PTR ?bitmap_database@@3QBUBitmapData@Bitmap@touchgfx@@B+300, ax
	mov	eax, 4
	mov	WORD PTR ?bitmap_database@@3QBUBitmapData@Bitmap@touchgfx@@B+302, ax
	mov	eax, 12					; 0000000cH
	mov	WORD PTR ?bitmap_database@@3QBUBitmapData@Bitmap@touchgfx@@B+304, ax
	mov	eax, 7
	mov	WORD PTR ?bitmap_database@@3QBUBitmapData@Bitmap@touchgfx@@B+306, ax
	mov	BYTE PTR ?bitmap_database@@3QBUBitmapData@Bitmap@touchgfx@@B+308, 2
	pop	edi
	pop	esi
	pop	ebx
	mov	esp, ebp
	pop	ebp
	ret	0
??__Ebitmap_database@@YAXXZ ENDP			; `dynamic initializer for 'bitmap_database''
text$di	ENDS
; Function compile flags: /Odtp /RTCsu /ZI
;	COMDAT ?getInstanceSize@BitmapDatabase@@YAGXZ
_TEXT	SEGMENT
?getInstanceSize@BitmapDatabase@@YAGXZ PROC		; BitmapDatabase::getInstanceSize, COMDAT
; File d:\touchgfx\4.8.0\app\template\powersupplysystem\generated\images\src\bitmapdatabase.cpp
; Line 47
	push	ebp
	mov	ebp, esp
	sub	esp, 192				; 000000c0H
	push	ebx
	push	esi
	push	edi
	lea	edi, DWORD PTR [ebp-192]
	mov	ecx, 48					; 00000030H
	mov	eax, -858993460				; ccccccccH
	rep stosd
; Line 48
	mov	eax, 13					; 0000000dH
; Line 49
	pop	edi
	pop	esi
	pop	ebx
	mov	esp, ebp
	pop	ebp
	ret	0
?getInstanceSize@BitmapDatabase@@YAGXZ ENDP		; BitmapDatabase::getInstanceSize
_TEXT	ENDS
; Function compile flags: /Odtp /RTCsu /ZI
;	COMDAT ?getInstance@BitmapDatabase@@YAPBUBitmapData@Bitmap@touchgfx@@XZ
_TEXT	SEGMENT
?getInstance@BitmapDatabase@@YAPBUBitmapData@Bitmap@touchgfx@@XZ PROC ; BitmapDatabase::getInstance, COMDAT
; File d:\touchgfx\4.8.0\app\template\powersupplysystem\generated\images\src\bitmapdatabase.cpp
; Line 43
	push	ebp
	mov	ebp, esp
	sub	esp, 192				; 000000c0H
	push	ebx
	push	esi
	push	edi
	lea	edi, DWORD PTR [ebp-192]
	mov	ecx, 48					; 00000030H
	mov	eax, -858993460				; ccccccccH
	rep stosd
; Line 44
	mov	eax, OFFSET ?bitmap_database@@3QBUBitmapData@Bitmap@touchgfx@@B
; Line 45
	pop	edi
	pop	esi
	pop	ebx
	mov	esp, ebp
	pop	ebp
	ret	0
?getInstance@BitmapDatabase@@YAPBUBitmapData@Bitmap@touchgfx@@XZ ENDP ; BitmapDatabase::getInstance
_TEXT	ENDS
END
