; Listing generated by Microsoft (R) Optimizing Compiler Version 19.00.24215.1 

	TITLE	D:\TouchGFX\4.8.0\app\template\PowerSupplySystem\generated\images\src\Blue_Icons_Power_48.cpp
	.686P
	.XMM
	include listing.inc
	.model	flat

INCLUDELIB MSVCRTD
INCLUDELIB OLDNAMES

PUBLIC	?_Blue_Icons_Power_48@@3QBEB			; _Blue_Icons_Power_48
CONST	SEGMENT
?_Blue_Icons_Power_48@@3QBEB DB 00H			; _Blue_Icons_Power_48
	DB	00H
	DB	00H
	DB	00H
	DB	00H
	DB	00H
	DB	00H
	DB	00H
	DB	00H
	DB	00H
	DB	00H
	DB	00H
	DB	00H
	DB	00H
	DB	00H
	DB	00H
	DB	00H
	DB	00H
	DB	00H
	DB	00H
	DB	00H
	DB	00H
	DB	00H
	DB	00H
	DB	00H
	DB	00H
	DB	00H
	DB	00H
	DB	00H
	DB	00H
	DB	00H
	DB	00H
	DB	00H
	DB	00H
	DB	00H
	DB	00H
	DB	00H
	DB	00H
	DB	00H
	DB	00H
	DB	00H
	DB	00H
	DB	00H
	DB	00H
	DB	00H
	DB	00H
	DB	00H
	DB	00H
	DB	00H
	DB	00H
	DB	00H
	DB	00H
	DB	00H
	DB	00H
	DB	00H
	DB	00H
	DB	00H
	DB	00H
	DB	00H
	DB	00H
	DB	00H
	DB	00H
	DB	00H
	DB	00H
	DB	048H
	DB	044H
	DB	048H
	DB	010H
	DB	048H
	DB	044H
	DB	048H
	DB	04dH
	DB	048H
	DB	048H
	DB	048H
	DB	08eH
	DB	048H
	DB	044H
	DB	048H
	DB	0baH
	DB	048H
	DB	044H
	DB	048H
	DB	0d7H
	DB	048H
	DB	048H
	DB	048H
	DB	0efH
	DB	048H
	DB	044H
	DB	048H
	DB	0f7H
	DB	048H
	DB	044H
	DB	048H
	DB	0f7H
	DB	048H
	DB	048H
	DB	048H
	DB	0efH
	DB	048H
	DB	044H
	DB	048H
	DB	0d7H
	DB	048H
	DB	044H
	DB	048H
	DB	0baH
	DB	048H
	DB	048H
	DB	048H
	DB	08aH
	DB	048H
	DB	044H
	DB	048H
	DB	04dH
	DB	048H
	DB	044H
	DB	048H
	DB	010H
	DB	00H
	DB	00H
	DB	00H
	DB	00H
	DB	00H
	DB	00H
	DB	00H
	DB	00H
	DB	00H
	DB	00H
	DB	00H
	DB	00H
	DB	00H
	DB	00H
	DB	00H
	DB	00H
	DB	00H
	DB	00H
	DB	00H
	DB	00H
	DB	00H
	DB	00H
	DB	00H
	DB	00H
	DB	00H
	DB	00H
	DB	00H
	DB	00H
	DB	00H
	DB	00H
	DB	00H
	DB	00H
	DB	00H
	DB	00H
	DB	00H
	DB	00H
	DB	00H
	DB	00H
	DB	00H
	DB	00H
	DB	00H
	DB	00H
	DB	00H
	DB	00H
	DB	00H
	DB	00H
	DB	00H
	DB	00H
	DB	00H
	DB	00H
	DB	00H
	DB	00H
	DB	00H
	DB	00H
	DB	00H
	DB	00H
	DB	00H
	DB	00H
	DB	00H
	DB	00H
	DB	00H
	DB	00H
	DB	00H
	DB	00H
	DB	00H
	DB	00H
	DB	00H
	DB	00H
	DB	00H
	DB	00H
	DB	00H
	DB	00H
	DB	00H
	DB	00H
	DB	00H
	DB	00H
	DB	00H
	DB	00H
	DB	00H
	DB	00H
	DB	00H
	DB	00H
	DB	00H
	DB	00H
	DB	00H
	DB	00H
	DB	00H
	DB	00H
	DB	00H
	DB	00H
	DB	00H
	DB	00H
	DB	00H
	DB	00H
	DB	00H
	DB	00H
	DB	00H
	DB	00H
	DB	00H
	DB	00H
	DB	00H
	DB	00H
	DB	00H
	DB	00H
	DB	00H
	DB	00H
	DB	00H
	DB	00H
	DB	00H
	DB	00H
	DB	00H
	DB	00H
	DB	00H
	DB	00H
	DB	00H
	DB	00H
	DB	048H
	DB	044H
	DB	048H
	DB	08H
	DB	048H
	DB	044H
	DB	048H
	DB	059H
	DB	048H
	DB	048H
	DB	048H
	DB	0baH
	DB	048H
	DB	048H
	DB	048H
	DB	0fbH
	DB	040H
	DB	044H
	DB	040H
	DB	0ffH
	DB	048H
	DB	048H
	DB	048H
	DB	0ffH
	DB	048H
	DB	044H
	DB	048H
	DB	0ffH
	DB	040H
	DB	048H
	DB	040H
	DB	0ffH
	DB	048H
	DB	048H
	DB	048H
	DB	0ffH
	DB	048H
	DB	044H
	DB	048H
	DB	0ffH
	DB	040H
	DB	048H
	DB	040H
	DB	0ffH
	DB	048H
	DB	044H
	DB	048H
	DB	0ffH
	DB	048H
	DB	048H
	DB	048H
	DB	0ffH
	DB	040H
	DB	044H
	DB	040H
	DB	0ffH
	DB	048H
	DB	048H
	DB	048H
	DB	0ffH
	DB	048H
	DB	048H
	DB	048H
	DB	0ffH
	DB	040H
	DB	044H
	DB	040H
	DB	0fbH
	DB	048H
	DB	048H
	DB	048H
	DB	0baH
	DB	048H
	DB	044H
	DB	048H
	DB	059H
	DB	048H
	DB	044H
	DB	048H
	DB	08H
	DB	00H
	DB	00H
	DB	00H
	DB	00H
	DB	00H
	DB	00H
	DB	00H
	DB	00H
	DB	00H
	DB	00H
	DB	00H
	DB	00H
	DB	00H
	DB	00H
	DB	00H
	DB	00H
	DB	00H
	DB	00H
	DB	00H
	DB	00H
	DB	00H
	DB	00H
	DB	00H
	DB	00H
	DB	00H
	DB	00H
	DB	00H
	DB	00H
	DB	00H
	DB	00H
	DB	00H
	DB	00H
	DB	00H
	DB	00H
	DB	00H
	DB	00H
	DB	00H
	DB	00H
	DB	00H
	DB	00H
	DB	00H
	DB	00H
	DB	00H
	DB	00H
	DB	00H
	DB	00H
	DB	00H
	DB	00H
	DB	00H
	DB	00H
	DB	00H
	DB	00H
	DB	00H
	DB	00H
	DB	00H
	DB	00H
	DB	00H
	DB	00H
	DB	00H
	DB	00H
	DB	00H
	DB	00H
	DB	00H
	DB	00H
	DB	00H
	DB	00H
	DB	00H
	DB	00H
	DB	00H
	DB	00H
	DB	00H
	DB	00H
	DB	00H
	DB	00H
	DB	00H
	DB	00H
	DB	00H
	DB	00H
	DB	00H
	DB	00H
	DB	00H
	DB	00H
	DB	00H
	DB	00H
	DB	00H
	DB	00H
	DB	00H
	DB	00H
	DB	00H
	DB	00H
	DB	00H
	DB	00H
	DB	00H
	DB	00H
	DB	00H
	DB	00H
	DB	048H
	DB	044H
	DB	048H
	DB	08H
	DB	048H
	DB	048H
	DB	048H
	DB	071H
	DB	048H
	DB	048H
	DB	048H
	DB	0e7H
	DB	040H
	DB	044H
	DB	040H
	DB	0ffH
	DB	048H
	DB	048H
	DB	048H
	DB	0ffH
	DB	048H
	DB	044H
	DB	048H
	DB	0ffH
	DB	040H
	DB	048H
	DB	040H
	DB	0ffH
	DB	048H
	DB	044H
	DB	048H
	DB	0ffH
	DB	048H
	DB	048H
	DB	048H
	DB	0ffH
	DB	040H
	DB	044H
	DB	040H
	DB	0ffH
	DB	048H
	DB	044H
	DB	048H
	DB	0ffH
	DB	048H
	DB	048H
	DB	048H
	DB	0ffH
	DB	040H
	DB	044H
	DB	040H
	DB	0ffH
	DB	048H
	DB	048H
	DB	048H
	DB	0ffH
	DB	048H
	DB	044H
	DB	048H
	DB	0ffH
	DB	040H
	DB	048H
	DB	040H
	DB	0ffH
	DB	048H
	DB	044H
	DB	048H
	DB	0ffH
	DB	048H
	DB	044H
	DB	048H
	DB	0ffH
	DB	040H
	DB	048H
	DB	040H
	DB	0ffH
	DB	048H
	DB	048H
	DB	048H
	DB	0ffH
	DB	048H
	DB	044H
	DB	048H
	DB	0ffH
	DB	040H
	DB	048H
	DB	040H
	DB	0e7H
	DB	048H
	DB	048H
	DB	048H
	DB	071H
	DB	048H
	DB	044H
	DB	048H
	DB	08H
	DB	00H
	DB	00H
	DB	00H
	DB	00H
	DB	00H
	DB	00H
	DB	00H
	DB	00H
	DB	00H
	DB	00H
	DB	00H
	DB	00H
	DB	00H
	DB	00H
	DB	00H
	DB	00H
	DB	00H
	DB	00H
	DB	00H
	DB	00H
	DB	00H
	DB	00H
	DB	00H
	DB	00H
	DB	00H
	DB	00H
	DB	00H
	DB	00H
	DB	00H
	DB	00H
	DB	00H
	DB	00H
	DB	00H
	DB	00H
	DB	00H
	DB	00H
	DB	00H
	DB	00H
	DB	00H
	DB	00H
	DB	00H
	DB	00H
	DB	00H
	DB	00H
	DB	00H
	DB	00H
	DB	00H
	DB	00H
	DB	00H
	DB	00H
	DB	00H
	DB	00H
	DB	00H
	DB	00H
	DB	00H
	DB	00H
	DB	00H
	DB	00H
	DB	00H
	DB	00H
	DB	00H
	DB	00H
	DB	00H
	DB	00H
	DB	00H
	DB	00H
	DB	00H
	DB	00H
	DB	00H
	DB	00H
	DB	00H
	DB	00H
	DB	00H
	DB	00H
	DB	00H
	DB	00H
	DB	00H
	DB	00H
	DB	00H
	DB	00H
	DB	00H
	DB	00H
	DB	00H
	DB	00H
	DB	048H
	DB	044H
	DB	048H
	DB	049H
	DB	048H
	DB	044H
	DB	048H
	DB	0dbH
	DB	040H
	DB	048H
	DB	040H
	DB	0ffH
	DB	048H
	DB	044H
	DB	048H
	DB	0ffH
	DB	048H
	DB	048H
	DB	048H
	DB	0ffH
	DB	040H
	DB	044H
	DB	040H
	DB	0ffH
	DB	048H
	DB	044H
	DB	048H
	DB	0ffH
	DB	048H
	DB	048H
	DB	048H
	DB	0ffH
	DB	048H
	DB	044H
	DB	048H
	DB	0ffH
	DB	048H
	DB	048H
	DB	048H
	DB	0ffH
	DB	048H
	DB	044H
	DB	048H
	DB	0ffH
	DB	048H
	DB	048H
	DB	048H
	DB	0ffH
	DB	048H
	DB	048H
	DB	048H
	DB	0ffH
	DB	048H
	DB	044H
	DB	048H
	DB	0ffH
	DB	048H
	DB	048H
	DB	048H
	DB	0ffH
	DB	048H
	DB	044H
	DB	048H
	DB	0ffH
	DB	048H
	DB	048H
	DB	048H
	DB	0ffH
	DB	048H
	DB	048H
	DB	048H
	DB	0ffH
	DB	048H
	DB	044H
	DB	048H
	DB	0ffH
	DB	048H
	DB	044H
	DB	048H
	DB	0ffH
	DB	048H
	DB	048H
	DB	048H
	DB	0ffH
	DB	048H
	DB	044H
	DB	048H
	DB	0ffH
	DB	048H
	DB	048H
	DB	048H
	DB	0ffH
	DB	048H
	DB	044H
	DB	048H
	DB	0ffH
	DB	048H
	DB	044H
	DB	048H
	DB	0dbH
	DB	048H
	DB	048H
	DB	048H
	DB	04dH
	DB	00H
	DB	00H
	DB	00H
	DB	00H
	DB	00H
	DB	00H
	DB	00H
	DB	00H
	DB	00H
	DB	00H
	DB	00H
	DB	00H
	DB	00H
	DB	00H
	DB	00H
	DB	00H
	DB	00H
	DB	00H
	DB	00H
	DB	00H
	DB	00H
	DB	00H
	DB	00H
	DB	00H
	DB	00H
	DB	00H
	DB	00H
	DB	00H
	DB	00H
	DB	00H
	DB	00H
	DB	00H
	DB	00H
	DB	00H
	DB	00H
	DB	00H
	DB	00H
	DB	00H
	DB	00H
	DB	00H
	DB	00H
	DB	00H
	DB	00H
	DB	00H
	DB	00H
	DB	00H
	DB	00H
	DB	00H
	DB	00H
	DB	00H
	DB	00H
	DB	00H
	DB	00H
	DB	00H
	DB	00H
	DB	00H
	DB	00H
	DB	00H
	DB	00H
	DB	00H
	DB	00H
	DB	00H
	DB	00H
	DB	00H
	DB	00H
	DB	00H
	DB	00H
	DB	00H
	DB	00H
	DB	00H
	DB	00H
	DB	00H
	DB	048H
	DB	044H
	DB	048H
	DB	08H
	DB	048H
	DB	048H
	DB	048H
	DB	09aH
	DB	048H
	DB	048H
	DB	048H
	DB	0ffH
	DB	040H
	DB	044H
	DB	040H
	DB	0ffH
	DB	048H
	DB	048H
	DB	048H
	DB	0ffH
	DB	048H
	DB	044H
	DB	048H
	DB	0ffH
	DB	048H
	DB	048H
	DB	048H
	DB	0ffH
	DB	048H
	DB	048H
	DB	048H
	DB	0ffH
	DB	048H
	DB	044H
	DB	048H
	DB	0ffH
	DB	040H
	DB	048H
	DB	040H
	DB	0ffH
	DB	048H
	DB	048H
	DB	048H
	DB	0ffH
	DB	040H
	DB	044H
	DB	040H
	DB	0ffH
	DB	048H
	DB	048H
	DB	048H
	DB	0ffH
	DB	040H
	DB	044H
	DB	040H
	DB	0ffH
	DB	040H
	DB	044H
	DB	040H
	DB	0ffH
	DB	048H
	DB	048H
	DB	048H
	DB	0ffH
	DB	040H
	DB	044H
	DB	040H
	DB	0ffH
	DB	048H
	DB	048H
	DB	048H
	DB	0ffH
	DB	040H
	DB	044H
	DB	040H
	DB	0ffH
	DB	048H
	DB	048H
	DB	048H
	DB	0ffH
	DB	040H
	DB	048H
	DB	040H
	DB	0ffH
	DB	048H
	DB	044H
	DB	048H
	DB	0ffH
	DB	040H
	DB	044H
	DB	040H
	DB	0ffH
	DB	048H
	DB	048H
	DB	048H
	DB	0ffH
	DB	040H
	DB	044H
	DB	040H
	DB	0ffH
	DB	048H
	DB	048H
	DB	048H
	DB	0ffH
	DB	040H
	DB	048H
	DB	040H
	DB	0ffH
	DB	048H
	DB	044H
	DB	048H
	DB	0ffH
	DB	048H
	DB	044H
	DB	048H
	DB	09aH
	DB	048H
	DB	048H
	DB	048H
	DB	08H
	DB	00H
	DB	00H
	DB	00H
	DB	00H
	DB	00H
	DB	00H
	DB	00H
	DB	00H
	DB	00H
	DB	00H
	DB	00H
	DB	00H
	DB	00H
	DB	00H
	DB	00H
	DB	00H
	DB	00H
	DB	00H
	DB	00H
	DB	00H
	DB	00H
	DB	00H
	DB	00H
	DB	00H
	DB	00H
	DB	00H
	DB	00H
	DB	00H
	DB	00H
	DB	00H
	DB	00H
	DB	00H
	DB	00H
	DB	00H
	DB	00H
	DB	00H
	DB	00H
	DB	00H
	DB	00H
	DB	00H
	DB	00H
	DB	00H
	DB	00H
	DB	00H
	DB	00H
	DB	00H
	DB	00H
	DB	00H
	DB	00H
	DB	00H
	DB	00H
	DB	00H
	DB	00H
	DB	00H
	DB	00H
	DB	00H
	DB	00H
	DB	00H
	DB	00H
	DB	00H
	DB	048H
	DB	044H
	DB	048H
	DB	018H
	DB	048H
	DB	044H
	DB	048H
	DB	0cbH
	DB	040H
	DB	048H
	DB	040H
	DB	0ffH
	DB	048H
	DB	044H
	DB	048H
	DB	0ffH
	DB	048H
	DB	048H
	DB	048H
	DB	0ffH
	DB	048H
	DB	044H
	DB	048H
	DB	0ffH
	DB	040H
	DB	044H
	DB	040H
	DB	0ffH
	DB	048H
	DB	048H
	DB	048H
	DB	0ffH
	DB	048H
	DB	044H
	DB	048H
	DB	0ffH
	DB	040H
	DB	044H
	DB	040H
	DB	0ffH
	DB	048H
	DB	048H
	DB	048H
	DB	0ffH
	DB	048H
	DB	044H
	DB	048H
	DB	0ffH
	DB	048H
	DB	044H
	DB	048H
	DB	0ffH
	DB	048H
	DB	048H
	DB	048H
	DB	0ffH
	DB	048H
	DB	048H
	DB	048H
	DB	0ffH
	DB	048H
	DB	044H
	DB	048H
	DB	0ffH
	DB	048H
	DB	048H
	DB	048H
	DB	0ffH
	DB	048H
	DB	044H
	DB	048H
	DB	0ffH
	DB	040H
	DB	044H
	DB	040H
	DB	0ffH
	DB	048H
	DB	048H
	DB	048H
	DB	0ffH
	DB	048H
	DB	044H
	DB	048H
	DB	0ffH
	DB	048H
	DB	048H
	DB	048H
	DB	0ffH
	DB	040H
	DB	048H
	DB	040H
	DB	0ffH
	DB	048H
	DB	044H
	DB	048H
	DB	0ffH
	DB	048H
	DB	048H
	DB	048H
	DB	0ffH
	DB	048H
	DB	044H
	DB	048H
	DB	0ffH
	DB	040H
	DB	048H
	DB	040H
	DB	0ffH
	DB	048H
	DB	048H
	DB	048H
	DB	0ffH
	DB	048H
	DB	044H
	DB	048H
	DB	0ffH
	DB	040H
	DB	044H
	DB	040H
	DB	0ffH
	DB	048H
	DB	048H
	DB	048H
	DB	0cbH
	DB	048H
	DB	044H
	DB	048H
	DB	018H
	DB	00H
	DB	00H
	DB	00H
	DB	00H
	DB	00H
	DB	00H
	DB	00H
	DB	00H
	DB	00H
	DB	00H
	DB	00H
	DB	00H
	DB	00H
	DB	00H
	DB	00H
	DB	00H
	DB	00H
	DB	00H
	DB	00H
	DB	00H
	DB	00H
	DB	00H
	DB	00H
	DB	00H
	DB	00H
	DB	00H
	DB	00H
	DB	00H
	DB	00H
	DB	00H
	DB	00H
	DB	00H
	DB	00H
	DB	00H
	DB	00H
	DB	00H
	DB	00H
	DB	00H
	DB	00H
	DB	00H
	DB	00H
	DB	00H
	DB	00H
	DB	00H
	DB	00H
	DB	00H
	DB	00H
	DB	00H
	DB	00H
	DB	00H
	DB	00H
	DB	00H
	DB	048H
	DB	044H
	DB	048H
	DB	020H
	DB	048H
	DB	048H
	DB	048H
	DB	0dfH
	DB	040H
	DB	048H
	DB	040H
	DB	0ffH
	DB	048H
	DB	044H
	DB	048H
	DB	0ffH
	DB	048H
	DB	048H
	DB	048H
	DB	0ffH
	DB	048H
	DB	044H
	DB	048H
	DB	0ffH
	DB	040H
	DB	048H
	DB	040H
	DB	0ffH
	DB	048H
	DB	048H
	DB	048H
	DB	0ffH
	DB	048H
	DB	044H
	DB	048H
	DB	0ffH
	DB	040H
	DB	048H
	DB	040H
	DB	0ffH
	DB	048H
	DB	048H
	DB	048H
	DB	0ffH
	DB	048H
	DB	044H
	DB	048H
	DB	0ffH
	DB	048H
	DB	048H
	DB	048H
	DB	0ffH
	DB	040H
	DB	044H
	DB	040H
	DB	0ffH
	DB	048H
	DB	048H
	DB	048H
	DB	0ffH
	DB	048H
	DB	044H
	DB	048H
	DB	0ffH
	DB	048H
	DB	048H
	DB	048H
	DB	0ffH
	DB	048H
	DB	048H
	DB	048H
	DB	0ffH
	DB	048H
	DB	044H
	DB	048H
	DB	0ffH
	DB	048H
	DB	048H
	DB	048H
	DB	0ffH
	DB	048H
	DB	044H
	DB	048H
	DB	0ffH
	DB	048H
	DB	044H
	DB	048H
	DB	0ffH
	DB	048H
	DB	044H
	DB	048H
	DB	0ffH
	DB	048H
	DB	048H
	DB	048H
	DB	0ffH
	DB	048H
	DB	048H
	DB	048H
	DB	0ffH
	DB	048H
	DB	044H
	DB	048H
	DB	0ffH
	DB	048H
	DB	044H
	DB	048H
	DB	0ffH
	DB	048H
	DB	044H
	DB	048H
	DB	0ffH
	DB	048H
	DB	048H
	DB	048H
	DB	0ffH
	DB	048H
	DB	048H
	DB	048H
	DB	0ffH
	DB	040H
	DB	044H
	DB	040H
	DB	0ffH
	DB	048H
	DB	048H
	DB	048H
	DB	0ffH
	DB	048H
	DB	044H
	DB	048H
	DB	0dbH
	DB	040H
	DB	044H
	DB	040H
	DB	024H
	DB	00H
	DB	00H
	DB	00H
	DB	00H
	DB	00H
	DB	00H
	DB	00H
	DB	00H
	DB	00H
	DB	00H
	DB	00H
	DB	00H
	DB	00H
	DB	00H
	DB	00H
	DB	00H
	DB	00H
	DB	00H
	DB	00H
	DB	00H
	DB	00H
	DB	00H
	DB	00H
	DB	00H
	DB	00H
	DB	00H
	DB	00H
	DB	00H
	DB	00H
	DB	00H
	DB	00H
	DB	00H
	DB	00H
	DB	00H
	DB	00H
	DB	00H
	DB	00H
	DB	00H
	DB	00H
	DB	00H
	DB	00H
	DB	00H
	DB	00H
	DB	00H
	DB	048H
	DB	044H
	DB	048H
	DB	01cH
	DB	048H
	DB	048H
	DB	048H
	DB	0dfH
	DB	040H
	DB	048H
	DB	040H
	DB	0ffH
	DB	048H
	DB	044H
	DB	048H
	DB	0ffH
	DB	048H
	DB	044H
	DB	048H
	DB	0ffH
	DB	048H
	DB	048H
	DB	048H
	DB	0ffH
	DB	040H
	DB	044H
	DB	040H
	DB	0ffH
	DB	048H
	DB	048H
	DB	048H
	DB	0ffH
	DB	048H
	DB	044H
	DB	048H
	DB	0ffH
	DB	048H
	DB	044H
	DB	048H
	DB	0ffH
	DB	048H
	DB	048H
	DB	048H
	DB	0ffH
	DB	048H
	DB	044H
	DB	048H
	DB	0ffH
	DB	048H
	DB	048H
	DB	048H
	DB	0ffH
	DB	040H
	DB	044H
	DB	040H
	DB	0ffH
	DB	048H
	DB	048H
	DB	048H
	DB	0ffH
	DB	040H
	DB	044H
	DB	040H
	DB	0ffH
	DB	048H
	DB	044H
	DB	048H
	DB	0ffH
	DB	040H
	DB	048H
	DB	040H
	DB	0ffH
	DB	040H
	DB	044H
	DB	040H
	DB	0ffH
	DB	048H
	DB	048H
	DB	048H
	DB	0ffH
	DB	040H
	DB	048H
	DB	040H
	DB	0ffH
	DB	048H
	DB	048H
	DB	048H
	DB	0ffH
	DB	040H
	DB	044H
	DB	040H
	DB	0ffH
	DB	040H
	DB	048H
	DB	040H
	DB	0ffH
	DB	048H
	DB	044H
	DB	048H
	DB	0ffH
	DB	040H
	DB	044H
	DB	040H
	DB	0ffH
	DB	048H
	DB	048H
	DB	048H
	DB	0ffH
	DB	040H
	DB	048H
	DB	040H
	DB	0ffH
	DB	048H
	DB	044H
	DB	048H
	DB	0ffH
	DB	048H
	DB	044H
	DB	048H
	DB	0ffH
	DB	040H
	DB	048H
	DB	040H
	DB	0ffH
	DB	048H
	DB	048H
	DB	048H
	DB	0ffH
	DB	048H
	DB	044H
	DB	048H
	DB	0ffH
	DB	048H
	DB	048H
	DB	048H
	DB	0ffH
	DB	048H
	DB	048H
	DB	048H
	DB	0dfH
	DB	048H
	DB	044H
	DB	048H
	DB	01cH
	DB	00H
	DB	00H
	DB	00H
	DB	00H
	DB	00H
	DB	00H
	DB	00H
	DB	00H
	DB	00H
	DB	00H
	DB	00H
	DB	00H
	DB	00H
	DB	00H
	DB	00H
	DB	00H
	DB	00H
	DB	00H
	DB	00H
	DB	00H
	DB	00H
	DB	00H
	DB	00H
	DB	00H
	DB	00H
	DB	00H
	DB	00H
	DB	00H
	DB	00H
	DB	00H
	DB	00H
	DB	00H
	DB	00H
	DB	00H
	DB	00H
	DB	00H
	DB	048H
	DB	044H
	DB	048H
	DB	08H
	DB	048H
	DB	048H
	DB	048H
	DB	0cfH
	DB	048H
	DB	044H
	DB	048H
	DB	0ffH
	DB	048H
	DB	044H
	DB	048H
	DB	0ffH
	DB	048H
	DB	048H
	DB	048H
	DB	0ffH
	DB	040H
	DB	048H
	DB	040H
	DB	0ffH
	DB	048H
	DB	044H
	DB	048H
	DB	0ffH
	DB	048H
	DB	048H
	DB	048H
	DB	0ffH
	DB	048H
	DB	044H
	DB	048H
	DB	0ffH
	DB	040H
	DB	048H
	DB	040H
	DB	0ffH
	DB	048H
	DB	048H
	DB	048H
	DB	0ffH
	DB	048H
	DB	044H
	DB	048H
	DB	0ffH
	DB	040H
	DB	044H
	DB	040H
	DB	0ffH
	DB	048H
	DB	048H
	DB	048H
	DB	0ffH
	DB	048H
	DB	048H
	DB	048H
	DB	0ffH
	DB	048H
	DB	044H
	DB	048H
	DB	0ffH
	DB	048H
	DB	048H
	DB	048H
	DB	0ffH
	DB	048H
	DB	048H
	DB	048H
	DB	0c3H
	DB	048H
	DB	044H
	DB	048H
	DB	034H
	DB	048H
	DB	044H
	DB	048H
	DB	03cH
	DB	048H
	DB	044H
	DB	048H
	DB	0c3H
	DB	048H
	DB	048H
	DB	048H
	DB	0ffH
	DB	048H
	DB	044H
	DB	048H
	DB	0ffH
	DB	048H
	DB	048H
	DB	048H
	DB	0ffH
	DB	048H
	DB	048H
	DB	048H
	DB	0ffH
	DB	048H
	DB	044H
	DB	048H
	DB	0ffH
	DB	048H
	DB	048H
	DB	048H
	DB	0ffH
	DB	040H
	DB	048H
	DB	040H
	DB	0ffH
	DB	048H
	DB	044H
	DB	048H
	DB	0ffH
	DB	048H
	DB	048H
	DB	048H
	DB	0ffH
	DB	040H
	DB	044H
	DB	040H
	DB	0ffH
	DB	048H
	DB	044H
	DB	048H
	DB	0ffH
	DB	048H
	DB	048H
	DB	048H
	DB	0ffH
	DB	040H
	DB	044H
	DB	040H
	DB	0ffH
	DB	048H
	DB	048H
	DB	048H
	DB	0ffH
	DB	048H
	DB	048H
	DB	048H
	DB	0ffH
	DB	040H
	DB	044H
	DB	040H
	DB	0cfH
	DB	048H
	DB	048H
	DB	048H
	DB	08H
	DB	00H
	DB	00H
	DB	00H
	DB	00H
	DB	00H
	DB	00H
	DB	00H
	DB	00H
	DB	00H
	DB	00H
	DB	00H
	DB	00H
	DB	00H
	DB	00H
	DB	00H
	DB	00H
	DB	00H
	DB	00H
	DB	00H
	DB	00H
	DB	00H
	DB	00H
	DB	00H
	DB	00H
	DB	00H
	DB	00H
	DB	00H
	DB	00H
	DB	00H
	DB	00H
	DB	00H
	DB	00H
	DB	048H
	DB	048H
	DB	048H
	DB	09eH
	DB	040H
	DB	044H
	DB	040H
	DB	0ffH
	DB	040H
	DB	048H
	DB	040H
	DB	0ffH
	DB	048H
	DB	044H
	DB	048H
	DB	0ffH
	DB	048H
	DB	048H
	DB	048H
	DB	0ffH
	DB	048H
	DB	044H
	DB	048H
	DB	0ffH
	DB	040H
	DB	048H
	DB	040H
	DB	0ffH
	DB	048H
	DB	044H
	DB	048H
	DB	0ffH
	DB	048H
	DB	044H
	DB	048H
	DB	0ffH
	DB	040H
	DB	048H
	DB	040H
	DB	0ffH
	DB	048H
	DB	048H
	DB	048H
	DB	0ffH
	DB	048H
	DB	044H
	DB	048H
	DB	0ffH
	DB	040H
	DB	048H
	DB	040H
	DB	0ffH
	DB	048H
	DB	044H
	DB	048H
	DB	0ffH
	DB	048H
	DB	044H
	DB	048H
	DB	0ffH
	DB	040H
	DB	048H
	DB	040H
	DB	0ffH
	DB	048H
	DB	044H
	DB	048H
	DB	0fbH
	DB	048H
	DB	048H
	DB	048H
	DB	018H
	DB	00H
	DB	00H
	DB	00H
	DB	00H
	DB	00H
	DB	00H
	DB	00H
	DB	00H
	DB	040H
	DB	048H
	DB	040H
	DB	018H
	DB	048H
	DB	044H
	DB	048H
	DB	0fbH
	DB	048H
	DB	044H
	DB	048H
	DB	0ffH
	DB	040H
	DB	048H
	DB	040H
	DB	0ffH
	DB	048H
	DB	044H
	DB	048H
	DB	0ffH
	DB	048H
	DB	044H
	DB	048H
	DB	0ffH
	DB	048H
	DB	048H
	DB	048H
	DB	0ffH
	DB	048H
	DB	044H
	DB	048H
	DB	0ffH
	DB	048H
	DB	044H
	DB	048H
	DB	0ffH
	DB	048H
	DB	048H
	DB	048H
	DB	0ffH
	DB	048H
	DB	048H
	DB	048H
	DB	0ffH
	DB	048H
	DB	044H
	DB	048H
	DB	0ffH
	DB	048H
	DB	044H
	DB	048H
	DB	0ffH
	DB	040H
	DB	048H
	DB	040H
	DB	0ffH
	DB	048H
	DB	044H
	DB	048H
	DB	0ffH
	DB	048H
	DB	044H
	DB	048H
	DB	0ffH
	DB	048H
	DB	048H
	DB	048H
	DB	0ffH
	DB	048H
	DB	044H
	DB	048H
	DB	09eH
	DB	00H
	DB	00H
	DB	00H
	DB	00H
	DB	00H
	DB	00H
	DB	00H
	DB	00H
	DB	00H
	DB	00H
	DB	00H
	DB	00H
	DB	00H
	DB	00H
	DB	00H
	DB	00H
	DB	00H
	DB	00H
	DB	00H
	DB	00H
	DB	00H
	DB	00H
	DB	00H
	DB	00H
	DB	00H
	DB	00H
	DB	00H
	DB	00H
	DB	048H
	DB	044H
	DB	048H
	DB	049H
	DB	048H
	DB	048H
	DB	048H
	DB	0ffH
	DB	048H
	DB	044H
	DB	048H
	DB	0ffH
	DB	048H
	DB	048H
	DB	048H
	DB	0ffH
	DB	040H
	DB	048H
	DB	040H
	DB	0ffH
	DB	048H
	DB	044H
	DB	048H
	DB	0ffH
	DB	048H
	DB	044H
	DB	048H
	DB	0ffH
	DB	048H
	DB	048H
	DB	048H
	DB	0ffH
	DB	048H
	DB	048H
	DB	048H
	DB	0ffH
	DB	048H
	DB	044H
	DB	048H
	DB	0ffH
	DB	048H
	DB	044H
	DB	048H
	DB	0ffH
	DB	048H
	DB	048H
	DB	048H
	DB	0ffH
	DB	048H
	DB	044H
	DB	048H
	DB	0ffH
	DB	048H
	DB	048H
	DB	048H
	DB	0ffH
	DB	048H
	DB	048H
	DB	048H
	DB	0ffH
	DB	040H
	DB	044H
	DB	040H
	DB	0ffH
	DB	048H
	DB	044H
	DB	048H
	DB	0ffH
	DB	048H
	DB	048H
	DB	048H
	DB	0efH
	DB	00H
	DB	00H
	DB	00H
	DB	00H
	DB	00H
	DB	00H
	DB	00H
	DB	00H
	DB	00H
	DB	00H
	DB	00H
	DB	00H
	DB	00H
	DB	00H
	DB	00H
	DB	00H
	DB	048H
	DB	048H
	DB	048H
	DB	0efH
	DB	040H
	DB	044H
	DB	040H
	DB	0ffH
	DB	048H
	DB	048H
	DB	048H
	DB	0ffH
	DB	048H
	DB	044H
	DB	048H
	DB	0ffH
	DB	040H
	DB	048H
	DB	040H
	DB	0ffH
	DB	048H
	DB	048H
	DB	048H
	DB	0ffH
	DB	048H
	DB	044H
	DB	048H
	DB	0ffH
	DB	040H
	DB	048H
	DB	040H
	DB	0ffH
	DB	048H
	DB	048H
	DB	048H
	DB	0ffH
	DB	040H
	DB	044H
	DB	040H
	DB	0ffH
	DB	048H
	DB	048H
	DB	048H
	DB	0ffH
	DB	048H
	DB	048H
	DB	048H
	DB	0ffH
	DB	048H
	DB	044H
	DB	048H
	DB	0ffH
	DB	040H
	DB	048H
	DB	040H
	DB	0ffH
	DB	048H
	DB	044H
	DB	048H
	DB	0ffH
	DB	048H
	DB	048H
	DB	048H
	DB	0ffH
	DB	040H
	DB	044H
	DB	040H
	DB	0ffH
	DB	048H
	DB	044H
	DB	048H
	DB	04dH
	DB	00H
	DB	00H
	DB	00H
	DB	00H
	DB	00H
	DB	00H
	DB	00H
	DB	00H
	DB	00H
	DB	00H
	DB	00H
	DB	00H
	DB	00H
	DB	00H
	DB	00H
	DB	00H
	DB	00H
	DB	00H
	DB	00H
	DB	00H
	DB	048H
	DB	044H
	DB	048H
	DB	08H
	DB	040H
	DB	048H
	DB	040H
	DB	0dbH
	DB	048H
	DB	044H
	DB	048H
	DB	0ffH
	DB	048H
	DB	044H
	DB	048H
	DB	0ffH
	DB	048H
	DB	048H
	DB	048H
	DB	0ffH
	DB	048H
	DB	044H
	DB	048H
	DB	0ffH
	DB	040H
	DB	048H
	DB	040H
	DB	0ffH
	DB	048H
	DB	044H
	DB	048H
	DB	0ffH
	DB	048H
	DB	048H
	DB	048H
	DB	0ffH
	DB	040H
	DB	048H
	DB	040H
	DB	0ffH
	DB	040H
	DB	044H
	DB	040H
	DB	0ffH
	DB	048H
	DB	048H
	DB	048H
	DB	0ffH
	DB	040H
	DB	044H
	DB	040H
	DB	0ffH
	DB	048H
	DB	044H
	DB	048H
	DB	0ffH
	DB	048H
	DB	048H
	DB	048H
	DB	0ffH
	DB	040H
	DB	048H
	DB	040H
	DB	0ffH
	DB	048H
	DB	044H
	DB	048H
	DB	0ffH
	DB	048H
	DB	048H
	DB	048H
	DB	0ffH
	DB	040H
	DB	044H
	DB	040H
	DB	0efH
	DB	00H
	DB	00H
	DB	00H
	DB	00H
	DB	00H
	DB	00H
	DB	00H
	DB	00H
	DB	00H
	DB	00H
	DB	00H
	DB	00H
	DB	00H
	DB	00H
	DB	00H
	DB	00H
	DB	048H
	DB	044H
	DB	048H
	DB	0efH
	DB	048H
	DB	048H
	DB	048H
	DB	0ffH
	DB	048H
	DB	044H
	DB	048H
	DB	0ffH
	DB	048H
	DB	048H
	DB	048H
	DB	0ffH
	DB	040H
	DB	044H
	DB	040H
	DB	0ffH
	DB	048H
	DB	044H
	DB	048H
	DB	0ffH
	DB	048H
	DB	048H
	DB	048H
	DB	0ffH
	DB	040H
	DB	044H
	DB	040H
	DB	0ffH
	DB	048H
	DB	044H
	DB	048H
	DB	0ffH
	DB	048H
	DB	048H
	DB	048H
	DB	0ffH
	DB	040H
	DB	044H
	DB	040H
	DB	0ffH
	DB	048H
	DB	048H
	DB	048H
	DB	0ffH
	DB	048H
	DB	044H
	DB	048H
	DB	0ffH
	DB	048H
	DB	048H
	DB	048H
	DB	0ffH
	DB	040H
	DB	048H
	DB	040H
	DB	0ffH
	DB	048H
	DB	044H
	DB	048H
	DB	0ffH
	DB	048H
	DB	048H
	DB	048H
	DB	0ffH
	DB	048H
	DB	048H
	DB	048H
	DB	0dbH
	DB	048H
	DB	044H
	DB	048H
	DB	08H
	DB	00H
	DB	00H
	DB	00H
	DB	00H
	DB	00H
	DB	00H
	DB	00H
	DB	00H
	DB	00H
	DB	00H
	DB	00H
	DB	00H
	DB	00H
	DB	00H
	DB	00H
	DB	00H
	DB	048H
	DB	044H
	DB	048H
	DB	071H
	DB	048H
	DB	048H
	DB	048H
	DB	0ffH
	DB	040H
	DB	048H
	DB	040H
	DB	0ffH
	DB	048H
	DB	044H
	DB	048H
	DB	0ffH
	DB	048H
	DB	044H
	DB	048H
	DB	0ffH
	DB	048H
	DB	048H
	DB	048H
	DB	0ffH
	DB	040H
	DB	044H
	DB	040H
	DB	0ffH
	DB	048H
	DB	048H
	DB	048H
	DB	0ffH
	DB	048H
	DB	044H
	DB	048H
	DB	0ffH
	DB	048H
	DB	044H
	DB	048H
	DB	0ffH
	DB	048H
	DB	048H
	DB	048H
	DB	0ffH
	DB	048H
	DB	048H
	DB	048H
	DB	0ffH
	DB	040H
	DB	044H
	DB	040H
	DB	0ffH
	DB	048H
	DB	048H
	DB	048H
	DB	0ffH
	DB	048H
	DB	044H
	DB	048H
	DB	0ffH
	DB	048H
	DB	044H
	DB	048H
	DB	0ffH
	DB	048H
	DB	048H
	DB	048H
	DB	0ffH
	DB	048H
	DB	048H
	DB	048H
	DB	0ffH
	DB	048H
	DB	044H
	DB	048H
	DB	0efH
	DB	00H
	DB	00H
	DB	00H
	DB	00H
	DB	00H
	DB	00H
	DB	00H
	DB	00H
	DB	00H
	DB	00H
	DB	00H
	DB	00H
	DB	00H
	DB	00H
	DB	00H
	DB	00H
	DB	040H
	DB	048H
	DB	040H
	DB	0efH
	DB	048H
	DB	044H
	DB	048H
	DB	0ffH
	DB	048H
	DB	048H
	DB	048H
	DB	0ffH
	DB	040H
	DB	048H
	DB	040H
	DB	0ffH
	DB	048H
	DB	044H
	DB	048H
	DB	0ffH
	DB	048H
	DB	048H
	DB	048H
	DB	0ffH
	DB	048H
	DB	048H
	DB	048H
	DB	0ffH
	DB	048H
	DB	044H
	DB	048H
	DB	0ffH
	DB	048H
	DB	048H
	DB	048H
	DB	0ffH
	DB	048H
	DB	044H
	DB	048H
	DB	0ffH
	DB	048H
	DB	044H
	DB	048H
	DB	0ffH
	DB	040H
	DB	048H
	DB	040H
	DB	0ffH
	DB	048H
	DB	044H
	DB	048H
	DB	0ffH
	DB	048H
	DB	044H
	DB	048H
	DB	0ffH
	DB	048H
	DB	048H
	DB	048H
	DB	0ffH
	DB	040H
	DB	044H
	DB	040H
	DB	0ffH
	DB	048H
	DB	048H
	DB	048H
	DB	0ffH
	DB	040H
	DB	048H
	DB	040H
	DB	0ffH
	DB	048H
	DB	044H
	DB	048H
	DB	071H
	DB	00H
	DB	00H
	DB	00H
	DB	00H
	DB	00H
	DB	00H
	DB	00H
	DB	00H
	DB	00H
	DB	00H
	DB	00H
	DB	00H
	DB	048H
	DB	044H
	DB	048H
	DB	08H
	DB	048H
	DB	048H
	DB	048H
	DB	0e7H
	DB	048H
	DB	044H
	DB	048H
	DB	0ffH
	DB	048H
	DB	048H
	DB	048H
	DB	0ffH
	DB	040H
	DB	048H
	DB	040H
	DB	0ffH
	DB	048H
	DB	044H
	DB	048H
	DB	0ffH
	DB	048H
	DB	048H
	DB	048H
	DB	0ffH
	DB	048H
	DB	048H
	DB	048H
	DB	0ffH
	DB	040H
	DB	044H
	DB	040H
	DB	0ffH
	DB	048H
	DB	048H
	DB	048H
	DB	0ffH
	DB	048H
	DB	044H
	DB	048H
	DB	0ffH
	DB	048H
	DB	044H
	DB	048H
	DB	0f7H
	DB	048H
	DB	048H
	DB	048H
	DB	055H
	DB	048H
	DB	048H
	DB	048H
	DB	04H
	DB	040H
	DB	044H
	DB	040H
	DB	030H
	DB	048H
	DB	048H
	DB	048H
	DB	0cfH
	DB	040H
	DB	044H
	DB	040H
	DB	0ffH
	DB	048H
	DB	044H
	DB	048H
	DB	0ffH
	DB	040H
	DB	048H
	DB	040H
	DB	0ffH
	DB	048H
	DB	044H
	DB	048H
	DB	0efH
	DB	00H
	DB	00H
	DB	00H
	DB	00H
	DB	00H
	DB	00H
	DB	00H
	DB	00H
	DB	00H
	DB	00H
	DB	00H
	DB	00H
	DB	00H
	DB	00H
	DB	00H
	DB	00H
	DB	048H
	DB	044H
	DB	048H
	DB	0efH
	DB	048H
	DB	048H
	DB	048H
	DB	0ffH
	DB	040H
	DB	044H
	DB	040H
	DB	0ffH
	DB	048H
	DB	044H
	DB	048H
	DB	0ffH
	DB	048H
	DB	048H
	DB	048H
	DB	0cbH
	DB	040H
	DB	044H
	DB	040H
	DB	02cH
	DB	048H
	DB	044H
	DB	048H
	DB	08H
	DB	048H
	DB	048H
	DB	048H
	DB	059H
	DB	040H
	DB	048H
	DB	040H
	DB	0f7H
	DB	048H
	DB	044H
	DB	048H
	DB	0ffH
	DB	048H
	DB	048H
	DB	048H
	DB	0ffH
	DB	048H
	DB	048H
	DB	048H
	DB	0ffH
	DB	040H
	DB	044H
	DB	040H
	DB	0ffH
	DB	048H
	DB	048H
	DB	048H
	DB	0ffH
	DB	048H
	DB	044H
	DB	048H
	DB	0ffH
	DB	048H
	DB	044H
	DB	048H
	DB	0ffH
	DB	048H
	DB	048H
	DB	048H
	DB	0ffH
	DB	048H
	DB	044H
	DB	048H
	DB	0ffH
	DB	040H
	DB	048H
	DB	040H
	DB	0e7H
	DB	048H
	DB	048H
	DB	048H
	DB	08H
	DB	00H
	DB	00H
	DB	00H
	DB	00H
	DB	00H
	DB	00H
	DB	00H
	DB	00H
	DB	048H
	DB	048H
	DB	048H
	DB	05dH
	DB	040H
	DB	044H
	DB	040H
	DB	0ffH
	DB	048H
	DB	044H
	DB	048H
	DB	0ffH
	DB	048H
	DB	048H
	DB	048H
	DB	0ffH
	DB	040H
	DB	044H
	DB	040H
	DB	0ffH
	DB	048H
	DB	044H
	DB	048H
	DB	0ffH
	DB	048H
	DB	048H
	DB	048H
	DB	0ffH
	DB	040H
	DB	044H
	DB	040H
	DB	0ffH
	DB	048H
	DB	044H
	DB	048H
	DB	0ffH
	DB	048H
	DB	048H
	DB	048H
	DB	0ffH
	DB	040H
	DB	048H
	DB	040H
	DB	0fbH
	DB	040H
	DB	044H
	DB	040H
	DB	045H
	DB	00H
	DB	00H
	DB	00H
	DB	00H
	DB	00H
	DB	00H
	DB	00H
	DB	00H
	DB	00H
	DB	00H
	DB	00H
	DB	00H
	DB	048H
	DB	048H
	DB	048H
	DB	038H
	DB	048H
	DB	048H
	DB	048H
	DB	0ffH
	DB	048H
	DB	044H
	DB	048H
	DB	0ffH
	DB	048H
	DB	048H
	DB	048H
	DB	0ffH
	DB	040H
	DB	048H
	DB	040H
	DB	0efH
	DB	00H
	DB	00H
	DB	00H
	DB	00H
	DB	00H
	DB	00H
	DB	00H
	DB	00H
	DB	00H
	DB	00H
	DB	00H
	DB	00H
	DB	00H
	DB	00H
	DB	00H
	DB	00H
	DB	048H
	DB	048H
	DB	048H
	DB	0efH
	DB	048H
	DB	044H
	DB	048H
	DB	0ffH
	DB	048H
	DB	048H
	DB	048H
	DB	0ffH
	DB	048H
	DB	044H
	DB	048H
	DB	0ffH
	DB	048H
	DB	048H
	DB	048H
	DB	03cH
	DB	00H
	DB	00H
	DB	00H
	DB	00H
	DB	00H
	DB	00H
	DB	00H
	DB	00H
	DB	00H
	DB	00H
	DB	00H
	DB	00H
	DB	040H
	DB	044H
	DB	040H
	DB	049H
	DB	048H
	DB	048H
	DB	048H
	DB	0fbH
	DB	048H
	DB	044H
	DB	048H
	DB	0ffH
	DB	040H
	DB	044H
	DB	040H
	DB	0ffH
	DB	048H
	DB	048H
	DB	048H
	DB	0ffH
	DB	048H
	DB	048H
	DB	048H
	DB	0ffH
	DB	040H
	DB	044H
	DB	040H
	DB	0ffH
	DB	048H
	DB	048H
	DB	048H
	DB	0ffH
	DB	048H
	DB	044H
	DB	048H
	DB	0ffH
	DB	048H
	DB	044H
	DB	048H
	DB	0ffH
	DB	048H
	DB	048H
	DB	048H
	DB	0ffH
	DB	048H
	DB	044H
	DB	048H
	DB	05dH
	DB	00H
	DB	00H
	DB	00H
	DB	00H
	DB	00H
	DB	00H
	DB	00H
	DB	00H
	DB	048H
	DB	044H
	DB	048H
	DB	0b6H
	DB	040H
	DB	048H
	DB	040H
	DB	0ffH
	DB	048H
	DB	048H
	DB	048H
	DB	0ffH
	DB	048H
	DB	044H
	DB	048H
	DB	0ffH
	DB	048H
	DB	048H
	DB	048H
	DB	0ffH
	DB	048H
	DB	048H
	DB	048H
	DB	0ffH
	DB	040H
	DB	044H
	DB	040H
	DB	0ffH
	DB	048H
	DB	048H
	DB	048H
	DB	0ffH
	DB	048H
	DB	044H
	DB	048H
	DB	0ffH
	DB	048H
	DB	048H
	DB	048H
	DB	0ffH
	DB	048H
	DB	044H
	DB	048H
	DB	07dH
	DB	00H
	DB	00H
	DB	00H
	DB	00H
	DB	00H
	DB	00H
	DB	00H
	DB	00H
	DB	00H
	DB	00H
	DB	00H
	DB	00H
	DB	00H
	DB	00H
	DB	00H
	DB	00H
	DB	048H
	DB	044H
	DB	048H
	DB	02cH
	DB	040H
	DB	044H
	DB	040H
	DB	0ffH
	DB	048H
	DB	048H
	DB	048H
	DB	0ffH
	DB	048H
	DB	044H
	DB	048H
	DB	0ffH
	DB	048H
	DB	044H
	DB	048H
	DB	0efH
	DB	00H
	DB	00H
	DB	00H
	DB	00H
	DB	00H
	DB	00H
	DB	00H
	DB	00H
	DB	00H
	DB	00H
	DB	00H
	DB	00H
	DB	00H
	DB	00H
	DB	00H
	DB	00H
	DB	040H
	DB	044H
	DB	040H
	DB	0efH
	DB	048H
	DB	048H
	DB	048H
	DB	0ffH
	DB	040H
	DB	044H
	DB	040H
	DB	0ffH
	DB	048H
	DB	048H
	DB	048H
	DB	0ffH
	DB	048H
	DB	044H
	DB	048H
	DB	024H
	DB	00H
	DB	00H
	DB	00H
	DB	00H
	DB	00H
	DB	00H
	DB	00H
	DB	00H
	DB	00H
	DB	00H
	DB	00H
	DB	00H
	DB	00H
	DB	00H
	DB	00H
	DB	00H
	DB	048H
	DB	048H
	DB	048H
	DB	07dH
	DB	048H
	DB	044H
	DB	048H
	DB	0ffH
	DB	048H
	DB	048H
	DB	048H
	DB	0ffH
	DB	048H
	DB	044H
	DB	048H
	DB	0ffH
	DB	048H
	DB	044H
	DB	048H
	DB	0ffH
	DB	040H
	DB	048H
	DB	040H
	DB	0ffH
	DB	048H
	DB	048H
	DB	048H
	DB	0ffH
	DB	040H
	DB	044H
	DB	040H
	DB	0ffH
	DB	040H
	DB	048H
	DB	040H
	DB	0ffH
	DB	048H
	DB	044H
	DB	048H
	DB	0ffH
	DB	048H
	DB	044H
	DB	048H
	DB	0baH
	DB	00H
	DB	00H
	DB	00H
	DB	00H
	DB	048H
	DB	044H
	DB	048H
	DB	010H
	DB	048H
	DB	048H
	DB	048H
	DB	0fbH
	DB	048H
	DB	044H
	DB	048H
	DB	0ffH
	DB	040H
	DB	048H
	DB	040H
	DB	0ffH
	DB	048H
	DB	044H
	DB	048H
	DB	0ffH
	DB	048H
	DB	044H
	DB	048H
	DB	0ffH
	DB	040H
	DB	048H
	DB	040H
	DB	0ffH
	DB	048H
	DB	044H
	DB	048H
	DB	0ffH
	DB	048H
	DB	048H
	DB	048H
	DB	0ffH
	DB	048H
	DB	048H
	DB	048H
	DB	0ffH
	DB	040H
	DB	044H
	DB	040H
	DB	0d3H
	DB	048H
	DB	048H
	DB	048H
	DB	04H
	DB	00H
	DB	00H
	DB	00H
	DB	00H
	DB	00H
	DB	00H
	DB	00H
	DB	00H
	DB	00H
	DB	00H
	DB	00H
	DB	00H
	DB	00H
	DB	00H
	DB	00H
	DB	00H
	DB	048H
	DB	044H
	DB	048H
	DB	092H
	DB	048H
	DB	048H
	DB	048H
	DB	0ffH
	DB	040H
	DB	048H
	DB	040H
	DB	0ffH
	DB	048H
	DB	044H
	DB	048H
	DB	0ffH
	DB	048H
	DB	048H
	DB	048H
	DB	0efH
	DB	00H
	DB	00H
	DB	00H
	DB	00H
	DB	00H
	DB	00H
	DB	00H
	DB	00H
	DB	00H
	DB	00H
	DB	00H
	DB	00H
	DB	00H
	DB	00H
	DB	00H
	DB	00H
	DB	048H
	DB	048H
	DB	048H
	DB	0f3H
	DB	048H
	DB	044H
	DB	048H
	DB	0ffH
	DB	040H
	DB	048H
	DB	040H
	DB	0ffH
	DB	048H
	DB	044H
	DB	048H
	DB	0ffH
	DB	040H
	DB	048H
	DB	040H
	DB	08eH
	DB	00H
	DB	00H
	DB	00H
	DB	00H
	DB	00H
	DB	00H
	DB	00H
	DB	00H
	DB	00H
	DB	00H
	DB	00H
	DB	00H
	DB	00H
	DB	00H
	DB	00H
	DB	00H
	DB	048H
	DB	044H
	DB	048H
	DB	04H
	DB	040H
	DB	048H
	DB	040H
	DB	0d3H
	DB	048H
	DB	048H
	DB	048H
	DB	0ffH
	DB	048H
	DB	044H
	DB	048H
	DB	0ffH
	DB	040H
	DB	048H
	DB	040H
	DB	0ffH
	DB	048H
	DB	044H
	DB	048H
	DB	0ffH
	DB	048H
	DB	044H
	DB	048H
	DB	0ffH
	DB	048H
	DB	048H
	DB	048H
	DB	0ffH
	DB	048H
	DB	048H
	DB	048H
	DB	0ffH
	DB	040H
	DB	048H
	DB	040H
	DB	0ffH
	DB	048H
	DB	044H
	DB	048H
	DB	0fbH
	DB	048H
	DB	048H
	DB	048H
	DB	010H
	DB	048H
	DB	044H
	DB	048H
	DB	04dH
	DB	048H
	DB	048H
	DB	048H
	DB	0ffH
	DB	048H
	DB	044H
	DB	048H
	DB	0ffH
	DB	048H
	DB	048H
	DB	048H
	DB	0ffH
	DB	040H
	DB	048H
	DB	040H
	DB	0ffH
	DB	048H
	DB	044H
	DB	048H
	DB	0ffH
	DB	048H
	DB	048H
	DB	048H
	DB	0ffH
	DB	048H
	DB	044H
	DB	048H
	DB	0ffH
	DB	048H
	DB	044H
	DB	048H
	DB	0ffH
	DB	040H
	DB	048H
	DB	040H
	DB	0ffH
	DB	048H
	DB	044H
	DB	048H
	DB	04dH
	DB	00H
	DB	00H
	DB	00H
	DB	00H
	DB	00H
	DB	00H
	DB	00H
	DB	00H
	DB	00H
	DB	00H
	DB	00H
	DB	00H
	DB	00H
	DB	00H
	DB	00H
	DB	00H
	DB	048H
	DB	048H
	DB	048H
	DB	061H
	DB	048H
	DB	044H
	DB	048H
	DB	0ffH
	DB	048H
	DB	048H
	DB	048H
	DB	0ffH
	DB	040H
	DB	044H
	DB	040H
	DB	0ffH
	DB	048H
	DB	048H
	DB	048H
	DB	0ffH
	DB	048H
	DB	044H
	DB	048H
	DB	0f3H
	DB	00H
	DB	00H
	DB	00H
	DB	00H
	DB	00H
	DB	00H
	DB	00H
	DB	00H
	DB	00H
	DB	00H
	DB	00H
	DB	00H
	DB	00H
	DB	00H
	DB	00H
	DB	00H
	DB	048H
	DB	044H
	DB	048H
	DB	0efH
	DB	048H
	DB	048H
	DB	048H
	DB	0ffH
	DB	048H
	DB	044H
	DB	048H
	DB	0ffH
	DB	048H
	DB	048H
	DB	048H
	DB	0ffH
	DB	048H
	DB	044H
	DB	048H
	DB	0ffH
	DB	048H
	DB	048H
	DB	048H
	DB	05dH
	DB	00H
	DB	00H
	DB	00H
	DB	00H
	DB	00H
	DB	00H
	DB	00H
	DB	00H
	DB	00H
	DB	00H
	DB	00H
	DB	00H
	DB	00H
	DB	00H
	DB	00H
	DB	00H
	DB	040H
	DB	044H
	DB	040H
	DB	051H
	DB	048H
	DB	048H
	DB	048H
	DB	0ffH
	DB	048H
	DB	048H
	DB	048H
	DB	0ffH
	DB	048H
	DB	044H
	DB	048H
	DB	0ffH
	DB	048H
	DB	048H
	DB	048H
	DB	0ffH
	DB	048H
	DB	044H
	DB	048H
	DB	0ffH
	DB	048H
	DB	044H
	DB	048H
	DB	0ffH
	DB	048H
	DB	048H
	DB	048H
	DB	0ffH
	DB	048H
	DB	044H
	DB	048H
	DB	0ffH
	DB	040H
	DB	048H
	DB	040H
	DB	0ffH
	DB	048H
	DB	044H
	DB	048H
	DB	04dH
	DB	048H
	DB	048H
	DB	048H
	DB	08aH
	DB	040H
	DB	044H
	DB	040H
	DB	0ffH
	DB	048H
	DB	044H
	DB	048H
	DB	0ffH
	DB	048H
	DB	048H
	DB	048H
	DB	0ffH
	DB	048H
	DB	044H
	DB	048H
	DB	0ffH
	DB	048H
	DB	048H
	DB	048H
	DB	0ffH
	DB	040H
	DB	048H
	DB	040H
	DB	0ffH
	DB	048H
	DB	044H
	DB	048H
	DB	0ffH
	DB	048H
	DB	048H
	DB	048H
	DB	0ffH
	DB	048H
	DB	044H
	DB	048H
	DB	0dfH
	DB	048H
	DB	048H
	DB	048H
	DB	00H
	DB	00H
	DB	00H
	DB	00H
	DB	00H
	DB	00H
	DB	00H
	DB	00H
	DB	00H
	DB	00H
	DB	00H
	DB	00H
	DB	00H
	DB	048H
	DB	044H
	DB	048H
	DB	028H
	DB	040H
	DB	048H
	DB	040H
	DB	0f7H
	DB	048H
	DB	048H
	DB	048H
	DB	0ffH
	DB	048H
	DB	044H
	DB	048H
	DB	0ffH
	DB	048H
	DB	044H
	DB	048H
	DB	0ffH
	DB	040H
	DB	048H
	DB	040H
	DB	0ffH
	DB	048H
	DB	048H
	DB	048H
	DB	0efH
	DB	00H
	DB	00H
	DB	00H
	DB	00H
	DB	00H
	DB	00H
	DB	00H
	DB	00H
	DB	00H
	DB	00H
	DB	00H
	DB	00H
	DB	00H
	DB	00H
	DB	00H
	DB	00H
	DB	040H
	DB	048H
	DB	040H
	DB	0efH
	DB	048H
	DB	044H
	DB	048H
	DB	0ffH
	DB	048H
	DB	048H
	DB	048H
	DB	0ffH
	DB	040H
	DB	044H
	DB	040H
	DB	0ffH
	DB	048H
	DB	048H
	DB	048H
	DB	0ffH
	DB	048H
	DB	044H
	DB	048H
	DB	0f3H
	DB	040H
	DB	044H
	DB	040H
	DB	01cH
	DB	00H
	DB	00H
	DB	00H
	DB	00H
	DB	00H
	DB	00H
	DB	00H
	DB	00H
	DB	00H
	DB	00H
	DB	00H
	DB	00H
	DB	048H
	DB	044H
	DB	048H
	DB	04H
	DB	048H
	DB	044H
	DB	048H
	DB	0e3H
	DB	040H
	DB	048H
	DB	040H
	DB	0ffH
	DB	048H
	DB	044H
	DB	048H
	DB	0ffH
	DB	040H
	DB	048H
	DB	040H
	DB	0ffH
	DB	040H
	DB	048H
	DB	040H
	DB	0ffH
	DB	048H
	DB	044H
	DB	048H
	DB	0ffH
	DB	048H
	DB	044H
	DB	048H
	DB	0ffH
	DB	048H
	DB	048H
	DB	048H
	DB	0ffH
	DB	048H
	DB	044H
	DB	048H
	DB	0ffH
	DB	048H
	DB	048H
	DB	048H
	DB	08eH
	DB	048H
	DB	044H
	DB	048H
	DB	0b6H
	DB	040H
	DB	048H
	DB	040H
	DB	0ffH
	DB	048H
	DB	048H
	DB	048H
	DB	0ffH
	DB	048H
	DB	044H
	DB	048H
	DB	0ffH
	DB	040H
	DB	044H
	DB	040H
	DB	0ffH
	DB	048H
	DB	048H
	DB	048H
	DB	0ffH
	DB	048H
	DB	044H
	DB	048H
	DB	0ffH
	DB	040H
	DB	048H
	DB	040H
	DB	0ffH
	DB	048H
	DB	044H
	DB	048H
	DB	0ffH
	DB	048H
	DB	048H
	DB	048H
	DB	08aH
	DB	00H
	DB	00H
	DB	00H
	DB	00H
	DB	00H
	DB	00H
	DB	00H
	DB	00H
	DB	00H
	DB	00H
	DB	00H
	DB	00H
	DB	00H
	DB	00H
	DB	00H
	DB	00H
	DB	048H
	DB	044H
	DB	048H
	DB	0aaH
	DB	040H
	DB	044H
	DB	040H
	DB	0ffH
	DB	048H
	DB	048H
	DB	048H
	DB	0ffH
	DB	048H
	DB	044H
	DB	048H
	DB	0ffH
	DB	040H
	DB	048H
	DB	040H
	DB	0ffH
	DB	048H
	DB	044H
	DB	048H
	DB	0ffH
	DB	048H
	DB	044H
	DB	048H
	DB	0efH
	DB	00H
	DB	00H
	DB	00H
	DB	00H
	DB	00H
	DB	00H
	DB	00H
	DB	00H
	DB	00H
	DB	00H
	DB	00H
	DB	00H
	DB	00H
	DB	00H
	DB	00H
	DB	00H
	DB	048H
	DB	044H
	DB	048H
	DB	0efH
	DB	040H
	DB	048H
	DB	040H
	DB	0ffH
	DB	048H
	DB	044H
	DB	048H
	DB	0ffH
	DB	048H
	DB	048H
	DB	048H
	DB	0ffH
	DB	040H
	DB	048H
	DB	040H
	DB	0ffH
	DB	048H
	DB	044H
	DB	048H
	DB	0ffH
	DB	048H
	DB	048H
	DB	048H
	DB	09eH
	DB	00H
	DB	00H
	DB	00H
	DB	00H
	DB	00H
	DB	00H
	DB	00H
	DB	00H
	DB	00H
	DB	00H
	DB	00H
	DB	00H
	DB	00H
	DB	00H
	DB	00H
	DB	00H
	DB	048H
	DB	048H
	DB	048H
	DB	08eH
	DB	048H
	DB	044H
	DB	048H
	DB	0ffH
	DB	048H
	DB	044H
	DB	048H
	DB	0ffH
	DB	048H
	DB	048H
	DB	048H
	DB	0ffH
	DB	048H
	DB	048H
	DB	048H
	DB	0ffH
	DB	040H
	DB	044H
	DB	040H
	DB	0ffH
	DB	048H
	DB	048H
	DB	048H
	DB	0ffH
	DB	040H
	DB	048H
	DB	040H
	DB	0ffH
	DB	048H
	DB	044H
	DB	048H
	DB	0ffH
	DB	048H
	DB	044H
	DB	048H
	DB	0b6H
	DB	048H
	DB	044H
	DB	048H
	DB	0d7H
	DB	048H
	DB	048H
	DB	048H
	DB	0ffH
	DB	048H
	DB	048H
	DB	048H
	DB	0ffH
	DB	040H
	DB	044H
	DB	040H
	DB	0ffH
	DB	048H
	DB	048H
	DB	048H
	DB	0ffH
	DB	048H
	DB	044H
	DB	048H
	DB	0ffH
	DB	048H
	DB	044H
	DB	048H
	DB	0ffH
	DB	040H
	DB	048H
	DB	040H
	DB	0ffH
	DB	048H
	DB	044H
	DB	048H
	DB	0ffH
	DB	040H
	DB	044H
	DB	040H
	DB	049H
	DB	00H
	DB	00H
	DB	00H
	DB	00H
	DB	00H
	DB	00H
	DB	00H
	DB	00H
	DB	00H
	DB	00H
	DB	00H
	DB	00H
	DB	048H
	DB	048H
	DB	048H
	DB	010H
	DB	048H
	DB	048H
	DB	048H
	DB	0f7H
	DB	048H
	DB	044H
	DB	048H
	DB	0ffH
	DB	048H
	DB	048H
	DB	048H
	DB	0ffH
	DB	040H
	DB	048H
	DB	040H
	DB	0ffH
	DB	048H
	DB	044H
	DB	048H
	DB	0ffH
	DB	048H
	DB	048H
	DB	048H
	DB	0ffH
	DB	040H
	DB	044H
	DB	040H
	DB	0f7H
	DB	048H
	DB	048H
	DB	048H
	DB	04H
	DB	00H
	DB	00H
	DB	00H
	DB	00H
	DB	00H
	DB	00H
	DB	00H
	DB	00H
	DB	048H
	DB	048H
	DB	048H
	DB	04H
	DB	048H
	DB	044H
	DB	048H
	DB	0f7H
	DB	048H
	DB	048H
	DB	048H
	DB	0ffH
	DB	048H
	DB	044H
	DB	048H
	DB	0ffH
	DB	048H
	DB	044H
	DB	048H
	DB	0ffH
	DB	048H
	DB	048H
	DB	048H
	DB	0ffH
	DB	048H
	DB	044H
	DB	048H
	DB	0ffH
	DB	048H
	DB	048H
	DB	048H
	DB	0f3H
	DB	048H
	DB	048H
	DB	048H
	DB	08H
	DB	00H
	DB	00H
	DB	00H
	DB	00H
	DB	00H
	DB	00H
	DB	00H
	DB	00H
	DB	00H
	DB	00H
	DB	00H
	DB	00H
	DB	040H
	DB	048H
	DB	040H
	DB	04dH
	DB	048H
	DB	048H
	DB	048H
	DB	0ffH
	DB	048H
	DB	044H
	DB	048H
	DB	0ffH
	DB	048H
	DB	044H
	DB	048H
	DB	0ffH
	DB	048H
	DB	048H
	DB	048H
	DB	0ffH
	DB	048H
	DB	044H
	DB	048H
	DB	0ffH
	DB	048H
	DB	048H
	DB	048H
	DB	0ffH
	DB	040H
	DB	044H
	DB	040H
	DB	0ffH
	DB	048H
	DB	048H
	DB	048H
	DB	0ffH
	DB	048H
	DB	044H
	DB	048H
	DB	0d7H
	DB	048H
	DB	044H
	DB	048H
	DB	0efH
	DB	048H
	DB	044H
	DB	048H
	DB	0ffH
	DB	040H
	DB	044H
	DB	040H
	DB	0ffH
	DB	048H
	DB	048H
	DB	048H
	DB	0ffH
	DB	048H
	DB	048H
	DB	048H
	DB	0ffH
	DB	048H
	DB	044H
	DB	048H
	DB	0ffH
	DB	040H
	DB	048H
	DB	040H
	DB	0ffH
	DB	048H
	DB	048H
	DB	048H
	DB	0ffH
	DB	048H
	DB	044H
	DB	048H
	DB	0ffH
	DB	048H
	DB	048H
	DB	048H
	DB	020H
	DB	00H
	DB	00H
	DB	00H
	DB	00H
	DB	00H
	DB	00H
	DB	00H
	DB	00H
	DB	00H
	DB	00H
	DB	00H
	DB	00H
	DB	040H
	DB	044H
	DB	040H
	DB	04dH
	DB	048H
	DB	048H
	DB	048H
	DB	0ffH
	DB	048H
	DB	044H
	DB	048H
	DB	0ffH
	DB	040H
	DB	044H
	DB	040H
	DB	0ffH
	DB	048H
	DB	048H
	DB	048H
	DB	0ffH
	DB	048H
	DB	044H
	DB	048H
	DB	0ffH
	DB	048H
	DB	048H
	DB	048H
	DB	0ffH
	DB	048H
	DB	048H
	DB	048H
	DB	0ffH
	DB	040H
	DB	044H
	DB	040H
	DB	061H
	DB	00H
	DB	00H
	DB	00H
	DB	00H
	DB	00H
	DB	00H
	DB	00H
	DB	00H
	DB	040H
	DB	044H
	DB	040H
	DB	061H
	DB	048H
	DB	048H
	DB	048H
	DB	0ffH
	DB	040H
	DB	048H
	DB	040H
	DB	0ffH
	DB	048H
	DB	044H
	DB	048H
	DB	0ffH
	DB	040H
	DB	048H
	DB	040H
	DB	0ffH
	DB	048H
	DB	044H
	DB	048H
	DB	0ffH
	DB	040H
	DB	044H
	DB	040H
	DB	0ffH
	DB	040H
	DB	048H
	DB	040H
	DB	0ffH
	DB	048H
	DB	044H
	DB	048H
	DB	049H
	DB	00H
	DB	00H
	DB	00H
	DB	00H
	DB	00H
	DB	00H
	DB	00H
	DB	00H
	DB	00H
	DB	00H
	DB	00H
	DB	00H
	DB	048H
	DB	044H
	DB	048H
	DB	020H
	DB	040H
	DB	048H
	DB	040H
	DB	0ffH
	DB	040H
	DB	048H
	DB	040H
	DB	0ffH
	DB	048H
	DB	044H
	DB	048H
	DB	0ffH
	DB	040H
	DB	044H
	DB	040H
	DB	0ffH
	DB	048H
	DB	048H
	DB	048H
	DB	0ffH
	DB	048H
	DB	044H
	DB	048H
	DB	0ffH
	DB	048H
	DB	048H
	DB	048H
	DB	0ffH
	DB	040H
	DB	044H
	DB	040H
	DB	0ffH
	DB	048H
	DB	048H
	DB	048H
	DB	0efH
	DB	048H
	DB	048H
	DB	048H
	DB	0ffH
	DB	048H
	DB	048H
	DB	048H
	DB	0ffH
	DB	048H
	DB	044H
	DB	048H
	DB	0ffH
	DB	048H
	DB	044H
	DB	048H
	DB	0ffH
	DB	040H
	DB	048H
	DB	040H
	DB	0ffH
	DB	048H
	DB	044H
	DB	048H
	DB	0ffH
	DB	048H
	DB	048H
	DB	048H
	DB	0ffH
	DB	048H
	DB	044H
	DB	048H
	DB	0ffH
	DB	048H
	DB	048H
	DB	048H
	DB	0ffH
	DB	040H
	DB	048H
	DB	040H
	DB	08H
	DB	00H
	DB	00H
	DB	00H
	DB	00H
	DB	00H
	DB	00H
	DB	00H
	DB	00H
	DB	00H
	DB	00H
	DB	00H
	DB	00H
	DB	048H
	DB	044H
	DB	048H
	DB	071H
	DB	040H
	DB	048H
	DB	040H
	DB	0ffH
	DB	048H
	DB	048H
	DB	048H
	DB	0ffH
	DB	048H
	DB	044H
	DB	048H
	DB	0ffH
	DB	048H
	DB	044H
	DB	048H
	DB	0ffH
	DB	040H
	DB	048H
	DB	040H
	DB	0ffH
	DB	048H
	DB	044H
	DB	048H
	DB	0ffH
	DB	048H
	DB	044H
	DB	048H
	DB	0ffH
	DB	048H
	DB	048H
	DB	048H
	DB	0ffH
	DB	048H
	DB	044H
	DB	048H
	DB	0beH
	DB	048H
	DB	048H
	DB	048H
	DB	0beH
	DB	048H
	DB	044H
	DB	048H
	DB	0ffH
	DB	048H
	DB	044H
	DB	048H
	DB	0ffH
	DB	048H
	DB	048H
	DB	048H
	DB	0ffH
	DB	040H
	DB	044H
	DB	040H
	DB	0ffH
	DB	048H
	DB	048H
	DB	048H
	DB	0ffH
	DB	048H
	DB	048H
	DB	048H
	DB	0ffH
	DB	048H
	DB	044H
	DB	048H
	DB	0ffH
	DB	048H
	DB	048H
	DB	048H
	DB	0ffH
	DB	048H
	DB	044H
	DB	048H
	DB	06dH
	DB	00H
	DB	00H
	DB	00H
	DB	00H
	DB	00H
	DB	00H
	DB	00H
	DB	00H
	DB	00H
	DB	00H
	DB	00H
	DB	00H
	DB	048H
	DB	044H
	DB	048H
	DB	08H
	DB	048H
	DB	044H
	DB	048H
	DB	0ffH
	DB	048H
	DB	048H
	DB	048H
	DB	0ffH
	DB	048H
	DB	048H
	DB	048H
	DB	0ffH
	DB	048H
	DB	044H
	DB	048H
	DB	0ffH
	DB	040H
	DB	048H
	DB	040H
	DB	0ffH
	DB	048H
	DB	048H
	DB	048H
	DB	0ffH
	DB	048H
	DB	044H
	DB	048H
	DB	0ffH
	DB	048H
	DB	044H
	DB	048H
	DB	0ffH
	DB	048H
	DB	048H
	DB	048H
	DB	0f7H
	DB	048H
	DB	044H
	DB	048H
	DB	0ffH
	DB	040H
	DB	048H
	DB	040H
	DB	0ffH
	DB	048H
	DB	048H
	DB	048H
	DB	0ffH
	DB	048H
	DB	044H
	DB	048H
	DB	0ffH
	DB	040H
	DB	044H
	DB	040H
	DB	0ffH
	DB	048H
	DB	048H
	DB	048H
	DB	0ffH
	DB	048H
	DB	044H
	DB	048H
	DB	0ffH
	DB	040H
	DB	044H
	DB	040H
	DB	0ffH
	DB	048H
	DB	044H
	DB	048H
	DB	0ffH
	DB	00H
	DB	00H
	DB	00H
	DB	00H
	DB	00H
	DB	00H
	DB	00H
	DB	00H
	DB	00H
	DB	00H
	DB	00H
	DB	00H
	DB	00H
	DB	00H
	DB	00H
	DB	00H
	DB	048H
	DB	044H
	DB	048H
	DB	075H
	DB	048H
	DB	048H
	DB	048H
	DB	0ffH
	DB	048H
	DB	048H
	DB	048H
	DB	0ffH
	DB	048H
	DB	044H
	DB	048H
	DB	0ffH
	DB	040H
	DB	048H
	DB	040H
	DB	0ffH
	DB	048H
	DB	048H
	DB	048H
	DB	0ffH
	DB	048H
	DB	044H
	DB	048H
	DB	0ffH
	DB	040H
	DB	048H
	DB	040H
	DB	0ffH
	DB	048H
	DB	048H
	DB	048H
	DB	0ffH
	DB	048H
	DB	044H
	DB	048H
	DB	0ffH
	DB	040H
	DB	048H
	DB	040H
	DB	0ffH
	DB	048H
	DB	048H
	DB	048H
	DB	0ffH
	DB	048H
	DB	044H
	DB	048H
	DB	0ffH
	DB	048H
	DB	048H
	DB	048H
	DB	0ffH
	DB	048H
	DB	044H
	DB	048H
	DB	0ffH
	DB	048H
	DB	044H
	DB	048H
	DB	0ffH
	DB	048H
	DB	048H
	DB	048H
	DB	0ffH
	DB	040H
	DB	048H
	DB	040H
	DB	0ffH
	DB	048H
	DB	044H
	DB	048H
	DB	0ffH
	DB	048H
	DB	048H
	DB	048H
	DB	075H
	DB	00H
	DB	00H
	DB	00H
	DB	00H
	DB	00H
	DB	00H
	DB	00H
	DB	00H
	DB	00H
	DB	00H
	DB	00H
	DB	00H
	DB	048H
	DB	048H
	DB	048H
	DB	00H
	DB	048H
	DB	044H
	DB	048H
	DB	0ffH
	DB	048H
	DB	048H
	DB	048H
	DB	0ffH
	DB	048H
	DB	044H
	DB	048H
	DB	0ffH
	DB	048H
	DB	044H
	DB	048H
	DB	0ffH
	DB	040H
	DB	048H
	DB	040H
	DB	0ffH
	DB	048H
	DB	044H
	DB	048H
	DB	0ffH
	DB	048H
	DB	048H
	DB	048H
	DB	0ffH
	DB	040H
	DB	048H
	DB	040H
	DB	0ffH
	DB	048H
	DB	044H
	DB	048H
	DB	0f7H
	DB	048H
	DB	044H
	DB	048H
	DB	0efH
	DB	040H
	DB	044H
	DB	040H
	DB	0ffH
	DB	048H
	DB	048H
	DB	048H
	DB	0ffH
	DB	048H
	DB	048H
	DB	048H
	DB	0ffH
	DB	048H
	DB	044H
	DB	048H
	DB	0ffH
	DB	048H
	DB	048H
	DB	048H
	DB	0ffH
	DB	048H
	DB	048H
	DB	048H
	DB	0ffH
	DB	040H
	DB	048H
	DB	040H
	DB	0ffH
	DB	048H
	DB	044H
	DB	048H
	DB	0ffH
	DB	048H
	DB	048H
	DB	048H
	DB	010H
	DB	00H
	DB	00H
	DB	00H
	DB	00H
	DB	00H
	DB	00H
	DB	00H
	DB	00H
	DB	00H
	DB	00H
	DB	00H
	DB	00H
	DB	048H
	DB	044H
	DB	048H
	DB	061H
	DB	040H
	DB	044H
	DB	040H
	DB	0ffH
	DB	048H
	DB	048H
	DB	048H
	DB	0ffH
	DB	048H
	DB	044H
	DB	048H
	DB	0ffH
	DB	048H
	DB	044H
	DB	048H
	DB	0ffH
	DB	048H
	DB	048H
	DB	048H
	DB	0ffH
	DB	048H
	DB	044H
	DB	048H
	DB	0ffH
	DB	040H
	DB	048H
	DB	040H
	DB	0ffH
	DB	048H
	DB	044H
	DB	048H
	DB	0ffH
	DB	048H
	DB	044H
	DB	048H
	DB	0ffH
	DB	040H
	DB	048H
	DB	040H
	DB	0ffH
	DB	048H
	DB	044H
	DB	048H
	DB	0ffH
	DB	040H
	DB	048H
	DB	040H
	DB	0ffH
	DB	040H
	DB	048H
	DB	040H
	DB	0ffH
	DB	048H
	DB	044H
	DB	048H
	DB	0ffH
	DB	048H
	DB	044H
	DB	048H
	DB	0ffH
	DB	040H
	DB	048H
	DB	040H
	DB	0ffH
	DB	048H
	DB	044H
	DB	048H
	DB	0ffH
	DB	048H
	DB	044H
	DB	048H
	DB	0ffH
	DB	040H
	DB	048H
	DB	040H
	DB	05dH
	DB	00H
	DB	00H
	DB	00H
	DB	00H
	DB	00H
	DB	00H
	DB	00H
	DB	00H
	DB	00H
	DB	00H
	DB	00H
	DB	00H
	DB	040H
	DB	048H
	DB	040H
	DB	014H
	DB	040H
	DB	044H
	DB	040H
	DB	0ffH
	DB	048H
	DB	048H
	DB	048H
	DB	0ffH
	DB	040H
	DB	048H
	DB	040H
	DB	0ffH
	DB	048H
	DB	044H
	DB	048H
	DB	0ffH
	DB	048H
	DB	044H
	DB	048H
	DB	0ffH
	DB	048H
	DB	048H
	DB	048H
	DB	0ffH
	DB	040H
	DB	044H
	DB	040H
	DB	0ffH
	DB	048H
	DB	044H
	DB	048H
	DB	0ffH
	DB	048H
	DB	048H
	DB	048H
	DB	0efH
	DB	048H
	DB	048H
	DB	048H
	DB	0dbH
	DB	048H
	DB	044H
	DB	048H
	DB	0ffH
	DB	048H
	DB	044H
	DB	048H
	DB	0ffH
	DB	040H
	DB	048H
	DB	040H
	DB	0ffH
	DB	048H
	DB	044H
	DB	048H
	DB	0ffH
	DB	048H
	DB	044H
	DB	048H
	DB	0ffH
	DB	040H
	DB	048H
	DB	040H
	DB	0ffH
	DB	048H
	DB	044H
	DB	048H
	DB	0ffH
	DB	048H
	DB	048H
	DB	048H
	DB	0ffH
	DB	048H
	DB	044H
	DB	048H
	DB	02cH
	DB	00H
	DB	00H
	DB	00H
	DB	00H
	DB	00H
	DB	00H
	DB	00H
	DB	00H
	DB	00H
	DB	00H
	DB	00H
	DB	00H
	DB	048H
	DB	048H
	DB	048H
	DB	038H
	DB	040H
	DB	048H
	DB	040H
	DB	0ffH
	DB	048H
	DB	044H
	DB	048H
	DB	0ffH
	DB	048H
	DB	048H
	DB	048H
	DB	0ffH
	DB	040H
	DB	048H
	DB	040H
	DB	0ffH
	DB	048H
	DB	044H
	DB	048H
	DB	0ffH
	DB	048H
	DB	044H
	DB	048H
	DB	0ffH
	DB	048H
	DB	048H
	DB	048H
	DB	0ffH
	DB	048H
	DB	044H
	DB	048H
	DB	0ffH
	DB	048H
	DB	048H
	DB	048H
	DB	0ffH
	DB	048H
	DB	044H
	DB	048H
	DB	0ffH
	DB	048H
	DB	044H
	DB	048H
	DB	0ffH
	DB	048H
	DB	048H
	DB	048H
	DB	0ffH
	DB	048H
	DB	044H
	DB	048H
	DB	0ffH
	DB	048H
	DB	048H
	DB	048H
	DB	0ffH
	DB	040H
	DB	048H
	DB	040H
	DB	0ffH
	DB	048H
	DB	044H
	DB	048H
	DB	0ffH
	DB	048H
	DB	048H
	DB	048H
	DB	0ffH
	DB	048H
	DB	044H
	DB	048H
	DB	0ffH
	DB	048H
	DB	044H
	DB	048H
	DB	034H
	DB	00H
	DB	00H
	DB	00H
	DB	00H
	DB	00H
	DB	00H
	DB	00H
	DB	00H
	DB	00H
	DB	00H
	DB	00H
	DB	00H
	DB	048H
	DB	044H
	DB	048H
	DB	034H
	DB	048H
	DB	048H
	DB	048H
	DB	0ffH
	DB	048H
	DB	044H
	DB	048H
	DB	0ffH
	DB	048H
	DB	048H
	DB	048H
	DB	0ffH
	DB	040H
	DB	048H
	DB	040H
	DB	0ffH
	DB	048H
	DB	044H
	DB	048H
	DB	0ffH
	DB	048H
	DB	048H
	DB	048H
	DB	0ffH
	DB	048H
	DB	048H
	DB	048H
	DB	0ffH
	DB	048H
	DB	044H
	DB	048H
	DB	0ffH
	DB	048H
	DB	044H
	DB	048H
	DB	0d7H
	DB	048H
	DB	044H
	DB	048H
	DB	0b2H
	DB	048H
	DB	048H
	DB	048H
	DB	0ffH
	DB	040H
	DB	048H
	DB	040H
	DB	0ffH
	DB	048H
	DB	044H
	DB	048H
	DB	0ffH
	DB	048H
	DB	048H
	DB	048H
	DB	0ffH
	DB	040H
	DB	048H
	DB	040H
	DB	0ffH
	DB	048H
	DB	044H
	DB	048H
	DB	0ffH
	DB	048H
	DB	044H
	DB	048H
	DB	0ffH
	DB	048H
	DB	048H
	DB	048H
	DB	0ffH
	DB	040H
	DB	048H
	DB	040H
	DB	065H
	DB	00H
	DB	00H
	DB	00H
	DB	00H
	DB	00H
	DB	00H
	DB	00H
	DB	00H
	DB	00H
	DB	00H
	DB	00H
	DB	00H
	DB	048H
	DB	044H
	DB	048H
	DB	04H
	DB	048H
	DB	048H
	DB	048H
	DB	0e7H
	DB	048H
	DB	044H
	DB	048H
	DB	0ffH
	DB	040H
	DB	044H
	DB	040H
	DB	0ffH
	DB	048H
	DB	048H
	DB	048H
	DB	0ffH
	DB	040H
	DB	048H
	DB	040H
	DB	0ffH
	DB	048H
	DB	044H
	DB	048H
	DB	0ffH
	DB	040H
	DB	048H
	DB	040H
	DB	0ffH
	DB	048H
	DB	048H
	DB	048H
	DB	0ffH
	DB	040H
	DB	044H
	DB	040H
	DB	0ffH
	DB	048H
	DB	048H
	DB	048H
	DB	0ffH
	DB	048H
	DB	048H
	DB	048H
	DB	0ffH
	DB	040H
	DB	044H
	DB	040H
	DB	0ffH
	DB	048H
	DB	044H
	DB	048H
	DB	0ffH
	DB	048H
	DB	048H
	DB	048H
	DB	0ffH
	DB	048H
	DB	044H
	DB	048H
	DB	0ffH
	DB	048H
	DB	048H
	DB	048H
	DB	0ffH
	DB	040H
	DB	048H
	DB	040H
	DB	0ffH
	DB	048H
	DB	048H
	DB	048H
	DB	0e7H
	DB	048H
	DB	044H
	DB	048H
	DB	00H
	DB	00H
	DB	00H
	DB	00H
	DB	00H
	DB	00H
	DB	00H
	DB	00H
	DB	00H
	DB	00H
	DB	00H
	DB	00H
	DB	00H
	DB	048H
	DB	048H
	DB	048H
	DB	06dH
	DB	048H
	DB	044H
	DB	048H
	DB	0ffH
	DB	040H
	DB	044H
	DB	040H
	DB	0ffH
	DB	048H
	DB	044H
	DB	048H
	DB	0ffH
	DB	048H
	DB	048H
	DB	048H
	DB	0ffH
	DB	040H
	DB	044H
	DB	040H
	DB	0ffH
	DB	048H
	DB	044H
	DB	048H
	DB	0ffH
	DB	048H
	DB	048H
	DB	048H
	DB	0ffH
	DB	040H
	DB	048H
	DB	040H
	DB	0ffH
	DB	048H
	DB	044H
	DB	048H
	DB	0b6H
	DB	048H
	DB	044H
	DB	048H
	DB	08aH
	DB	048H
	DB	048H
	DB	048H
	DB	0ffH
	DB	040H
	DB	044H
	DB	040H
	DB	0ffH
	DB	048H
	DB	044H
	DB	048H
	DB	0ffH
	DB	048H
	DB	048H
	DB	048H
	DB	0ffH
	DB	048H
	DB	048H
	DB	048H
	DB	0ffH
	DB	048H
	DB	044H
	DB	048H
	DB	0ffH
	DB	048H
	DB	048H
	DB	048H
	DB	0ffH
	DB	040H
	DB	044H
	DB	040H
	DB	0ffH
	DB	048H
	DB	044H
	DB	048H
	DB	0aeH
	DB	00H
	DB	00H
	DB	00H
	DB	00H
	DB	00H
	DB	00H
	DB	00H
	DB	00H
	DB	00H
	DB	00H
	DB	00H
	DB	00H
	DB	00H
	DB	00H
	DB	00H
	DB	00H
	DB	048H
	DB	044H
	DB	048H
	DB	082H
	DB	040H
	DB	048H
	DB	040H
	DB	0ffH
	DB	048H
	DB	044H
	DB	048H
	DB	0ffH
	DB	048H
	DB	044H
	DB	048H
	DB	0ffH
	DB	048H
	DB	048H
	DB	048H
	DB	0ffH
	DB	048H
	DB	044H
	DB	048H
	DB	0ffH
	DB	048H
	DB	044H
	DB	048H
	DB	0ffH
	DB	040H
	DB	048H
	DB	040H
	DB	0ffH
	DB	048H
	DB	044H
	DB	048H
	DB	0ffH
	DB	048H
	DB	048H
	DB	048H
	DB	0ffH
	DB	040H
	DB	048H
	DB	040H
	DB	0ffH
	DB	048H
	DB	044H
	DB	048H
	DB	0ffH
	DB	048H
	DB	048H
	DB	048H
	DB	0ffH
	DB	040H
	DB	044H
	DB	040H
	DB	0ffH
	DB	048H
	DB	044H
	DB	048H
	DB	0ffH
	DB	048H
	DB	044H
	DB	048H
	DB	0ffH
	DB	040H
	DB	048H
	DB	040H
	DB	0ffH
	DB	048H
	DB	044H
	DB	048H
	DB	079H
	DB	00H
	DB	00H
	DB	00H
	DB	00H
	DB	00H
	DB	00H
	DB	00H
	DB	00H
	DB	00H
	DB	00H
	DB	00H
	DB	00H
	DB	00H
	DB	00H
	DB	00H
	DB	00H
	DB	040H
	DB	048H
	DB	040H
	DB	0baH
	DB	048H
	DB	048H
	DB	048H
	DB	0ffH
	DB	048H
	DB	044H
	DB	048H
	DB	0ffH
	DB	048H
	DB	048H
	DB	048H
	DB	0ffH
	DB	048H
	DB	048H
	DB	048H
	DB	0ffH
	DB	048H
	DB	044H
	DB	048H
	DB	0ffH
	DB	040H
	DB	044H
	DB	040H
	DB	0ffH
	DB	048H
	DB	048H
	DB	048H
	DB	0ffH
	DB	048H
	DB	044H
	DB	048H
	DB	0ffH
	DB	040H
	DB	048H
	DB	040H
	DB	08aH
	DB	048H
	DB	048H
	DB	048H
	DB	051H
	DB	048H
	DB	044H
	DB	048H
	DB	0ffH
	DB	048H
	DB	048H
	DB	048H
	DB	0ffH
	DB	048H
	DB	044H
	DB	048H
	DB	0ffH
	DB	040H
	DB	044H
	DB	040H
	DB	0ffH
	DB	048H
	DB	048H
	DB	048H
	DB	0ffH
	DB	048H
	DB	044H
	DB	048H
	DB	0ffH
	DB	040H
	DB	048H
	DB	040H
	DB	0ffH
	DB	048H
	DB	048H
	DB	048H
	DB	0ffH
	DB	048H
	DB	044H
	DB	048H
	DB	0f7H
	DB	048H
	DB	048H
	DB	048H
	DB	014H
	DB	00H
	DB	00H
	DB	00H
	DB	00H
	DB	00H
	DB	00H
	DB	00H
	DB	00H
	DB	00H
	DB	00H
	DB	00H
	DB	00H
	DB	048H
	DB	048H
	DB	048H
	DB	0cH
	DB	048H
	DB	048H
	DB	048H
	DB	0dbH
	DB	048H
	DB	048H
	DB	048H
	DB	0ffH
	DB	048H
	DB	044H
	DB	048H
	DB	0ffH
	DB	040H
	DB	048H
	DB	040H
	DB	0ffH
	DB	048H
	DB	048H
	DB	048H
	DB	0ffH
	DB	048H
	DB	044H
	DB	048H
	DB	0ffH
	DB	048H
	DB	048H
	DB	048H
	DB	0ffH
	DB	048H
	DB	044H
	DB	048H
	DB	0ffH
	DB	048H
	DB	044H
	DB	048H
	DB	0ffH
	DB	048H
	DB	044H
	DB	048H
	DB	0ffH
	DB	048H
	DB	048H
	DB	048H
	DB	0ffH
	DB	048H
	DB	048H
	DB	048H
	DB	0ffH
	DB	040H
	DB	048H
	DB	040H
	DB	0ffH
	DB	048H
	DB	044H
	DB	048H
	DB	0ffH
	DB	048H
	DB	048H
	DB	048H
	DB	0ffH
	DB	048H
	DB	044H
	DB	048H
	DB	0dbH
	DB	040H
	DB	048H
	DB	040H
	DB	08H
	DB	00H
	DB	00H
	DB	00H
	DB	00H
	DB	00H
	DB	00H
	DB	00H
	DB	00H
	DB	00H
	DB	00H
	DB	00H
	DB	00H
	DB	048H
	DB	044H
	DB	048H
	DB	024H
	DB	048H
	DB	044H
	DB	048H
	DB	0fbH
	DB	040H
	DB	048H
	DB	040H
	DB	0ffH
	DB	048H
	DB	044H
	DB	048H
	DB	0ffH
	DB	048H
	DB	048H
	DB	048H
	DB	0ffH
	DB	040H
	DB	048H
	DB	040H
	DB	0ffH
	DB	048H
	DB	044H
	DB	048H
	DB	0ffH
	DB	048H
	DB	048H
	DB	048H
	DB	0ffH
	DB	048H
	DB	048H
	DB	048H
	DB	0ffH
	DB	048H
	DB	044H
	DB	048H
	DB	0ffH
	DB	048H
	DB	044H
	DB	048H
	DB	051H
	DB	048H
	DB	044H
	DB	048H
	DB	010H
	DB	040H
	DB	048H
	DB	040H
	DB	0fbH
	DB	048H
	DB	048H
	DB	048H
	DB	0ffH
	DB	048H
	DB	044H
	DB	048H
	DB	0ffH
	DB	040H
	DB	048H
	DB	040H
	DB	0ffH
	DB	048H
	DB	044H
	DB	048H
	DB	0ffH
	DB	048H
	DB	044H
	DB	048H
	DB	0ffH
	DB	048H
	DB	048H
	DB	048H
	DB	0ffH
	DB	048H
	DB	044H
	DB	048H
	DB	0ffH
	DB	040H
	DB	048H
	DB	040H
	DB	0ffH
	DB	048H
	DB	044H
	DB	048H
	DB	082H
	DB	00H
	DB	00H
	DB	00H
	DB	00H
	DB	00H
	DB	00H
	DB	00H
	DB	00H
	DB	00H
	DB	00H
	DB	00H
	DB	00H
	DB	00H
	DB	00H
	DB	00H
	DB	00H
	DB	040H
	DB	044H
	DB	040H
	DB	02cH
	DB	048H
	DB	044H
	DB	048H
	DB	0efH
	DB	048H
	DB	048H
	DB	048H
	DB	0ffH
	DB	040H
	DB	044H
	DB	040H
	DB	0ffH
	DB	048H
	DB	048H
	DB	048H
	DB	0ffH
	DB	048H
	DB	044H
	DB	048H
	DB	0ffH
	DB	040H
	DB	048H
	DB	040H
	DB	0ffH
	DB	048H
	DB	048H
	DB	048H
	DB	0ffH
	DB	040H
	DB	044H
	DB	040H
	DB	0ffH
	DB	048H
	DB	048H
	DB	048H
	DB	0ffH
	DB	048H
	DB	044H
	DB	048H
	DB	0ffH
	DB	040H
	DB	044H
	DB	040H
	DB	0ffH
	DB	048H
	DB	048H
	DB	048H
	DB	0ffH
	DB	048H
	DB	048H
	DB	048H
	DB	0ffH
	DB	048H
	DB	044H
	DB	048H
	DB	0efH
	DB	048H
	DB	048H
	DB	048H
	DB	02cH
	DB	00H
	DB	00H
	DB	00H
	DB	00H
	DB	00H
	DB	00H
	DB	00H
	DB	00H
	DB	00H
	DB	00H
	DB	00H
	DB	00H
	DB	00H
	DB	00H
	DB	00H
	DB	00H
	DB	048H
	DB	048H
	DB	048H
	DB	09eH
	DB	048H
	DB	044H
	DB	048H
	DB	0ffH
	DB	040H
	DB	048H
	DB	040H
	DB	0ffH
	DB	048H
	DB	044H
	DB	048H
	DB	0ffH
	DB	048H
	DB	044H
	DB	048H
	DB	0ffH
	DB	040H
	DB	048H
	DB	040H
	DB	0ffH
	DB	048H
	DB	044H
	DB	048H
	DB	0ffH
	DB	048H
	DB	048H
	DB	048H
	DB	0ffH
	DB	040H
	DB	044H
	DB	040H
	DB	0ffH
	DB	048H
	DB	048H
	DB	048H
	DB	0fbH
	DB	048H
	DB	044H
	DB	048H
	DB	010H
	DB	00H
	DB	00H
	DB	00H
	DB	00H
	DB	048H
	DB	044H
	DB	048H
	DB	0baH
	DB	048H
	DB	044H
	DB	048H
	DB	0ffH
	DB	048H
	DB	048H
	DB	048H
	DB	0ffH
	DB	048H
	DB	048H
	DB	048H
	DB	0ffH
	DB	040H
	DB	044H
	DB	040H
	DB	0ffH
	DB	048H
	DB	048H
	DB	048H
	DB	0ffH
	DB	048H
	DB	044H
	DB	048H
	DB	0ffH
	DB	040H
	DB	048H
	DB	040H
	DB	0ffH
	DB	048H
	DB	044H
	DB	048H
	DB	0ffH
	DB	048H
	DB	048H
	DB	048H
	DB	0f7H
	DB	040H
	DB	044H
	DB	040H
	DB	024H
	DB	00H
	DB	00H
	DB	00H
	DB	00H
	DB	00H
	DB	00H
	DB	00H
	DB	00H
	DB	00H
	DB	00H
	DB	00H
	DB	00H
	DB	00H
	DB	00H
	DB	00H
	DB	00H
	DB	048H
	DB	048H
	DB	048H
	DB	034H
	DB	048H
	DB	044H
	DB	048H
	DB	0e3H
	DB	048H
	DB	044H
	DB	048H
	DB	0ffH
	DB	048H
	DB	048H
	DB	048H
	DB	0ffH
	DB	040H
	DB	044H
	DB	040H
	DB	0ffH
	DB	048H
	DB	044H
	DB	048H
	DB	0ffH
	DB	048H
	DB	048H
	DB	048H
	DB	0ffH
	DB	048H
	DB	048H
	DB	048H
	DB	0ffH
	DB	040H
	DB	044H
	DB	040H
	DB	0ffH
	DB	048H
	DB	048H
	DB	048H
	DB	0ffH
	DB	048H
	DB	044H
	DB	048H
	DB	0ffH
	DB	048H
	DB	044H
	DB	048H
	DB	0ffH
	DB	040H
	DB	048H
	DB	040H
	DB	0e3H
	DB	048H
	DB	044H
	DB	048H
	DB	034H
	DB	00H
	DB	00H
	DB	00H
	DB	00H
	DB	00H
	DB	00H
	DB	00H
	DB	00H
	DB	00H
	DB	00H
	DB	00H
	DB	00H
	DB	00H
	DB	00H
	DB	00H
	DB	00H
	DB	040H
	DB	048H
	DB	040H
	DB	038H
	DB	048H
	DB	044H
	DB	048H
	DB	0ffH
	DB	048H
	DB	048H
	DB	048H
	DB	0ffH
	DB	048H
	DB	048H
	DB	048H
	DB	0ffH
	DB	048H
	DB	044H
	DB	048H
	DB	0ffH
	DB	048H
	DB	048H
	DB	048H
	DB	0ffH
	DB	048H
	DB	044H
	DB	048H
	DB	0ffH
	DB	048H
	DB	048H
	DB	048H
	DB	0ffH
	DB	040H
	DB	044H
	DB	040H
	DB	0ffH
	DB	048H
	DB	048H
	DB	048H
	DB	0ffH
	DB	048H
	DB	044H
	DB	048H
	DB	0baH
	DB	00H
	DB	00H
	DB	00H
	DB	00H
	DB	00H
	DB	00H
	DB	00H
	DB	00H
	DB	048H
	DB	048H
	DB	048H
	DB	05dH
	DB	040H
	DB	044H
	DB	040H
	DB	0ffH
	DB	048H
	DB	048H
	DB	048H
	DB	0ffH
	DB	048H
	DB	044H
	DB	048H
	DB	0ffH
	DB	040H
	DB	048H
	DB	040H
	DB	0ffH
	DB	048H
	DB	048H
	DB	048H
	DB	0ffH
	DB	048H
	DB	044H
	DB	048H
	DB	0ffH
	DB	048H
	DB	044H
	DB	048H
	DB	0ffH
	DB	048H
	DB	048H
	DB	048H
	DB	0ffH
	DB	048H
	DB	048H
	DB	048H
	DB	0ffH
	DB	048H
	DB	044H
	DB	048H
	DB	0c7H
	DB	048H
	DB	048H
	DB	048H
	DB	04H
	DB	00H
	DB	00H
	DB	00H
	DB	00H
	DB	00H
	DB	00H
	DB	00H
	DB	00H
	DB	00H
	DB	00H
	DB	00H
	DB	00H
	DB	00H
	DB	00H
	DB	00H
	DB	00H
	DB	040H
	DB	048H
	DB	040H
	DB	014H
	DB	048H
	DB	048H
	DB	048H
	DB	092H
	DB	048H
	DB	044H
	DB	048H
	DB	0f7H
	DB	048H
	DB	048H
	DB	048H
	DB	0ffH
	DB	048H
	DB	044H
	DB	048H
	DB	0ffH
	DB	048H
	DB	044H
	DB	048H
	DB	0ffH
	DB	048H
	DB	048H
	DB	048H
	DB	0ffH
	DB	048H
	DB	044H
	DB	048H
	DB	0ffH
	DB	040H
	DB	048H
	DB	040H
	DB	0ffH
	DB	048H
	DB	048H
	DB	048H
	DB	0f3H
	DB	048H
	DB	044H
	DB	048H
	DB	08aH
	DB	040H
	DB	048H
	DB	040H
	DB	010H
	DB	00H
	DB	00H
	DB	00H
	DB	00H
	DB	00H
	DB	00H
	DB	00H
	DB	00H
	DB	00H
	DB	00H
	DB	00H
	DB	00H
	DB	00H
	DB	00H
	DB	00H
	DB	00H
	DB	048H
	DB	044H
	DB	048H
	DB	010H
	DB	048H
	DB	048H
	DB	048H
	DB	0dfH
	DB	040H
	DB	044H
	DB	040H
	DB	0ffH
	DB	048H
	DB	044H
	DB	048H
	DB	0ffH
	DB	048H
	DB	048H
	DB	048H
	DB	0ffH
	DB	040H
	DB	044H
	DB	040H
	DB	0ffH
	DB	040H
	DB	048H
	DB	040H
	DB	0ffH
	DB	048H
	DB	044H
	DB	048H
	DB	0ffH
	DB	048H
	DB	044H
	DB	048H
	DB	0ffH
	DB	048H
	DB	048H
	DB	048H
	DB	0ffH
	DB	048H
	DB	044H
	DB	048H
	DB	0ffH
	DB	040H
	DB	048H
	DB	040H
	DB	05dH
	DB	00H
	DB	00H
	DB	00H
	DB	00H
	DB	00H
	DB	00H
	DB	00H
	DB	00H
	DB	048H
	DB	044H
	DB	048H
	DB	08H
	DB	040H
	DB	048H
	DB	040H
	DB	0e7H
	DB	048H
	DB	044H
	DB	048H
	DB	0ffH
	DB	048H
	DB	044H
	DB	048H
	DB	0ffH
	DB	048H
	DB	048H
	DB	048H
	DB	0ffH
	DB	040H
	DB	044H
	DB	040H
	DB	0ffH
	DB	048H
	DB	048H
	DB	048H
	DB	0ffH
	DB	048H
	DB	044H
	DB	048H
	DB	0ffH
	DB	040H
	DB	048H
	DB	040H
	DB	0ffH
	DB	048H
	DB	044H
	DB	048H
	DB	0ffH
	DB	048H
	DB	044H
	DB	048H
	DB	0ffH
	DB	040H
	DB	048H
	DB	040H
	DB	0a6H
	DB	048H
	DB	044H
	DB	048H
	DB	00H
	DB	00H
	DB	00H
	DB	00H
	DB	00H
	DB	00H
	DB	00H
	DB	00H
	DB	00H
	DB	00H
	DB	00H
	DB	00H
	DB	00H
	DB	00H
	DB	00H
	DB	00H
	DB	00H
	DB	00H
	DB	00H
	DB	00H
	DB	00H
	DB	040H
	DB	044H
	DB	040H
	DB	010H
	DB	048H
	DB	048H
	DB	048H
	DB	059H
	DB	040H
	DB	048H
	DB	040H
	DB	086H
	DB	040H
	DB	044H
	DB	040H
	DB	0a2H
	DB	048H
	DB	048H
	DB	048H
	DB	0a6H
	DB	048H
	DB	044H
	DB	048H
	DB	08aH
	DB	048H
	DB	044H
	DB	048H
	DB	055H
	DB	048H
	DB	048H
	DB	048H
	DB	0cH
	DB	00H
	DB	00H
	DB	00H
	DB	00H
	DB	00H
	DB	00H
	DB	00H
	DB	00H
	DB	00H
	DB	00H
	DB	00H
	DB	00H
	DB	00H
	DB	00H
	DB	00H
	DB	00H
	DB	00H
	DB	00H
	DB	00H
	DB	00H
	DB	048H
	DB	044H
	DB	048H
	DB	08H
	DB	048H
	DB	048H
	DB	048H
	DB	0beH
	DB	048H
	DB	048H
	DB	048H
	DB	0ffH
	DB	040H
	DB	044H
	DB	040H
	DB	0ffH
	DB	048H
	DB	048H
	DB	048H
	DB	0ffH
	DB	048H
	DB	044H
	DB	048H
	DB	0ffH
	DB	048H
	DB	048H
	DB	048H
	DB	0ffH
	DB	048H
	DB	048H
	DB	048H
	DB	0ffH
	DB	040H
	DB	044H
	DB	040H
	DB	0ffH
	DB	048H
	DB	048H
	DB	048H
	DB	0ffH
	DB	048H
	DB	048H
	DB	048H
	DB	0ffH
	DB	040H
	DB	044H
	DB	040H
	DB	0e7H
	DB	048H
	DB	048H
	DB	048H
	DB	08H
	DB	00H
	DB	00H
	DB	00H
	DB	00H
	DB	00H
	DB	00H
	DB	00H
	DB	00H
	DB	00H
	DB	00H
	DB	00H
	DB	00H
	DB	048H
	DB	048H
	DB	048H
	DB	071H
	DB	048H
	DB	044H
	DB	048H
	DB	0ffH
	DB	048H
	DB	048H
	DB	048H
	DB	0ffH
	DB	048H
	DB	044H
	DB	048H
	DB	0ffH
	DB	048H
	DB	048H
	DB	048H
	DB	0ffH
	DB	040H
	DB	044H
	DB	040H
	DB	0ffH
	DB	048H
	DB	048H
	DB	048H
	DB	0ffH
	DB	048H
	DB	048H
	DB	048H
	DB	0ffH
	DB	040H
	DB	044H
	DB	040H
	DB	0ffH
	DB	048H
	DB	048H
	DB	048H
	DB	0ffH
	DB	048H
	DB	048H
	DB	048H
	DB	0ffH
	DB	040H
	DB	044H
	DB	040H
	DB	0a6H
	DB	048H
	DB	048H
	DB	048H
	DB	08H
	DB	00H
	DB	00H
	DB	00H
	DB	00H
	DB	00H
	DB	00H
	DB	00H
	DB	00H
	DB	00H
	DB	00H
	DB	00H
	DB	00H
	DB	00H
	DB	00H
	DB	00H
	DB	00H
	DB	00H
	DB	00H
	DB	00H
	DB	00H
	DB	00H
	DB	00H
	DB	00H
	DB	00H
	DB	00H
	DB	00H
	DB	00H
	DB	00H
	DB	00H
	DB	00H
	DB	00H
	DB	00H
	DB	00H
	DB	00H
	DB	00H
	DB	00H
	DB	00H
	DB	00H
	DB	00H
	DB	00H
	DB	00H
	DB	00H
	DB	00H
	DB	00H
	DB	00H
	DB	00H
	DB	00H
	DB	00H
	DB	00H
	DB	00H
	DB	00H
	DB	00H
	DB	00H
	DB	00H
	DB	00H
	DB	00H
	DB	00H
	DB	00H
	DB	00H
	DB	00H
	DB	00H
	DB	00H
	DB	00H
	DB	00H
	DB	048H
	DB	048H
	DB	048H
	DB	010H
	DB	040H
	DB	044H
	DB	040H
	DB	0beH
	DB	048H
	DB	048H
	DB	048H
	DB	0ffH
	DB	048H
	DB	044H
	DB	048H
	DB	0ffH
	DB	048H
	DB	048H
	DB	048H
	DB	0ffH
	DB	040H
	DB	044H
	DB	040H
	DB	0ffH
	DB	048H
	DB	048H
	DB	048H
	DB	0ffH
	DB	048H
	DB	044H
	DB	048H
	DB	0ffH
	DB	048H
	DB	044H
	DB	048H
	DB	0ffH
	DB	048H
	DB	048H
	DB	048H
	DB	0ffH
	DB	040H
	DB	044H
	DB	040H
	DB	0ffH
	DB	048H
	DB	044H
	DB	048H
	DB	0ffH
	DB	048H
	DB	048H
	DB	048H
	DB	071H
	DB	00H
	DB	00H
	DB	00H
	DB	00H
	DB	00H
	DB	00H
	DB	00H
	DB	00H
	DB	00H
	DB	00H
	DB	00H
	DB	00H
	DB	00H
	DB	00H
	DB	00H
	DB	00H
	DB	048H
	DB	044H
	DB	048H
	DB	08H
	DB	040H
	DB	048H
	DB	040H
	DB	0dfH
	DB	040H
	DB	048H
	DB	040H
	DB	0ffH
	DB	048H
	DB	044H
	DB	048H
	DB	0ffH
	DB	048H
	DB	048H
	DB	048H
	DB	0ffH
	DB	048H
	DB	044H
	DB	048H
	DB	0ffH
	DB	048H
	DB	044H
	DB	048H
	DB	0ffH
	DB	048H
	DB	048H
	DB	048H
	DB	0ffH
	DB	040H
	DB	044H
	DB	040H
	DB	0ffH
	DB	048H
	DB	044H
	DB	048H
	DB	0ffH
	DB	048H
	DB	048H
	DB	048H
	DB	0ffH
	DB	048H
	DB	044H
	DB	048H
	DB	0ffH
	DB	048H
	DB	044H
	DB	048H
	DB	0cbH
	DB	048H
	DB	048H
	DB	048H
	DB	028H
	DB	00H
	DB	00H
	DB	00H
	DB	00H
	DB	00H
	DB	00H
	DB	00H
	DB	00H
	DB	00H
	DB	00H
	DB	00H
	DB	00H
	DB	00H
	DB	00H
	DB	00H
	DB	00H
	DB	00H
	DB	00H
	DB	00H
	DB	00H
	DB	00H
	DB	00H
	DB	00H
	DB	00H
	DB	00H
	DB	00H
	DB	00H
	DB	00H
	DB	00H
	DB	00H
	DB	00H
	DB	00H
	DB	00H
	DB	00H
	DB	00H
	DB	00H
	DB	00H
	DB	00H
	DB	00H
	DB	00H
	DB	00H
	DB	00H
	DB	00H
	DB	00H
	DB	00H
	DB	00H
	DB	00H
	DB	00H
	DB	00H
	DB	00H
	DB	00H
	DB	00H
	DB	00H
	DB	00H
	DB	00H
	DB	00H
	DB	048H
	DB	044H
	DB	048H
	DB	038H
	DB	048H
	DB	048H
	DB	048H
	DB	0dfH
	DB	040H
	DB	044H
	DB	040H
	DB	0ffH
	DB	048H
	DB	044H
	DB	048H
	DB	0ffH
	DB	048H
	DB	048H
	DB	048H
	DB	0ffH
	DB	040H
	DB	044H
	DB	040H
	DB	0ffH
	DB	048H
	DB	048H
	DB	048H
	DB	0ffH
	DB	048H
	DB	044H
	DB	048H
	DB	0ffH
	DB	040H
	DB	048H
	DB	040H
	DB	0ffH
	DB	048H
	DB	044H
	DB	048H
	DB	0ffH
	DB	048H
	DB	048H
	DB	048H
	DB	0ffH
	DB	048H
	DB	048H
	DB	048H
	DB	0ffH
	DB	048H
	DB	044H
	DB	048H
	DB	0dfH
	DB	048H
	DB	044H
	DB	048H
	DB	08H
	DB	00H
	DB	00H
	DB	00H
	DB	00H
	DB	00H
	DB	00H
	DB	00H
	DB	00H
	DB	00H
	DB	00H
	DB	00H
	DB	00H
	DB	00H
	DB	00H
	DB	00H
	DB	00H
	DB	00H
	DB	00H
	DB	00H
	DB	00H
	DB	048H
	DB	044H
	DB	048H
	DB	049H
	DB	048H
	DB	044H
	DB	048H
	DB	0ffH
	DB	040H
	DB	048H
	DB	040H
	DB	0ffH
	DB	048H
	DB	048H
	DB	048H
	DB	0ffH
	DB	040H
	DB	044H
	DB	040H
	DB	0ffH
	DB	048H
	DB	048H
	DB	048H
	DB	0ffH
	DB	048H
	DB	048H
	DB	048H
	DB	0ffH
	DB	048H
	DB	044H
	DB	048H
	DB	0ffH
	DB	040H
	DB	048H
	DB	040H
	DB	0ffH
	DB	048H
	DB	048H
	DB	048H
	DB	0ffH
	DB	048H
	DB	044H
	DB	048H
	DB	0ffH
	DB	040H
	DB	048H
	DB	040H
	DB	0ffH
	DB	048H
	DB	044H
	DB	048H
	DB	0fbH
	DB	048H
	DB	044H
	DB	048H
	DB	08eH
	DB	040H
	DB	048H
	DB	040H
	DB	01cH
	DB	00H
	DB	00H
	DB	00H
	DB	00H
	DB	00H
	DB	00H
	DB	00H
	DB	00H
	DB	00H
	DB	00H
	DB	00H
	DB	00H
	DB	00H
	DB	00H
	DB	00H
	DB	00H
	DB	00H
	DB	00H
	DB	00H
	DB	00H
	DB	00H
	DB	00H
	DB	00H
	DB	00H
	DB	00H
	DB	00H
	DB	00H
	DB	00H
	DB	00H
	DB	00H
	DB	00H
	DB	00H
	DB	00H
	DB	00H
	DB	00H
	DB	00H
	DB	00H
	DB	00H
	DB	00H
	DB	00H
	DB	048H
	DB	044H
	DB	048H
	DB	028H
	DB	040H
	DB	048H
	DB	040H
	DB	0a2H
	DB	048H
	DB	044H
	DB	048H
	DB	0fbH
	DB	048H
	DB	048H
	DB	048H
	DB	0ffH
	DB	048H
	DB	048H
	DB	048H
	DB	0ffH
	DB	048H
	DB	044H
	DB	048H
	DB	0ffH
	DB	040H
	DB	048H
	DB	040H
	DB	0ffH
	DB	048H
	DB	044H
	DB	048H
	DB	0ffH
	DB	048H
	DB	048H
	DB	048H
	DB	0ffH
	DB	048H
	DB	048H
	DB	048H
	DB	0ffH
	DB	040H
	DB	044H
	DB	040H
	DB	0ffH
	DB	048H
	DB	048H
	DB	048H
	DB	0ffH
	DB	048H
	DB	044H
	DB	048H
	DB	0ffH
	DB	040H
	DB	048H
	DB	040H
	DB	0ffH
	DB	048H
	DB	048H
	DB	048H
	DB	049H
	DB	00H
	DB	00H
	DB	00H
	DB	00H
	DB	00H
	DB	00H
	DB	00H
	DB	00H
	DB	00H
	DB	00H
	DB	00H
	DB	00H
	DB	00H
	DB	00H
	DB	00H
	DB	00H
	DB	00H
	DB	00H
	DB	00H
	DB	00H
	DB	00H
	DB	00H
	DB	00H
	DB	00H
	DB	00H
	DB	00H
	DB	00H
	DB	00H
	DB	048H
	DB	048H
	DB	048H
	DB	09eH
	DB	048H
	DB	044H
	DB	048H
	DB	0ffH
	DB	048H
	DB	044H
	DB	048H
	DB	0ffH
	DB	048H
	DB	048H
	DB	048H
	DB	0ffH
	DB	040H
	DB	044H
	DB	040H
	DB	0ffH
	DB	048H
	DB	044H
	DB	048H
	DB	0ffH
	DB	048H
	DB	048H
	DB	048H
	DB	0ffH
	DB	048H
	DB	044H
	DB	048H
	DB	0ffH
	DB	040H
	DB	044H
	DB	040H
	DB	0ffH
	DB	048H
	DB	048H
	DB	048H
	DB	0ffH
	DB	048H
	DB	048H
	DB	048H
	DB	0ffH
	DB	040H
	DB	044H
	DB	040H
	DB	0ffH
	DB	048H
	DB	048H
	DB	048H
	DB	0ffH
	DB	048H
	DB	044H
	DB	048H
	DB	0fbH
	DB	048H
	DB	044H
	DB	048H
	DB	0baH
	DB	048H
	DB	048H
	DB	048H
	DB	06dH
	DB	048H
	DB	044H
	DB	048H
	DB	038H
	DB	048H
	DB	044H
	DB	048H
	DB	014H
	DB	048H
	DB	048H
	DB	048H
	DB	04H
	DB	048H
	DB	048H
	DB	048H
	DB	04H
	DB	040H
	DB	044H
	DB	040H
	DB	018H
	DB	048H
	DB	048H
	DB	048H
	DB	041H
	DB	048H
	DB	048H
	DB	048H
	DB	075H
	DB	040H
	DB	044H
	DB	040H
	DB	0c3H
	DB	048H
	DB	048H
	DB	048H
	DB	0ffH
	DB	048H
	DB	044H
	DB	048H
	DB	0ffH
	DB	040H
	DB	048H
	DB	040H
	DB	0ffH
	DB	048H
	DB	044H
	DB	048H
	DB	0ffH
	DB	048H
	DB	044H
	DB	048H
	DB	0ffH
	DB	040H
	DB	048H
	DB	040H
	DB	0ffH
	DB	048H
	DB	044H
	DB	048H
	DB	0ffH
	DB	048H
	DB	048H
	DB	048H
	DB	0ffH
	DB	048H
	DB	044H
	DB	048H
	DB	0ffH
	DB	048H
	DB	044H
	DB	048H
	DB	0ffH
	DB	048H
	DB	048H
	DB	048H
	DB	0ffH
	DB	040H
	DB	044H
	DB	040H
	DB	0ffH
	DB	048H
	DB	044H
	DB	048H
	DB	0ffH
	DB	048H
	DB	044H
	DB	048H
	DB	09eH
	DB	00H
	DB	00H
	DB	00H
	DB	00H
	DB	00H
	DB	00H
	DB	00H
	DB	00H
	DB	00H
	DB	00H
	DB	00H
	DB	00H
	DB	00H
	DB	00H
	DB	00H
	DB	00H
	DB	00H
	DB	00H
	DB	00H
	DB	00H
	DB	00H
	DB	00H
	DB	00H
	DB	00H
	DB	00H
	DB	00H
	DB	00H
	DB	00H
	DB	00H
	DB	00H
	DB	00H
	DB	00H
	DB	048H
	DB	048H
	DB	048H
	DB	0cH
	DB	040H
	DB	044H
	DB	040H
	DB	0cfH
	DB	048H
	DB	048H
	DB	048H
	DB	0ffH
	DB	048H
	DB	048H
	DB	048H
	DB	0ffH
	DB	048H
	DB	044H
	DB	048H
	DB	0ffH
	DB	040H
	DB	048H
	DB	040H
	DB	0ffH
	DB	048H
	DB	048H
	DB	048H
	DB	0ffH
	DB	048H
	DB	044H
	DB	048H
	DB	0ffH
	DB	048H
	DB	044H
	DB	048H
	DB	0ffH
	DB	048H
	DB	048H
	DB	048H
	DB	0ffH
	DB	048H
	DB	044H
	DB	048H
	DB	0ffH
	DB	048H
	DB	048H
	DB	048H
	DB	0ffH
	DB	040H
	DB	048H
	DB	040H
	DB	0ffH
	DB	048H
	DB	044H
	DB	048H
	DB	0ffH
	DB	048H
	DB	048H
	DB	048H
	DB	0ffH
	DB	040H
	DB	048H
	DB	040H
	DB	0ffH
	DB	048H
	DB	044H
	DB	048H
	DB	0ffH
	DB	048H
	DB	048H
	DB	048H
	DB	0ffH
	DB	040H
	DB	044H
	DB	040H
	DB	0ffH
	DB	048H
	DB	044H
	DB	048H
	DB	0ffH
	DB	048H
	DB	048H
	DB	048H
	DB	0ffH
	DB	048H
	DB	044H
	DB	048H
	DB	0ffH
	DB	048H
	DB	044H
	DB	048H
	DB	0ffH
	DB	040H
	DB	048H
	DB	040H
	DB	0ffH
	DB	048H
	DB	044H
	DB	048H
	DB	0ffH
	DB	048H
	DB	048H
	DB	048H
	DB	0ffH
	DB	048H
	DB	048H
	DB	048H
	DB	0ffH
	DB	040H
	DB	044H
	DB	040H
	DB	0ffH
	DB	048H
	DB	048H
	DB	048H
	DB	0ffH
	DB	048H
	DB	048H
	DB	048H
	DB	0ffH
	DB	048H
	DB	044H
	DB	048H
	DB	0ffH
	DB	040H
	DB	048H
	DB	040H
	DB	0ffH
	DB	048H
	DB	044H
	DB	048H
	DB	0ffH
	DB	048H
	DB	048H
	DB	048H
	DB	0ffH
	DB	040H
	DB	048H
	DB	040H
	DB	0ffH
	DB	048H
	DB	044H
	DB	048H
	DB	0ffH
	DB	048H
	DB	048H
	DB	048H
	DB	0cfH
	DB	040H
	DB	048H
	DB	040H
	DB	0cH
	DB	00H
	DB	00H
	DB	00H
	DB	00H
	DB	00H
	DB	00H
	DB	00H
	DB	00H
	DB	00H
	DB	00H
	DB	00H
	DB	00H
	DB	00H
	DB	00H
	DB	00H
	DB	00H
	DB	00H
	DB	00H
	DB	00H
	DB	00H
	DB	00H
	DB	00H
	DB	00H
	DB	00H
	DB	00H
	DB	00H
	DB	00H
	DB	00H
	DB	00H
	DB	00H
	DB	00H
	DB	00H
	DB	00H
	DB	00H
	DB	00H
	DB	00H
	DB	048H
	DB	044H
	DB	048H
	DB	018H
	DB	040H
	DB	048H
	DB	040H
	DB	0dbH
	DB	048H
	DB	044H
	DB	048H
	DB	0ffH
	DB	048H
	DB	044H
	DB	048H
	DB	0ffH
	DB	048H
	DB	048H
	DB	048H
	DB	0ffH
	DB	040H
	DB	044H
	DB	040H
	DB	0ffH
	DB	048H
	DB	048H
	DB	048H
	DB	0ffH
	DB	048H
	DB	048H
	DB	048H
	DB	0ffH
	DB	040H
	DB	044H
	DB	040H
	DB	0ffH
	DB	048H
	DB	044H
	DB	048H
	DB	0ffH
	DB	048H
	DB	048H
	DB	048H
	DB	0ffH
	DB	048H
	DB	044H
	DB	048H
	DB	0ffH
	DB	048H
	DB	044H
	DB	048H
	DB	0ffH
	DB	040H
	DB	048H
	DB	040H
	DB	0ffH
	DB	048H
	DB	044H
	DB	048H
	DB	0ffH
	DB	048H
	DB	048H
	DB	048H
	DB	0ffH
	DB	040H
	DB	048H
	DB	040H
	DB	0ffH
	DB	048H
	DB	044H
	DB	048H
	DB	0ffH
	DB	048H
	DB	048H
	DB	048H
	DB	0ffH
	DB	040H
	DB	048H
	DB	040H
	DB	0ffH
	DB	048H
	DB	044H
	DB	048H
	DB	0ffH
	DB	048H
	DB	048H
	DB	048H
	DB	0ffH
	DB	048H
	DB	044H
	DB	048H
	DB	0ffH
	DB	048H
	DB	044H
	DB	048H
	DB	0ffH
	DB	048H
	DB	048H
	DB	048H
	DB	0ffH
	DB	048H
	DB	044H
	DB	048H
	DB	0ffH
	DB	048H
	DB	044H
	DB	048H
	DB	0ffH
	DB	040H
	DB	048H
	DB	040H
	DB	0ffH
	DB	048H
	DB	044H
	DB	048H
	DB	0ffH
	DB	048H
	DB	044H
	DB	048H
	DB	0ffH
	DB	040H
	DB	048H
	DB	040H
	DB	0ffH
	DB	048H
	DB	044H
	DB	048H
	DB	0ffH
	DB	048H
	DB	048H
	DB	048H
	DB	0ffH
	DB	048H
	DB	044H
	DB	048H
	DB	0ffH
	DB	048H
	DB	048H
	DB	048H
	DB	0dbH
	DB	048H
	DB	044H
	DB	048H
	DB	018H
	DB	00H
	DB	00H
	DB	00H
	DB	00H
	DB	00H
	DB	00H
	DB	00H
	DB	00H
	DB	00H
	DB	00H
	DB	00H
	DB	00H
	DB	00H
	DB	00H
	DB	00H
	DB	00H
	DB	00H
	DB	00H
	DB	00H
	DB	00H
	DB	00H
	DB	00H
	DB	00H
	DB	00H
	DB	00H
	DB	00H
	DB	00H
	DB	00H
	DB	00H
	DB	00H
	DB	00H
	DB	00H
	DB	00H
	DB	00H
	DB	00H
	DB	00H
	DB	00H
	DB	00H
	DB	00H
	DB	00H
	DB	00H
	DB	00H
	DB	00H
	DB	00H
	DB	048H
	DB	048H
	DB	048H
	DB	024H
	DB	040H
	DB	044H
	DB	040H
	DB	0dbH
	DB	048H
	DB	048H
	DB	048H
	DB	0ffH
	DB	048H
	DB	044H
	DB	048H
	DB	0ffH
	DB	048H
	DB	044H
	DB	048H
	DB	0ffH
	DB	040H
	DB	048H
	DB	040H
	DB	0ffH
	DB	048H
	DB	048H
	DB	048H
	DB	0ffH
	DB	048H
	DB	044H
	DB	048H
	DB	0ffH
	DB	040H
	DB	048H
	DB	040H
	DB	0ffH
	DB	048H
	DB	048H
	DB	048H
	DB	0ffH
	DB	048H
	DB	044H
	DB	048H
	DB	0ffH
	DB	040H
	DB	048H
	DB	040H
	DB	0ffH
	DB	048H
	DB	044H
	DB	048H
	DB	0ffH
	DB	048H
	DB	044H
	DB	048H
	DB	0ffH
	DB	048H
	DB	048H
	DB	048H
	DB	0ffH
	DB	048H
	DB	044H
	DB	048H
	DB	0ffH
	DB	048H
	DB	044H
	DB	048H
	DB	0ffH
	DB	048H
	DB	048H
	DB	048H
	DB	0ffH
	DB	040H
	DB	044H
	DB	040H
	DB	0ffH
	DB	048H
	DB	048H
	DB	048H
	DB	0ffH
	DB	048H
	DB	048H
	DB	048H
	DB	0ffH
	DB	040H
	DB	044H
	DB	040H
	DB	0ffH
	DB	040H
	DB	048H
	DB	040H
	DB	0ffH
	DB	048H
	DB	048H
	DB	048H
	DB	0ffH
	DB	048H
	DB	044H
	DB	048H
	DB	0ffH
	DB	048H
	DB	048H
	DB	048H
	DB	0ffH
	DB	048H
	DB	048H
	DB	048H
	DB	0ffH
	DB	048H
	DB	044H
	DB	048H
	DB	0ffH
	DB	048H
	DB	048H
	DB	048H
	DB	0ffH
	DB	048H
	DB	048H
	DB	048H
	DB	0ffH
	DB	040H
	DB	044H
	DB	040H
	DB	0ffH
	DB	048H
	DB	044H
	DB	048H
	DB	0ffH
	DB	040H
	DB	048H
	DB	040H
	DB	0dfH
	DB	048H
	DB	044H
	DB	048H
	DB	020H
	DB	00H
	DB	00H
	DB	00H
	DB	00H
	DB	00H
	DB	00H
	DB	00H
	DB	00H
	DB	00H
	DB	00H
	DB	00H
	DB	00H
	DB	00H
	DB	00H
	DB	00H
	DB	00H
	DB	00H
	DB	00H
	DB	00H
	DB	00H
	DB	00H
	DB	00H
	DB	00H
	DB	00H
	DB	00H
	DB	00H
	DB	00H
	DB	00H
	DB	00H
	DB	00H
	DB	00H
	DB	00H
	DB	00H
	DB	00H
	DB	00H
	DB	00H
	DB	00H
	DB	00H
	DB	00H
	DB	00H
	DB	00H
	DB	00H
	DB	00H
	DB	00H
	DB	00H
	DB	00H
	DB	00H
	DB	00H
	DB	00H
	DB	00H
	DB	00H
	DB	00H
	DB	048H
	DB	048H
	DB	048H
	DB	018H
	DB	048H
	DB	048H
	DB	048H
	DB	0cfH
	DB	040H
	DB	044H
	DB	040H
	DB	0ffH
	DB	048H
	DB	048H
	DB	048H
	DB	0ffH
	DB	048H
	DB	044H
	DB	048H
	DB	0ffH
	DB	048H
	DB	044H
	DB	048H
	DB	0ffH
	DB	048H
	DB	048H
	DB	048H
	DB	0ffH
	DB	040H
	DB	044H
	DB	040H
	DB	0ffH
	DB	048H
	DB	044H
	DB	048H
	DB	0ffH
	DB	048H
	DB	048H
	DB	048H
	DB	0ffH
	DB	048H
	DB	048H
	DB	048H
	DB	0ffH
	DB	048H
	DB	044H
	DB	048H
	DB	0ffH
	DB	040H
	DB	048H
	DB	040H
	DB	0ffH
	DB	048H
	DB	048H
	DB	048H
	DB	0ffH
	DB	040H
	DB	044H
	DB	040H
	DB	0ffH
	DB	048H
	DB	048H
	DB	048H
	DB	0ffH
	DB	048H
	DB	044H
	DB	048H
	DB	0ffH
	DB	048H
	DB	044H
	DB	048H
	DB	0ffH
	DB	048H
	DB	048H
	DB	048H
	DB	0ffH
	DB	048H
	DB	044H
	DB	048H
	DB	0ffH
	DB	048H
	DB	044H
	DB	048H
	DB	0ffH
	DB	048H
	DB	048H
	DB	048H
	DB	0ffH
	DB	040H
	DB	044H
	DB	040H
	DB	0ffH
	DB	040H
	DB	044H
	DB	040H
	DB	0ffH
	DB	048H
	DB	048H
	DB	048H
	DB	0ffH
	DB	040H
	DB	044H
	DB	040H
	DB	0ffH
	DB	048H
	DB	044H
	DB	048H
	DB	0ffH
	DB	048H
	DB	048H
	DB	048H
	DB	0ffH
	DB	040H
	DB	044H
	DB	040H
	DB	0ffH
	DB	048H
	DB	048H
	DB	048H
	DB	0ffH
	DB	048H
	DB	048H
	DB	048H
	DB	0cbH
	DB	048H
	DB	044H
	DB	048H
	DB	018H
	DB	00H
	DB	00H
	DB	00H
	DB	00H
	DB	00H
	DB	00H
	DB	00H
	DB	00H
	DB	00H
	DB	00H
	DB	00H
	DB	00H
	DB	00H
	DB	00H
	DB	00H
	DB	00H
	DB	00H
	DB	00H
	DB	00H
	DB	00H
	DB	00H
	DB	00H
	DB	00H
	DB	00H
	DB	00H
	DB	00H
	DB	00H
	DB	00H
	DB	00H
	DB	00H
	DB	00H
	DB	00H
	DB	00H
	DB	00H
	DB	00H
	DB	00H
	DB	00H
	DB	00H
	DB	00H
	DB	00H
	DB	00H
	DB	00H
	DB	00H
	DB	00H
	DB	00H
	DB	00H
	DB	00H
	DB	00H
	DB	00H
	DB	00H
	DB	00H
	DB	00H
	DB	00H
	DB	00H
	DB	00H
	DB	00H
	DB	00H
	DB	00H
	DB	00H
	DB	00H
	DB	048H
	DB	044H
	DB	048H
	DB	08H
	DB	048H
	DB	048H
	DB	048H
	DB	09aH
	DB	040H
	DB	048H
	DB	040H
	DB	0ffH
	DB	048H
	DB	044H
	DB	048H
	DB	0ffH
	DB	048H
	DB	048H
	DB	048H
	DB	0ffH
	DB	040H
	DB	048H
	DB	040H
	DB	0ffH
	DB	048H
	DB	044H
	DB	048H
	DB	0ffH
	DB	048H
	DB	044H
	DB	048H
	DB	0ffH
	DB	040H
	DB	048H
	DB	040H
	DB	0ffH
	DB	048H
	DB	044H
	DB	048H
	DB	0ffH
	DB	048H
	DB	044H
	DB	048H
	DB	0ffH
	DB	048H
	DB	048H
	DB	048H
	DB	0ffH
	DB	040H
	DB	044H
	DB	040H
	DB	0ffH
	DB	048H
	DB	048H
	DB	048H
	DB	0ffH
	DB	048H
	DB	048H
	DB	048H
	DB	0ffH
	DB	040H
	DB	044H
	DB	040H
	DB	0ffH
	DB	048H
	DB	048H
	DB	048H
	DB	0ffH
	DB	040H
	DB	048H
	DB	040H
	DB	0ffH
	DB	048H
	DB	044H
	DB	048H
	DB	0ffH
	DB	048H
	DB	048H
	DB	048H
	DB	0ffH
	DB	048H
	DB	048H
	DB	048H
	DB	0ffH
	DB	048H
	DB	044H
	DB	048H
	DB	0ffH
	DB	048H
	DB	048H
	DB	048H
	DB	0ffH
	DB	048H
	DB	048H
	DB	048H
	DB	0ffH
	DB	040H
	DB	044H
	DB	040H
	DB	0ffH
	DB	048H
	DB	048H
	DB	048H
	DB	0ffH
	DB	048H
	DB	044H
	DB	048H
	DB	0ffH
	DB	048H
	DB	044H
	DB	048H
	DB	0ffH
	DB	048H
	DB	048H
	DB	048H
	DB	09aH
	DB	048H
	DB	044H
	DB	048H
	DB	08H
	DB	00H
	DB	00H
	DB	00H
	DB	00H
	DB	00H
	DB	00H
	DB	00H
	DB	00H
	DB	00H
	DB	00H
	DB	00H
	DB	00H
	DB	00H
	DB	00H
	DB	00H
	DB	00H
	DB	00H
	DB	00H
	DB	00H
	DB	00H
	DB	00H
	DB	00H
	DB	00H
	DB	00H
	DB	00H
	DB	00H
	DB	00H
	DB	00H
	DB	00H
	DB	00H
	DB	00H
	DB	00H
	DB	00H
	DB	00H
	DB	00H
	DB	00H
	DB	00H
	DB	00H
	DB	00H
	DB	00H
	DB	00H
	DB	00H
	DB	00H
	DB	00H
	DB	00H
	DB	00H
	DB	00H
	DB	00H
	DB	00H
	DB	00H
	DB	00H
	DB	00H
	DB	00H
	DB	00H
	DB	00H
	DB	00H
	DB	00H
	DB	00H
	DB	00H
	DB	00H
	DB	00H
	DB	00H
	DB	00H
	DB	00H
	DB	00H
	DB	00H
	DB	00H
	DB	00H
	DB	00H
	DB	00H
	DB	00H
	DB	00H
	DB	048H
	DB	044H
	DB	048H
	DB	04dH
	DB	048H
	DB	044H
	DB	048H
	DB	0dbH
	DB	040H
	DB	048H
	DB	040H
	DB	0ffH
	DB	048H
	DB	044H
	DB	048H
	DB	0ffH
	DB	048H
	DB	048H
	DB	048H
	DB	0ffH
	DB	048H
	DB	048H
	DB	048H
	DB	0ffH
	DB	040H
	DB	044H
	DB	040H
	DB	0ffH
	DB	048H
	DB	048H
	DB	048H
	DB	0ffH
	DB	048H
	DB	048H
	DB	048H
	DB	0ffH
	DB	048H
	DB	044H
	DB	048H
	DB	0ffH
	DB	048H
	DB	044H
	DB	048H
	DB	0ffH
	DB	048H
	DB	048H
	DB	048H
	DB	0ffH
	DB	048H
	DB	044H
	DB	048H
	DB	0ffH
	DB	048H
	DB	044H
	DB	048H
	DB	0ffH
	DB	040H
	DB	048H
	DB	040H
	DB	0ffH
	DB	048H
	DB	044H
	DB	048H
	DB	0ffH
	DB	040H
	DB	044H
	DB	040H
	DB	0ffH
	DB	048H
	DB	048H
	DB	048H
	DB	0ffH
	DB	040H
	DB	044H
	DB	040H
	DB	0ffH
	DB	048H
	DB	044H
	DB	048H
	DB	0ffH
	DB	048H
	DB	048H
	DB	048H
	DB	0ffH
	DB	048H
	DB	044H
	DB	048H
	DB	0ffH
	DB	048H
	DB	048H
	DB	048H
	DB	0ffH
	DB	040H
	DB	048H
	DB	040H
	DB	0ffH
	DB	048H
	DB	044H
	DB	048H
	DB	0dbH
	DB	048H
	DB	048H
	DB	048H
	DB	04dH
	DB	00H
	DB	00H
	DB	00H
	DB	00H
	DB	00H
	DB	00H
	DB	00H
	DB	00H
	DB	00H
	DB	00H
	DB	00H
	DB	00H
	DB	00H
	DB	00H
	DB	00H
	DB	00H
	DB	00H
	DB	00H
	DB	00H
	DB	00H
	DB	00H
	DB	00H
	DB	00H
	DB	00H
	DB	00H
	DB	00H
	DB	00H
	DB	00H
	DB	00H
	DB	00H
	DB	00H
	DB	00H
	DB	00H
	DB	00H
	DB	00H
	DB	00H
	DB	00H
	DB	00H
	DB	00H
	DB	00H
	DB	00H
	DB	00H
	DB	00H
	DB	00H
	DB	00H
	DB	00H
	DB	00H
	DB	00H
	DB	00H
	DB	00H
	DB	00H
	DB	00H
	DB	00H
	DB	00H
	DB	00H
	DB	00H
	DB	00H
	DB	00H
	DB	00H
	DB	00H
	DB	00H
	DB	00H
	DB	00H
	DB	00H
	DB	00H
	DB	00H
	DB	00H
	DB	00H
	DB	00H
	DB	00H
	DB	00H
	DB	00H
	DB	00H
	DB	00H
	DB	00H
	DB	00H
	DB	00H
	DB	00H
	DB	00H
	DB	00H
	DB	00H
	DB	00H
	DB	00H
	DB	00H
	DB	048H
	DB	048H
	DB	048H
	DB	08H
	DB	048H
	DB	044H
	DB	048H
	DB	071H
	DB	048H
	DB	044H
	DB	048H
	DB	0e7H
	DB	048H
	DB	048H
	DB	048H
	DB	0ffH
	DB	040H
	DB	044H
	DB	040H
	DB	0ffH
	DB	048H
	DB	044H
	DB	048H
	DB	0ffH
	DB	048H
	DB	048H
	DB	048H
	DB	0ffH
	DB	040H
	DB	048H
	DB	040H
	DB	0ffH
	DB	040H
	DB	044H
	DB	040H
	DB	0ffH
	DB	048H
	DB	048H
	DB	048H
	DB	0ffH
	DB	040H
	DB	044H
	DB	040H
	DB	0ffH
	DB	048H
	DB	048H
	DB	048H
	DB	0ffH
	DB	048H
	DB	048H
	DB	048H
	DB	0ffH
	DB	048H
	DB	044H
	DB	048H
	DB	0ffH
	DB	048H
	DB	048H
	DB	048H
	DB	0ffH
	DB	048H
	DB	048H
	DB	048H
	DB	0ffH
	DB	048H
	DB	044H
	DB	048H
	DB	0ffH
	DB	048H
	DB	048H
	DB	048H
	DB	0ffH
	DB	040H
	DB	048H
	DB	040H
	DB	0ffH
	DB	048H
	DB	044H
	DB	048H
	DB	0ffH
	DB	048H
	DB	044H
	DB	048H
	DB	0ffH
	DB	048H
	DB	048H
	DB	048H
	DB	0e7H
	DB	040H
	DB	044H
	DB	040H
	DB	071H
	DB	048H
	DB	048H
	DB	048H
	DB	08H
	DB	00H
	DB	00H
	DB	00H
	DB	00H
	DB	00H
	DB	00H
	DB	00H
	DB	00H
	DB	00H
	DB	00H
	DB	00H
	DB	00H
	DB	00H
	DB	00H
	DB	00H
	DB	00H
	DB	00H
	DB	00H
	DB	00H
	DB	00H
	DB	00H
	DB	00H
	DB	00H
	DB	00H
	DB	00H
	DB	00H
	DB	00H
	DB	00H
	DB	00H
	DB	00H
	DB	00H
	DB	00H
	DB	00H
	DB	00H
	DB	00H
	DB	00H
	DB	00H
	DB	00H
	DB	00H
	DB	00H
	DB	00H
	DB	00H
	DB	00H
	DB	00H
	DB	00H
	DB	00H
	DB	00H
	DB	00H
	DB	00H
	DB	00H
	DB	00H
	DB	00H
	DB	00H
	DB	00H
	DB	00H
	DB	00H
	DB	00H
	DB	00H
	DB	00H
	DB	00H
	DB	00H
	DB	00H
	DB	00H
	DB	00H
	DB	00H
	DB	00H
	DB	00H
	DB	00H
	DB	00H
	DB	00H
	DB	00H
	DB	00H
	DB	00H
	DB	00H
	DB	00H
	DB	00H
	DB	00H
	DB	00H
	DB	00H
	DB	00H
	DB	00H
	DB	00H
	DB	00H
	DB	00H
	DB	00H
	DB	00H
	DB	00H
	DB	00H
	DB	00H
	DB	00H
	DB	00H
	DB	00H
	DB	00H
	DB	00H
	DB	00H
	DB	00H
	DB	040H
	DB	048H
	DB	040H
	DB	08H
	DB	048H
	DB	048H
	DB	048H
	DB	05dH
	DB	048H
	DB	044H
	DB	048H
	DB	0baH
	DB	048H
	DB	048H
	DB	048H
	DB	0fbH
	DB	048H
	DB	044H
	DB	048H
	DB	0ffH
	DB	048H
	DB	044H
	DB	048H
	DB	0ffH
	DB	048H
	DB	048H
	DB	048H
	DB	0ffH
	DB	048H
	DB	044H
	DB	048H
	DB	0ffH
	DB	048H
	DB	048H
	DB	048H
	DB	0ffH
	DB	040H
	DB	044H
	DB	040H
	DB	0ffH
	DB	048H
	DB	044H
	DB	048H
	DB	0ffH
	DB	048H
	DB	048H
	DB	048H
	DB	0ffH
	DB	040H
	DB	044H
	DB	040H
	DB	0ffH
	DB	048H
	DB	044H
	DB	048H
	DB	0ffH
	DB	048H
	DB	048H
	DB	048H
	DB	0ffH
	DB	048H
	DB	044H
	DB	048H
	DB	0ffH
	DB	040H
	DB	048H
	DB	040H
	DB	0fbH
	DB	048H
	DB	044H
	DB	048H
	DB	0baH
	DB	048H
	DB	048H
	DB	048H
	DB	05dH
	DB	040H
	DB	044H
	DB	040H
	DB	08H
	DB	00H
	DB	00H
	DB	00H
	DB	00H
	DB	00H
	DB	00H
	DB	00H
	DB	00H
	DB	00H
	DB	00H
	DB	00H
	DB	00H
	DB	00H
	DB	00H
	DB	00H
	DB	00H
	DB	00H
	DB	00H
	DB	00H
	DB	00H
	DB	00H
	DB	00H
	DB	00H
	DB	00H
	DB	00H
	DB	00H
	DB	00H
	DB	00H
	DB	00H
	DB	00H
	DB	00H
	DB	00H
	DB	00H
	DB	00H
	DB	00H
	DB	00H
	DB	00H
	DB	00H
	DB	00H
	DB	00H
	DB	00H
	DB	00H
	DB	00H
	DB	00H
	DB	00H
	DB	00H
	DB	00H
	DB	00H
	DB	00H
	DB	00H
	DB	00H
	DB	00H
	DB	00H
	DB	00H
	DB	00H
	DB	00H
	DB	00H
	DB	00H
	DB	00H
	DB	00H
	DB	00H
	DB	00H
	DB	00H
	DB	00H
	DB	00H
	DB	00H
	DB	00H
	DB	00H
	DB	00H
	DB	00H
	DB	00H
	DB	00H
	DB	00H
	DB	00H
	DB	00H
	DB	00H
	DB	00H
	DB	00H
	DB	00H
	DB	00H
	DB	00H
	DB	00H
	DB	00H
	DB	00H
	DB	00H
	DB	00H
	DB	00H
	DB	00H
	DB	00H
	DB	00H
	DB	00H
	DB	00H
	DB	00H
	DB	00H
	DB	00H
	DB	00H
	DB	00H
	DB	00H
	DB	00H
	DB	00H
	DB	00H
	DB	00H
	DB	00H
	DB	00H
	DB	00H
	DB	00H
	DB	00H
	DB	00H
	DB	00H
	DB	00H
	DB	00H
	DB	00H
	DB	00H
	DB	00H
	DB	00H
	DB	00H
	DB	040H
	DB	048H
	DB	040H
	DB	010H
	DB	048H
	DB	044H
	DB	048H
	DB	051H
	DB	048H
	DB	048H
	DB	048H
	DB	08aH
	DB	040H
	DB	048H
	DB	040H
	DB	0b6H
	DB	048H
	DB	044H
	DB	048H
	DB	0d7H
	DB	048H
	DB	048H
	DB	048H
	DB	0efH
	DB	048H
	DB	044H
	DB	048H
	DB	0fbH
	DB	040H
	DB	048H
	DB	040H
	DB	0fbH
	DB	048H
	DB	048H
	DB	048H
	DB	0efH
	DB	048H
	DB	044H
	DB	048H
	DB	0d7H
	DB	040H
	DB	048H
	DB	040H
	DB	0b6H
	DB	048H
	DB	044H
	DB	048H
	DB	08aH
	DB	048H
	DB	044H
	DB	048H
	DB	051H
	DB	048H
	DB	048H
	DB	048H
	DB	010H
	DB	00H
	DB	00H
	DB	00H
	DB	00H
	DB	00H
	DB	00H
	DB	00H
	DB	00H
	DB	00H
	DB	00H
	DB	00H
	DB	00H
	DB	00H
	DB	00H
	DB	00H
	DB	00H
	DB	00H
	DB	00H
	DB	00H
	DB	00H
	DB	00H
	DB	00H
	DB	00H
	DB	00H
	DB	00H
	DB	00H
	DB	00H
	DB	00H
	DB	00H
	DB	00H
	DB	00H
	DB	00H
	DB	00H
	DB	00H
	DB	00H
	DB	00H
	DB	00H
	DB	00H
	DB	00H
	DB	00H
	DB	00H
	DB	00H
	DB	00H
	DB	00H
	DB	00H
	DB	00H
	DB	00H
	DB	00H
	DB	00H
	DB	00H
	DB	00H
	DB	00H
	DB	00H
	DB	00H
	DB	00H
	DB	00H
	DB	00H
	DB	00H
	DB	00H
	DB	00H
	DB	00H
	DB	00H
	DB	00H
	DB	00H
CONST	ENDS
END
