; Listing generated by Microsoft (R) Optimizing Compiler Version 19.00.24215.1 

	TITLE	D:\TouchGFX\4.8.0\app\template\PowerSupplySystem\generated\images\src\Down_arrow_48.cpp
	.686P
	.XMM
	include listing.inc
	.model	flat

INCLUDELIB MSVCRTD
INCLUDELIB OLDNAMES

PUBLIC	?_Down_arrow_48@@3QBEB				; _Down_arrow_48
CONST	SEGMENT
?_Down_arrow_48@@3QBEB DB 00H				; _Down_arrow_48
	DB	00H
	DB	00H
	DB	04H
	DB	0b8H
	DB	0b8H
	DB	0b8H
	DB	092H
	DB	0c0H
	DB	0bcH
	DB	0c0H
	DB	0ebH
	DB	0b8H
	DB	0b8H
	DB	0b8H
	DB	0a2H
	DB	0a0H
	DB	09cH
	DB	0a0H
	DB	01cH
	DB	00H
	DB	00H
	DB	00H
	DB	00H
	DB	00H
	DB	00H
	DB	00H
	DB	00H
	DB	00H
	DB	00H
	DB	00H
	DB	00H
	DB	00H
	DB	00H
	DB	00H
	DB	00H
	DB	00H
	DB	00H
	DB	00H
	DB	00H
	DB	00H
	DB	00H
	DB	00H
	DB	00H
	DB	00H
	DB	00H
	DB	00H
	DB	00H
	DB	00H
	DB	00H
	DB	00H
	DB	00H
	DB	00H
	DB	00H
	DB	00H
	DB	00H
	DB	00H
	DB	00H
	DB	00H
	DB	00H
	DB	00H
	DB	00H
	DB	00H
	DB	00H
	DB	00H
	DB	00H
	DB	00H
	DB	00H
	DB	00H
	DB	00H
	DB	00H
	DB	00H
	DB	00H
	DB	00H
	DB	00H
	DB	00H
	DB	00H
	DB	00H
	DB	00H
	DB	00H
	DB	00H
	DB	00H
	DB	00H
	DB	00H
	DB	00H
	DB	00H
	DB	00H
	DB	00H
	DB	00H
	DB	00H
	DB	00H
	DB	00H
	DB	00H
	DB	00H
	DB	00H
	DB	00H
	DB	00H
	DB	00H
	DB	00H
	DB	00H
	DB	00H
	DB	00H
	DB	00H
	DB	00H
	DB	00H
	DB	00H
	DB	00H
	DB	00H
	DB	00H
	DB	00H
	DB	00H
	DB	00H
	DB	00H
	DB	00H
	DB	00H
	DB	00H
	DB	00H
	DB	00H
	DB	00H
	DB	00H
	DB	00H
	DB	00H
	DB	00H
	DB	00H
	DB	00H
	DB	00H
	DB	00H
	DB	00H
	DB	00H
	DB	00H
	DB	00H
	DB	00H
	DB	00H
	DB	00H
	DB	00H
	DB	00H
	DB	00H
	DB	00H
	DB	00H
	DB	00H
	DB	00H
	DB	00H
	DB	00H
	DB	00H
	DB	00H
	DB	00H
	DB	00H
	DB	00H
	DB	00H
	DB	00H
	DB	00H
	DB	00H
	DB	00H
	DB	00H
	DB	00H
	DB	00H
	DB	00H
	DB	00H
	DB	00H
	DB	00H
	DB	00H
	DB	00H
	DB	00H
	DB	00H
	DB	00H
	DB	00H
	DB	00H
	DB	00H
	DB	00H
	DB	00H
	DB	00H
	DB	00H
	DB	098H
	DB	098H
	DB	098H
	DB	018H
	DB	0b8H
	DB	0b8H
	DB	0b8H
	DB	09aH
	DB	0c0H
	DB	0bcH
	DB	0c0H
	DB	0ebH
	DB	0b8H
	DB	0b8H
	DB	0b8H
	DB	09eH
	DB	00H
	DB	00H
	DB	00H
	DB	04H
	DB	00H
	DB	00H
	DB	00H
	DB	0cH
	DB	0b8H
	DB	0b8H
	DB	0b8H
	DB	0fbH
	DB	0b0H
	DB	0b4H
	DB	0b0H
	DB	0ffH
	DB	0b8H
	DB	0b8H
	DB	0b8H
	DB	0ffH
	DB	0b8H
	DB	0bcH
	DB	0b8H
	DB	0ebH
	DB	0b0H
	DB	0acH
	DB	0b0H
	DB	059H
	DB	00H
	DB	00H
	DB	00H
	DB	00H
	DB	00H
	DB	00H
	DB	00H
	DB	00H
	DB	00H
	DB	00H
	DB	00H
	DB	00H
	DB	00H
	DB	00H
	DB	00H
	DB	00H
	DB	00H
	DB	00H
	DB	00H
	DB	00H
	DB	00H
	DB	00H
	DB	00H
	DB	00H
	DB	00H
	DB	00H
	DB	00H
	DB	00H
	DB	00H
	DB	00H
	DB	00H
	DB	00H
	DB	00H
	DB	00H
	DB	00H
	DB	00H
	DB	00H
	DB	00H
	DB	00H
	DB	00H
	DB	00H
	DB	00H
	DB	00H
	DB	00H
	DB	00H
	DB	00H
	DB	00H
	DB	00H
	DB	00H
	DB	00H
	DB	00H
	DB	00H
	DB	00H
	DB	00H
	DB	00H
	DB	00H
	DB	00H
	DB	00H
	DB	00H
	DB	00H
	DB	00H
	DB	00H
	DB	00H
	DB	00H
	DB	00H
	DB	00H
	DB	00H
	DB	00H
	DB	00H
	DB	00H
	DB	00H
	DB	00H
	DB	00H
	DB	00H
	DB	00H
	DB	00H
	DB	00H
	DB	00H
	DB	00H
	DB	00H
	DB	00H
	DB	00H
	DB	00H
	DB	00H
	DB	00H
	DB	00H
	DB	00H
	DB	00H
	DB	00H
	DB	00H
	DB	00H
	DB	00H
	DB	00H
	DB	00H
	DB	00H
	DB	00H
	DB	00H
	DB	00H
	DB	00H
	DB	00H
	DB	00H
	DB	00H
	DB	00H
	DB	00H
	DB	00H
	DB	00H
	DB	00H
	DB	00H
	DB	00H
	DB	00H
	DB	00H
	DB	00H
	DB	00H
	DB	00H
	DB	00H
	DB	00H
	DB	00H
	DB	00H
	DB	00H
	DB	00H
	DB	00H
	DB	00H
	DB	00H
	DB	00H
	DB	00H
	DB	00H
	DB	00H
	DB	00H
	DB	00H
	DB	00H
	DB	00H
	DB	00H
	DB	00H
	DB	00H
	DB	00H
	DB	00H
	DB	00H
	DB	00H
	DB	00H
	DB	00H
	DB	00H
	DB	00H
	DB	00H
	DB	00H
	DB	0b0H
	DB	0acH
	DB	0b0H
	DB	055H
	DB	0b8H
	DB	0bcH
	DB	0b8H
	DB	0ebH
	DB	0b8H
	DB	0b8H
	DB	0b8H
	DB	0ffH
	DB	0b0H
	DB	0b0H
	DB	0b0H
	DB	0ffH
	DB	0b8H
	DB	0bcH
	DB	0b8H
	DB	0ffH
	DB	00H
	DB	00H
	DB	00H
	DB	010H
	DB	00H
	DB	00H
	DB	00H
	DB	018H
	DB	0b0H
	DB	0b0H
	DB	0b0H
	DB	0ffH
	DB	0a8H
	DB	0a8H
	DB	0a8H
	DB	0ffH
	DB	0a8H
	DB	0a8H
	DB	0a8H
	DB	0ffH
	DB	0b0H
	DB	0b0H
	DB	0b0H
	DB	0ffH
	DB	0b8H
	DB	0b8H
	DB	0b8H
	DB	0ffH
	DB	0b8H
	DB	0b8H
	DB	0b8H
	DB	0aaH
	DB	090H
	DB	094H
	DB	090H
	DB	018H
	DB	00H
	DB	00H
	DB	00H
	DB	00H
	DB	00H
	DB	00H
	DB	00H
	DB	00H
	DB	00H
	DB	00H
	DB	00H
	DB	00H
	DB	00H
	DB	00H
	DB	00H
	DB	00H
	DB	00H
	DB	00H
	DB	00H
	DB	00H
	DB	00H
	DB	00H
	DB	00H
	DB	00H
	DB	00H
	DB	00H
	DB	00H
	DB	00H
	DB	00H
	DB	00H
	DB	00H
	DB	00H
	DB	00H
	DB	00H
	DB	00H
	DB	00H
	DB	00H
	DB	00H
	DB	00H
	DB	00H
	DB	00H
	DB	00H
	DB	00H
	DB	00H
	DB	00H
	DB	00H
	DB	00H
	DB	00H
	DB	00H
	DB	00H
	DB	00H
	DB	00H
	DB	00H
	DB	00H
	DB	00H
	DB	00H
	DB	00H
	DB	00H
	DB	00H
	DB	00H
	DB	00H
	DB	00H
	DB	00H
	DB	00H
	DB	00H
	DB	00H
	DB	00H
	DB	00H
	DB	00H
	DB	00H
	DB	00H
	DB	00H
	DB	00H
	DB	00H
	DB	00H
	DB	00H
	DB	00H
	DB	00H
	DB	00H
	DB	00H
	DB	00H
	DB	00H
	DB	00H
	DB	00H
	DB	00H
	DB	00H
	DB	00H
	DB	00H
	DB	00H
	DB	00H
	DB	00H
	DB	00H
	DB	00H
	DB	00H
	DB	00H
	DB	00H
	DB	00H
	DB	00H
	DB	00H
	DB	00H
	DB	00H
	DB	00H
	DB	00H
	DB	00H
	DB	00H
	DB	00H
	DB	00H
	DB	00H
	DB	00H
	DB	00H
	DB	00H
	DB	00H
	DB	00H
	DB	00H
	DB	00H
	DB	00H
	DB	00H
	DB	00H
	DB	00H
	DB	00H
	DB	00H
	DB	00H
	DB	00H
	DB	00H
	DB	00H
	DB	00H
	DB	00H
	DB	00H
	DB	090H
	DB	090H
	DB	090H
	DB	014H
	DB	0b8H
	DB	0b4H
	DB	0b8H
	DB	0a6H
	DB	0b8H
	DB	0b8H
	DB	0b8H
	DB	0ffH
	DB	0b0H
	DB	0b0H
	DB	0b0H
	DB	0ffH
	DB	0a8H
	DB	0acH
	DB	0a8H
	DB	0ffH
	DB	0a8H
	DB	0a8H
	DB	0a8H
	DB	0ffH
	DB	0b0H
	DB	0b0H
	DB	0b0H
	DB	0ffH
	DB	00H
	DB	00H
	DB	00H
	DB	018H
	DB	00H
	DB	00H
	DB	00H
	DB	01cH
	DB	0a8H
	DB	0acH
	DB	0a8H
	DB	0ffH
	DB	0a8H
	DB	0a8H
	DB	0a8H
	DB	0ffH
	DB	0a8H
	DB	0a8H
	DB	0a8H
	DB	0ffH
	DB	0a8H
	DB	0a8H
	DB	0a8H
	DB	0ffH
	DB	0a8H
	DB	0acH
	DB	0a8H
	DB	0ffH
	DB	0b0H
	DB	0b4H
	DB	0b0H
	DB	0ffH
	DB	0b8H
	DB	0b8H
	DB	0b8H
	DB	0e7H
	DB	0b0H
	DB	0acH
	DB	0b0H
	DB	04dH
	DB	00H
	DB	00H
	DB	00H
	DB	00H
	DB	00H
	DB	00H
	DB	00H
	DB	00H
	DB	00H
	DB	00H
	DB	00H
	DB	00H
	DB	00H
	DB	00H
	DB	00H
	DB	00H
	DB	00H
	DB	00H
	DB	00H
	DB	00H
	DB	00H
	DB	00H
	DB	00H
	DB	00H
	DB	00H
	DB	00H
	DB	00H
	DB	00H
	DB	00H
	DB	00H
	DB	00H
	DB	00H
	DB	00H
	DB	00H
	DB	00H
	DB	00H
	DB	00H
	DB	00H
	DB	00H
	DB	00H
	DB	00H
	DB	00H
	DB	00H
	DB	00H
	DB	00H
	DB	00H
	DB	00H
	DB	00H
	DB	00H
	DB	00H
	DB	00H
	DB	00H
	DB	00H
	DB	00H
	DB	00H
	DB	00H
	DB	00H
	DB	00H
	DB	00H
	DB	00H
	DB	00H
	DB	00H
	DB	00H
	DB	00H
	DB	00H
	DB	00H
	DB	00H
	DB	00H
	DB	00H
	DB	00H
	DB	00H
	DB	00H
	DB	00H
	DB	00H
	DB	00H
	DB	00H
	DB	00H
	DB	00H
	DB	00H
	DB	00H
	DB	00H
	DB	00H
	DB	00H
	DB	00H
	DB	00H
	DB	00H
	DB	00H
	DB	00H
	DB	00H
	DB	00H
	DB	00H
	DB	00H
	DB	00H
	DB	00H
	DB	00H
	DB	00H
	DB	00H
	DB	00H
	DB	00H
	DB	00H
	DB	00H
	DB	00H
	DB	00H
	DB	00H
	DB	00H
	DB	00H
	DB	00H
	DB	00H
	DB	00H
	DB	00H
	DB	00H
	DB	00H
	DB	00H
	DB	00H
	DB	00H
	DB	00H
	DB	00H
	DB	00H
	DB	00H
	DB	00H
	DB	0b0H
	DB	0acH
	DB	0b0H
	DB	04dH
	DB	0b8H
	DB	0b8H
	DB	0b8H
	DB	0e7H
	DB	0b0H
	DB	0b4H
	DB	0b0H
	DB	0ffH
	DB	0a8H
	DB	0acH
	DB	0a8H
	DB	0ffH
	DB	0a8H
	DB	0a8H
	DB	0a8H
	DB	0ffH
	DB	0a8H
	DB	0a8H
	DB	0a8H
	DB	0ffH
	DB	0a8H
	DB	0a8H
	DB	0a8H
	DB	0ffH
	DB	0a8H
	DB	0acH
	DB	0a8H
	DB	0ffH
	DB	00H
	DB	00H
	DB	00H
	DB	01cH
	DB	00H
	DB	00H
	DB	00H
	DB	01cH
	DB	0a8H
	DB	0a8H
	DB	0a8H
	DB	0ffH
	DB	0a8H
	DB	0a8H
	DB	0a8H
	DB	0ffH
	DB	0a8H
	DB	0a8H
	DB	0a8H
	DB	0ffH
	DB	0a8H
	DB	0a8H
	DB	0a8H
	DB	0ffH
	DB	0a8H
	DB	0a8H
	DB	0a8H
	DB	0ffH
	DB	0a8H
	DB	0a8H
	DB	0a8H
	DB	0ffH
	DB	0b0H
	DB	0acH
	DB	0b0H
	DB	0ffH
	DB	0b8H
	DB	0b8H
	DB	0b8H
	DB	0ffH
	DB	0b0H
	DB	0b4H
	DB	0b0H
	DB	0a2H
	DB	088H
	DB	088H
	DB	088H
	DB	010H
	DB	00H
	DB	00H
	DB	00H
	DB	00H
	DB	00H
	DB	00H
	DB	00H
	DB	00H
	DB	00H
	DB	00H
	DB	00H
	DB	00H
	DB	00H
	DB	00H
	DB	00H
	DB	00H
	DB	00H
	DB	00H
	DB	00H
	DB	00H
	DB	00H
	DB	00H
	DB	00H
	DB	00H
	DB	00H
	DB	00H
	DB	00H
	DB	00H
	DB	00H
	DB	00H
	DB	00H
	DB	00H
	DB	00H
	DB	00H
	DB	00H
	DB	00H
	DB	00H
	DB	00H
	DB	00H
	DB	00H
	DB	00H
	DB	00H
	DB	00H
	DB	00H
	DB	00H
	DB	00H
	DB	00H
	DB	00H
	DB	00H
	DB	00H
	DB	00H
	DB	00H
	DB	00H
	DB	00H
	DB	00H
	DB	00H
	DB	00H
	DB	00H
	DB	00H
	DB	00H
	DB	00H
	DB	00H
	DB	00H
	DB	00H
	DB	00H
	DB	00H
	DB	00H
	DB	00H
	DB	00H
	DB	00H
	DB	00H
	DB	00H
	DB	00H
	DB	00H
	DB	00H
	DB	00H
	DB	00H
	DB	00H
	DB	00H
	DB	00H
	DB	00H
	DB	00H
	DB	00H
	DB	00H
	DB	00H
	DB	00H
	DB	00H
	DB	00H
	DB	00H
	DB	00H
	DB	00H
	DB	00H
	DB	00H
	DB	00H
	DB	00H
	DB	00H
	DB	00H
	DB	00H
	DB	00H
	DB	00H
	DB	00H
	DB	00H
	DB	00H
	DB	00H
	DB	080H
	DB	080H
	DB	080H
	DB	010H
	DB	0b8H
	DB	0b4H
	DB	0b8H
	DB	09eH
	DB	0b8H
	DB	0b8H
	DB	0b8H
	DB	0ffH
	DB	0b0H
	DB	0acH
	DB	0b0H
	DB	0ffH
	DB	0a8H
	DB	0a8H
	DB	0a8H
	DB	0ffH
	DB	0a8H
	DB	0a8H
	DB	0a8H
	DB	0ffH
	DB	0a8H
	DB	0a8H
	DB	0a8H
	DB	0ffH
	DB	0a8H
	DB	0a8H
	DB	0a8H
	DB	0ffH
	DB	0a8H
	DB	0a8H
	DB	0a8H
	DB	0ffH
	DB	0a8H
	DB	0a8H
	DB	0a8H
	DB	0ffH
	DB	00H
	DB	00H
	DB	00H
	DB	01cH
	DB	00H
	DB	00H
	DB	00H
	DB	01cH
	DB	0a8H
	DB	0a8H
	DB	0a8H
	DB	0ffH
	DB	0a8H
	DB	0a4H
	DB	0a8H
	DB	0ffH
	DB	0a8H
	DB	0a4H
	DB	0a8H
	DB	0ffH
	DB	0a8H
	DB	0a4H
	DB	0a8H
	DB	0ffH
	DB	0a8H
	DB	0a4H
	DB	0a8H
	DB	0ffH
	DB	0a8H
	DB	0a4H
	DB	0a8H
	DB	0ffH
	DB	0a8H
	DB	0a4H
	DB	0a8H
	DB	0ffH
	DB	0a8H
	DB	0a8H
	DB	0a8H
	DB	0ffH
	DB	0b0H
	DB	0b4H
	DB	0b0H
	DB	0ffH
	DB	0b8H
	DB	0b4H
	DB	0b8H
	DB	0e3H
	DB	0a8H
	DB	0a8H
	DB	0a8H
	DB	049H
	DB	00H
	DB	00H
	DB	00H
	DB	00H
	DB	00H
	DB	00H
	DB	00H
	DB	00H
	DB	00H
	DB	00H
	DB	00H
	DB	00H
	DB	00H
	DB	00H
	DB	00H
	DB	00H
	DB	00H
	DB	00H
	DB	00H
	DB	00H
	DB	00H
	DB	00H
	DB	00H
	DB	00H
	DB	00H
	DB	00H
	DB	00H
	DB	00H
	DB	00H
	DB	00H
	DB	00H
	DB	00H
	DB	00H
	DB	00H
	DB	00H
	DB	00H
	DB	00H
	DB	00H
	DB	00H
	DB	00H
	DB	00H
	DB	00H
	DB	00H
	DB	00H
	DB	00H
	DB	00H
	DB	00H
	DB	00H
	DB	00H
	DB	00H
	DB	00H
	DB	00H
	DB	00H
	DB	00H
	DB	00H
	DB	00H
	DB	00H
	DB	00H
	DB	00H
	DB	00H
	DB	00H
	DB	00H
	DB	00H
	DB	00H
	DB	00H
	DB	00H
	DB	00H
	DB	00H
	DB	00H
	DB	00H
	DB	00H
	DB	00H
	DB	00H
	DB	00H
	DB	00H
	DB	00H
	DB	00H
	DB	00H
	DB	00H
	DB	00H
	DB	00H
	DB	00H
	DB	00H
	DB	00H
	DB	00H
	DB	00H
	DB	00H
	DB	00H
	DB	00H
	DB	00H
	DB	00H
	DB	00H
	DB	00H
	DB	00H
	DB	00H
	DB	00H
	DB	0a8H
	DB	0a4H
	DB	0a8H
	DB	045H
	DB	0b8H
	DB	0b8H
	DB	0b8H
	DB	0dfH
	DB	0b0H
	DB	0b4H
	DB	0b0H
	DB	0ffH
	DB	0a8H
	DB	0a8H
	DB	0a8H
	DB	0ffH
	DB	0a8H
	DB	0a4H
	DB	0a8H
	DB	0ffH
	DB	0a8H
	DB	0a4H
	DB	0a8H
	DB	0ffH
	DB	0a8H
	DB	0a4H
	DB	0a8H
	DB	0ffH
	DB	0a8H
	DB	0a4H
	DB	0a8H
	DB	0ffH
	DB	0a8H
	DB	0a4H
	DB	0a8H
	DB	0ffH
	DB	0a8H
	DB	0a4H
	DB	0a8H
	DB	0ffH
	DB	0a8H
	DB	0a8H
	DB	0a8H
	DB	0ffH
	DB	00H
	DB	00H
	DB	00H
	DB	01cH
	DB	00H
	DB	00H
	DB	00H
	DB	01cH
	DB	0a8H
	DB	0a8H
	DB	0a8H
	DB	0ffH
	DB	0a0H
	DB	0a4H
	DB	0a0H
	DB	0ffH
	DB	0a0H
	DB	0a4H
	DB	0a0H
	DB	0ffH
	DB	0a0H
	DB	0a4H
	DB	0a0H
	DB	0ffH
	DB	0a0H
	DB	0a4H
	DB	0a0H
	DB	0ffH
	DB	0a0H
	DB	0a4H
	DB	0a0H
	DB	0ffH
	DB	0a0H
	DB	0a4H
	DB	0a0H
	DB	0ffH
	DB	0a8H
	DB	0a4H
	DB	0a8H
	DB	0ffH
	DB	0a8H
	DB	0a4H
	DB	0a8H
	DB	0ffH
	DB	0a8H
	DB	0acH
	DB	0a8H
	DB	0ffH
	DB	0b8H
	DB	0b8H
	DB	0b8H
	DB	0ffH
	DB	0b0H
	DB	0b0H
	DB	0b0H
	DB	09aH
	DB	088H
	DB	084H
	DB	088H
	DB	010H
	DB	00H
	DB	00H
	DB	00H
	DB	00H
	DB	00H
	DB	00H
	DB	00H
	DB	00H
	DB	00H
	DB	00H
	DB	00H
	DB	00H
	DB	00H
	DB	00H
	DB	00H
	DB	00H
	DB	00H
	DB	00H
	DB	00H
	DB	00H
	DB	00H
	DB	00H
	DB	00H
	DB	00H
	DB	00H
	DB	00H
	DB	00H
	DB	00H
	DB	00H
	DB	00H
	DB	00H
	DB	00H
	DB	00H
	DB	00H
	DB	00H
	DB	00H
	DB	00H
	DB	00H
	DB	00H
	DB	00H
	DB	00H
	DB	00H
	DB	00H
	DB	00H
	DB	00H
	DB	00H
	DB	00H
	DB	00H
	DB	00H
	DB	00H
	DB	00H
	DB	00H
	DB	00H
	DB	00H
	DB	00H
	DB	00H
	DB	00H
	DB	00H
	DB	00H
	DB	00H
	DB	00H
	DB	00H
	DB	00H
	DB	00H
	DB	00H
	DB	00H
	DB	00H
	DB	00H
	DB	00H
	DB	00H
	DB	00H
	DB	00H
	DB	00H
	DB	00H
	DB	00H
	DB	00H
	DB	00H
	DB	00H
	DB	00H
	DB	00H
	DB	080H
	DB	080H
	DB	080H
	DB	0cH
	DB	0b0H
	DB	0b0H
	DB	0b0H
	DB	096H
	DB	0b8H
	DB	0b8H
	DB	0b8H
	DB	0ffH
	DB	0a8H
	DB	0acH
	DB	0a8H
	DB	0ffH
	DB	0a8H
	DB	0a4H
	DB	0a8H
	DB	0ffH
	DB	0a0H
	DB	0a4H
	DB	0a0H
	DB	0ffH
	DB	0a0H
	DB	0a4H
	DB	0a0H
	DB	0ffH
	DB	0a0H
	DB	0a4H
	DB	0a0H
	DB	0ffH
	DB	0a0H
	DB	0a4H
	DB	0a0H
	DB	0ffH
	DB	0a0H
	DB	0a4H
	DB	0a0H
	DB	0ffH
	DB	0a0H
	DB	0a4H
	DB	0a0H
	DB	0ffH
	DB	0a0H
	DB	0a4H
	DB	0a0H
	DB	0ffH
	DB	0a8H
	DB	0a8H
	DB	0a8H
	DB	0ffH
	DB	00H
	DB	00H
	DB	00H
	DB	01cH
	DB	00H
	DB	00H
	DB	00H
	DB	018H
	DB	098H
	DB	094H
	DB	098H
	DB	0cbH
	DB	0a0H
	DB	0a4H
	DB	0a0H
	DB	0ffH
	DB	0a0H
	DB	0a4H
	DB	0a0H
	DB	0ffH
	DB	0a8H
	DB	0a4H
	DB	0a8H
	DB	0ffH
	DB	0a0H
	DB	0a4H
	DB	0a0H
	DB	0ffH
	DB	0a0H
	DB	0a4H
	DB	0a0H
	DB	0ffH
	DB	0a0H
	DB	0a4H
	DB	0a0H
	DB	0ffH
	DB	0a0H
	DB	0a4H
	DB	0a0H
	DB	0ffH
	DB	0a0H
	DB	0a4H
	DB	0a0H
	DB	0ffH
	DB	0a0H
	DB	0a4H
	DB	0a0H
	DB	0ffH
	DB	0a8H
	DB	0a8H
	DB	0a8H
	DB	0ffH
	DB	0b0H
	DB	0b0H
	DB	0b0H
	DB	0ffH
	DB	0b8H
	DB	0b4H
	DB	0b8H
	DB	0dfH
	DB	0a8H
	DB	0a8H
	DB	0a8H
	DB	041H
	DB	00H
	DB	00H
	DB	00H
	DB	00H
	DB	00H
	DB	00H
	DB	00H
	DB	00H
	DB	00H
	DB	00H
	DB	00H
	DB	00H
	DB	00H
	DB	00H
	DB	00H
	DB	00H
	DB	00H
	DB	00H
	DB	00H
	DB	00H
	DB	00H
	DB	00H
	DB	00H
	DB	00H
	DB	00H
	DB	00H
	DB	00H
	DB	00H
	DB	00H
	DB	00H
	DB	00H
	DB	00H
	DB	00H
	DB	00H
	DB	00H
	DB	00H
	DB	00H
	DB	00H
	DB	00H
	DB	00H
	DB	00H
	DB	00H
	DB	00H
	DB	00H
	DB	00H
	DB	00H
	DB	00H
	DB	00H
	DB	00H
	DB	00H
	DB	00H
	DB	00H
	DB	00H
	DB	00H
	DB	00H
	DB	00H
	DB	00H
	DB	00H
	DB	00H
	DB	00H
	DB	00H
	DB	00H
	DB	00H
	DB	00H
	DB	00H
	DB	00H
	DB	00H
	DB	00H
	DB	00H
	DB	00H
	DB	00H
	DB	00H
	DB	0a8H
	DB	0a4H
	DB	0a8H
	DB	03cH
	DB	0b8H
	DB	0b4H
	DB	0b8H
	DB	0dbH
	DB	0b0H
	DB	0b4H
	DB	0b0H
	DB	0ffH
	DB	0a8H
	DB	0a8H
	DB	0a8H
	DB	0ffH
	DB	0a0H
	DB	0a4H
	DB	0a0H
	DB	0ffH
	DB	0a0H
	DB	0a4H
	DB	0a0H
	DB	0ffH
	DB	0a0H
	DB	0a4H
	DB	0a0H
	DB	0ffH
	DB	0a0H
	DB	0a4H
	DB	0a0H
	DB	0ffH
	DB	0a8H
	DB	0a4H
	DB	0a8H
	DB	0ffH
	DB	0a0H
	DB	0a4H
	DB	0a0H
	DB	0ffH
	DB	0a0H
	DB	0a4H
	DB	0a0H
	DB	0ffH
	DB	0a8H
	DB	0a4H
	DB	0a8H
	DB	0ffH
	DB	0a0H
	DB	0a4H
	DB	0a0H
	DB	0ffH
	DB	098H
	DB	098H
	DB	098H
	DB	0cbH
	DB	00H
	DB	00H
	DB	00H
	DB	018H
	DB	00H
	DB	00H
	DB	00H
	DB	010H
	DB	018H
	DB	014H
	DB	018H
	DB	03cH
	DB	088H
	DB	088H
	DB	088H
	DB	0c3H
	DB	0a0H
	DB	0a0H
	DB	0a0H
	DB	0ffH
	DB	0a0H
	DB	0a0H
	DB	0a0H
	DB	0ffH
	DB	0a0H
	DB	0a0H
	DB	0a0H
	DB	0ffH
	DB	0a0H
	DB	0a0H
	DB	0a0H
	DB	0ffH
	DB	0a0H
	DB	0a0H
	DB	0a0H
	DB	0ffH
	DB	0a0H
	DB	0a0H
	DB	0a0H
	DB	0ffH
	DB	0a0H
	DB	0a0H
	DB	0a0H
	DB	0ffH
	DB	0a0H
	DB	0a0H
	DB	0a0H
	DB	0ffH
	DB	0a0H
	DB	0a0H
	DB	0a0H
	DB	0ffH
	DB	0a0H
	DB	0a4H
	DB	0a0H
	DB	0ffH
	DB	0a8H
	DB	0a8H
	DB	0a8H
	DB	0ffH
	DB	0b8H
	DB	0b4H
	DB	0b8H
	DB	0fbH
	DB	0b0H
	DB	0b0H
	DB	0b0H
	DB	08eH
	DB	078H
	DB	074H
	DB	078H
	DB	0cH
	DB	00H
	DB	00H
	DB	00H
	DB	00H
	DB	00H
	DB	00H
	DB	00H
	DB	00H
	DB	00H
	DB	00H
	DB	00H
	DB	00H
	DB	00H
	DB	00H
	DB	00H
	DB	00H
	DB	00H
	DB	00H
	DB	00H
	DB	00H
	DB	00H
	DB	00H
	DB	00H
	DB	00H
	DB	00H
	DB	00H
	DB	00H
	DB	00H
	DB	00H
	DB	00H
	DB	00H
	DB	00H
	DB	00H
	DB	00H
	DB	00H
	DB	00H
	DB	00H
	DB	00H
	DB	00H
	DB	00H
	DB	00H
	DB	00H
	DB	00H
	DB	00H
	DB	00H
	DB	00H
	DB	00H
	DB	00H
	DB	00H
	DB	00H
	DB	00H
	DB	00H
	DB	00H
	DB	00H
	DB	00H
	DB	00H
	DB	070H
	DB	070H
	DB	070H
	DB	08H
	DB	0b0H
	DB	0b0H
	DB	0b0H
	DB	08eH
	DB	0b0H
	DB	0b4H
	DB	0b0H
	DB	0fbH
	DB	0a8H
	DB	0a8H
	DB	0a8H
	DB	0ffH
	DB	0a0H
	DB	0a4H
	DB	0a0H
	DB	0ffH
	DB	0a0H
	DB	0a0H
	DB	0a0H
	DB	0ffH
	DB	0a0H
	DB	0a0H
	DB	0a0H
	DB	0ffH
	DB	0a0H
	DB	0a0H
	DB	0a0H
	DB	0ffH
	DB	0a0H
	DB	0a0H
	DB	0a0H
	DB	0ffH
	DB	0a0H
	DB	0a0H
	DB	0a0H
	DB	0ffH
	DB	0a0H
	DB	0a0H
	DB	0a0H
	DB	0ffH
	DB	0a0H
	DB	0a0H
	DB	0a0H
	DB	0ffH
	DB	0a0H
	DB	0a0H
	DB	0a0H
	DB	0ffH
	DB	0a0H
	DB	0a0H
	DB	0a0H
	DB	0ffH
	DB	088H
	DB	088H
	DB	088H
	DB	0c7H
	DB	018H
	DB	014H
	DB	018H
	DB	041H
	DB	00H
	DB	00H
	DB	00H
	DB	010H
	DB	00H
	DB	00H
	DB	00H
	DB	04H
	DB	00H
	DB	00H
	DB	00H
	DB	01cH
	DB	00H
	DB	04H
	DB	00H
	DB	03cH
	DB	078H
	DB	078H
	DB	078H
	DB	0aeH
	DB	0a0H
	DB	0a0H
	DB	0a0H
	DB	0ffH
	DB	0a0H
	DB	0a0H
	DB	0a0H
	DB	0ffH
	DB	0a0H
	DB	0a0H
	DB	0a0H
	DB	0ffH
	DB	0a0H
	DB	0a0H
	DB	0a0H
	DB	0ffH
	DB	0a0H
	DB	0a0H
	DB	0a0H
	DB	0ffH
	DB	0a0H
	DB	0a0H
	DB	0a0H
	DB	0ffH
	DB	0a0H
	DB	0a0H
	DB	0a0H
	DB	0ffH
	DB	0a0H
	DB	0a0H
	DB	0a0H
	DB	0ffH
	DB	0a0H
	DB	0a0H
	DB	0a0H
	DB	0ffH
	DB	0a0H
	DB	0a0H
	DB	0a0H
	DB	0ffH
	DB	0a0H
	DB	0a4H
	DB	0a0H
	DB	0ffH
	DB	0b0H
	DB	0b0H
	DB	0b0H
	DB	0ffH
	DB	0b0H
	DB	0b4H
	DB	0b0H
	DB	0d7H
	DB	0a8H
	DB	0a4H
	DB	0a8H
	DB	038H
	DB	00H
	DB	00H
	DB	00H
	DB	00H
	DB	00H
	DB	00H
	DB	00H
	DB	00H
	DB	00H
	DB	00H
	DB	00H
	DB	00H
	DB	00H
	DB	00H
	DB	00H
	DB	00H
	DB	00H
	DB	00H
	DB	00H
	DB	00H
	DB	00H
	DB	00H
	DB	00H
	DB	00H
	DB	00H
	DB	00H
	DB	00H
	DB	00H
	DB	00H
	DB	00H
	DB	00H
	DB	00H
	DB	00H
	DB	00H
	DB	00H
	DB	00H
	DB	00H
	DB	00H
	DB	00H
	DB	00H
	DB	00H
	DB	00H
	DB	00H
	DB	00H
	DB	00H
	DB	00H
	DB	00H
	DB	00H
	DB	0a0H
	DB	0a0H
	DB	0a0H
	DB	034H
	DB	0b0H
	DB	0b4H
	DB	0b0H
	DB	0d7H
	DB	0b0H
	DB	0b0H
	DB	0b0H
	DB	0ffH
	DB	0a0H
	DB	0a4H
	DB	0a0H
	DB	0ffH
	DB	0a0H
	DB	0a0H
	DB	0a0H
	DB	0ffH
	DB	0a0H
	DB	0a0H
	DB	0a0H
	DB	0ffH
	DB	0a0H
	DB	0a0H
	DB	0a0H
	DB	0ffH
	DB	0a0H
	DB	0a0H
	DB	0a0H
	DB	0ffH
	DB	0a0H
	DB	0a0H
	DB	0a0H
	DB	0ffH
	DB	0a0H
	DB	0a0H
	DB	0a0H
	DB	0ffH
	DB	0a0H
	DB	0a0H
	DB	0a0H
	DB	0ffH
	DB	0a0H
	DB	0a0H
	DB	0a0H
	DB	0ffH
	DB	0a0H
	DB	0a0H
	DB	0a0H
	DB	0ffH
	DB	0a0H
	DB	0a0H
	DB	0a0H
	DB	0ffH
	DB	080H
	DB	07cH
	DB	080H
	DB	0b2H
	DB	00H
	DB	04H
	DB	00H
	DB	03cH
	DB	00H
	DB	00H
	DB	00H
	DB	01cH
	DB	00H
	DB	00H
	DB	00H
	DB	04H
	DB	00H
	DB	00H
	DB	00H
	DB	00H
	DB	00H
	DB	00H
	DB	00H
	DB	04H
	DB	00H
	DB	00H
	DB	00H
	DB	018H
	DB	00H
	DB	00H
	DB	00H
	DB	038H
	DB	068H
	DB	068H
	DB	068H
	DB	096H
	DB	0a0H
	DB	09cH
	DB	0a0H
	DB	0fbH
	DB	0a0H
	DB	0a0H
	DB	0a0H
	DB	0ffH
	DB	0a0H
	DB	0a0H
	DB	0a0H
	DB	0ffH
	DB	0a0H
	DB	09cH
	DB	0a0H
	DB	0ffH
	DB	0a0H
	DB	0a0H
	DB	0a0H
	DB	0ffH
	DB	0a0H
	DB	0a0H
	DB	0a0H
	DB	0ffH
	DB	0a0H
	DB	09cH
	DB	0a0H
	DB	0ffH
	DB	0a0H
	DB	09cH
	DB	0a0H
	DB	0ffH
	DB	0a0H
	DB	0a0H
	DB	0a0H
	DB	0ffH
	DB	0a0H
	DB	09cH
	DB	0a0H
	DB	0ffH
	DB	0a0H
	DB	0a0H
	DB	0a0H
	DB	0ffH
	DB	0a8H
	DB	0a8H
	DB	0a8H
	DB	0ffH
	DB	0b0H
	DB	0b4H
	DB	0b0H
	DB	0fbH
	DB	0a8H
	DB	0acH
	DB	0a8H
	DB	086H
	DB	068H
	DB	068H
	DB	068H
	DB	08H
	DB	00H
	DB	00H
	DB	00H
	DB	00H
	DB	00H
	DB	00H
	DB	00H
	DB	00H
	DB	00H
	DB	00H
	DB	00H
	DB	00H
	DB	00H
	DB	00H
	DB	00H
	DB	00H
	DB	00H
	DB	00H
	DB	00H
	DB	00H
	DB	00H
	DB	00H
	DB	00H
	DB	00H
	DB	00H
	DB	00H
	DB	00H
	DB	00H
	DB	00H
	DB	00H
	DB	00H
	DB	00H
	DB	068H
	DB	068H
	DB	068H
	DB	08H
	DB	0b0H
	DB	0acH
	DB	0b0H
	DB	082H
	DB	0b0H
	DB	0b4H
	DB	0b0H
	DB	0fbH
	DB	0a8H
	DB	0a8H
	DB	0a8H
	DB	0ffH
	DB	0a0H
	DB	0a0H
	DB	0a0H
	DB	0ffH
	DB	0a0H
	DB	09cH
	DB	0a0H
	DB	0ffH
	DB	0a0H
	DB	09cH
	DB	0a0H
	DB	0ffH
	DB	0a0H
	DB	0a0H
	DB	0a0H
	DB	0ffH
	DB	0a0H
	DB	09cH
	DB	0a0H
	DB	0ffH
	DB	0a0H
	DB	0a0H
	DB	0a0H
	DB	0ffH
	DB	0a0H
	DB	0a0H
	DB	0a0H
	DB	0ffH
	DB	0a0H
	DB	09cH
	DB	0a0H
	DB	0ffH
	DB	0a0H
	DB	0a0H
	DB	0a0H
	DB	0ffH
	DB	0a0H
	DB	0a0H
	DB	0a0H
	DB	0ffH
	DB	0a0H
	DB	09cH
	DB	0a0H
	DB	0fbH
	DB	068H
	DB	068H
	DB	068H
	DB	09aH
	DB	00H
	DB	00H
	DB	00H
	DB	038H
	DB	00H
	DB	00H
	DB	00H
	DB	018H
	DB	00H
	DB	00H
	DB	00H
	DB	04H
	DB	00H
	DB	00H
	DB	00H
	DB	00H
	DB	00H
	DB	00H
	DB	00H
	DB	00H
	DB	00H
	DB	00H
	DB	00H
	DB	00H
	DB	00H
	DB	00H
	DB	00H
	DB	04H
	DB	00H
	DB	00H
	DB	00H
	DB	014H
	DB	00H
	DB	00H
	DB	00H
	DB	030H
	DB	058H
	DB	054H
	DB	058H
	DB	082H
	DB	098H
	DB	098H
	DB	098H
	DB	0f7H
	DB	0a0H
	DB	09cH
	DB	0a0H
	DB	0ffH
	DB	0a0H
	DB	09cH
	DB	0a0H
	DB	0ffH
	DB	0a0H
	DB	09cH
	DB	0a0H
	DB	0ffH
	DB	0a0H
	DB	09cH
	DB	0a0H
	DB	0ffH
	DB	0a0H
	DB	09cH
	DB	0a0H
	DB	0ffH
	DB	098H
	DB	09cH
	DB	098H
	DB	0ffH
	DB	0a0H
	DB	09cH
	DB	0a0H
	DB	0ffH
	DB	0a0H
	DB	09cH
	DB	0a0H
	DB	0ffH
	DB	098H
	DB	09cH
	DB	098H
	DB	0ffH
	DB	0a0H
	DB	09cH
	DB	0a0H
	DB	0ffH
	DB	0a0H
	DB	0a0H
	DB	0a0H
	DB	0ffH
	DB	0b0H
	DB	0b0H
	DB	0b0H
	DB	0ffH
	DB	0b0H
	DB	0b0H
	DB	0b0H
	DB	0cfH
	DB	0a0H
	DB	09cH
	DB	0a0H
	DB	030H
	DB	00H
	DB	00H
	DB	00H
	DB	00H
	DB	00H
	DB	00H
	DB	00H
	DB	00H
	DB	00H
	DB	00H
	DB	00H
	DB	00H
	DB	00H
	DB	00H
	DB	00H
	DB	00H
	DB	00H
	DB	00H
	DB	00H
	DB	00H
	DB	00H
	DB	00H
	DB	00H
	DB	00H
	DB	098H
	DB	09cH
	DB	098H
	DB	030H
	DB	0b0H
	DB	0b0H
	DB	0b0H
	DB	0cbH
	DB	0b0H
	DB	0b0H
	DB	0b0H
	DB	0ffH
	DB	0a0H
	DB	0a0H
	DB	0a0H
	DB	0ffH
	DB	0a0H
	DB	09cH
	DB	0a0H
	DB	0ffH
	DB	0a0H
	DB	09cH
	DB	0a0H
	DB	0ffH
	DB	0a0H
	DB	09cH
	DB	0a0H
	DB	0ffH
	DB	0a0H
	DB	09cH
	DB	0a0H
	DB	0ffH
	DB	098H
	DB	09cH
	DB	098H
	DB	0ffH
	DB	0a0H
	DB	09cH
	DB	0a0H
	DB	0ffH
	DB	0a0H
	DB	09cH
	DB	0a0H
	DB	0ffH
	DB	0a0H
	DB	09cH
	DB	0a0H
	DB	0ffH
	DB	0a0H
	DB	09cH
	DB	0a0H
	DB	0ffH
	DB	0a0H
	DB	09cH
	DB	0a0H
	DB	0ffH
	DB	098H
	DB	09cH
	DB	098H
	DB	0f7H
	DB	058H
	DB	058H
	DB	058H
	DB	082H
	DB	00H
	DB	00H
	DB	00H
	DB	030H
	DB	00H
	DB	00H
	DB	00H
	DB	014H
	DB	00H
	DB	00H
	DB	00H
	DB	04H
	DB	00H
	DB	00H
	DB	00H
	DB	00H
	DB	00H
	DB	00H
	DB	00H
	DB	00H
	DB	00H
	DB	00H
	DB	00H
	DB	00H
	DB	00H
	DB	00H
	DB	00H
	DB	00H
	DB	00H
	DB	00H
	DB	00H
	DB	00H
	DB	00H
	DB	00H
	DB	00H
	DB	04H
	DB	00H
	DB	00H
	DB	00H
	DB	010H
	DB	00H
	DB	00H
	DB	00H
	DB	028H
	DB	040H
	DB	040H
	DB	040H
	DB	069H
	DB	090H
	DB	094H
	DB	090H
	DB	0ebH
	DB	098H
	DB	09cH
	DB	098H
	DB	0ffH
	DB	098H
	DB	09cH
	DB	098H
	DB	0ffH
	DB	098H
	DB	09cH
	DB	098H
	DB	0ffH
	DB	098H
	DB	09cH
	DB	098H
	DB	0ffH
	DB	098H
	DB	09cH
	DB	098H
	DB	0ffH
	DB	098H
	DB	09cH
	DB	098H
	DB	0ffH
	DB	098H
	DB	09cH
	DB	098H
	DB	0ffH
	DB	098H
	DB	09cH
	DB	098H
	DB	0ffH
	DB	098H
	DB	09cH
	DB	098H
	DB	0ffH
	DB	098H
	DB	09cH
	DB	098H
	DB	0ffH
	DB	0a0H
	DB	09cH
	DB	0a0H
	DB	0ffH
	DB	0a8H
	DB	0a8H
	DB	0a8H
	DB	0ffH
	DB	0b0H
	DB	0b0H
	DB	0b0H
	DB	0f7H
	DB	0a8H
	DB	0acH
	DB	0a8H
	DB	07dH
	DB	048H
	DB	048H
	DB	048H
	DB	04H
	DB	00H
	DB	00H
	DB	00H
	DB	00H
	DB	00H
	DB	00H
	DB	00H
	DB	00H
	DB	048H
	DB	048H
	DB	048H
	DB	04H
	DB	0a8H
	DB	0a8H
	DB	0a8H
	DB	079H
	DB	0b0H
	DB	0b4H
	DB	0b0H
	DB	0f7H
	DB	0a8H
	DB	0a8H
	DB	0a8H
	DB	0ffH
	DB	0a0H
	DB	09cH
	DB	0a0H
	DB	0ffH
	DB	098H
	DB	09cH
	DB	098H
	DB	0ffH
	DB	098H
	DB	09cH
	DB	098H
	DB	0ffH
	DB	098H
	DB	09cH
	DB	098H
	DB	0ffH
	DB	098H
	DB	09cH
	DB	098H
	DB	0ffH
	DB	098H
	DB	09cH
	DB	098H
	DB	0ffH
	DB	098H
	DB	09cH
	DB	098H
	DB	0ffH
	DB	098H
	DB	09cH
	DB	098H
	DB	0ffH
	DB	098H
	DB	09cH
	DB	098H
	DB	0ffH
	DB	098H
	DB	09cH
	DB	098H
	DB	0ffH
	DB	098H
	DB	09cH
	DB	098H
	DB	0ffH
	DB	090H
	DB	094H
	DB	090H
	DB	0efH
	DB	040H
	DB	040H
	DB	040H
	DB	06dH
	DB	00H
	DB	00H
	DB	00H
	DB	02cH
	DB	00H
	DB	00H
	DB	00H
	DB	010H
	DB	00H
	DB	00H
	DB	00H
	DB	04H
	DB	00H
	DB	00H
	DB	00H
	DB	00H
	DB	00H
	DB	00H
	DB	00H
	DB	00H
	DB	00H
	DB	00H
	DB	00H
	DB	00H
	DB	00H
	DB	00H
	DB	00H
	DB	00H
	DB	00H
	DB	00H
	DB	00H
	DB	00H
	DB	00H
	DB	00H
	DB	00H
	DB	00H
	DB	00H
	DB	00H
	DB	00H
	DB	00H
	DB	00H
	DB	00H
	DB	00H
	DB	00H
	DB	00H
	DB	00H
	DB	00H
	DB	0cH
	DB	00H
	DB	00H
	DB	00H
	DB	028H
	DB	030H
	DB	02cH
	DB	030H
	DB	059H
	DB	090H
	DB	08cH
	DB	090H
	DB	0dfH
	DB	098H
	DB	09cH
	DB	098H
	DB	0ffH
	DB	098H
	DB	098H
	DB	098H
	DB	0ffH
	DB	098H
	DB	09cH
	DB	098H
	DB	0ffH
	DB	098H
	DB	09cH
	DB	098H
	DB	0ffH
	DB	098H
	DB	098H
	DB	098H
	DB	0ffH
	DB	098H
	DB	09cH
	DB	098H
	DB	0ffH
	DB	0a0H
	DB	098H
	DB	0a0H
	DB	0ffH
	DB	098H
	DB	09cH
	DB	098H
	DB	0ffH
	DB	098H
	DB	098H
	DB	098H
	DB	0ffH
	DB	098H
	DB	098H
	DB	098H
	DB	0ffH
	DB	098H
	DB	09cH
	DB	098H
	DB	0ffH
	DB	0a0H
	DB	0a0H
	DB	0a0H
	DB	0ffH
	DB	0b0H
	DB	0acH
	DB	0b0H
	DB	0ffH
	DB	0b0H
	DB	0acH
	DB	0b0H
	DB	0cbH
	DB	098H
	DB	098H
	DB	098H
	DB	028H
	DB	098H
	DB	098H
	DB	098H
	DB	028H
	DB	0b0H
	DB	0acH
	DB	0b0H
	DB	0c7H
	DB	0b0H
	DB	0acH
	DB	0b0H
	DB	0ffH
	DB	0a0H
	DB	0a0H
	DB	0a0H
	DB	0ffH
	DB	098H
	DB	098H
	DB	098H
	DB	0ffH
	DB	098H
	DB	098H
	DB	098H
	DB	0ffH
	DB	098H
	DB	09cH
	DB	098H
	DB	0ffH
	DB	098H
	DB	098H
	DB	098H
	DB	0ffH
	DB	098H
	DB	098H
	DB	098H
	DB	0ffH
	DB	098H
	DB	09cH
	DB	098H
	DB	0ffH
	DB	098H
	DB	09cH
	DB	098H
	DB	0ffH
	DB	098H
	DB	098H
	DB	098H
	DB	0ffH
	DB	098H
	DB	09cH
	DB	098H
	DB	0ffH
	DB	098H
	DB	098H
	DB	098H
	DB	0ffH
	DB	098H
	DB	098H
	DB	098H
	DB	0ffH
	DB	090H
	DB	090H
	DB	090H
	DB	0dfH
	DB	030H
	DB	02cH
	DB	030H
	DB	05dH
	DB	00H
	DB	00H
	DB	00H
	DB	028H
	DB	00H
	DB	00H
	DB	00H
	DB	0cH
	DB	00H
	DB	00H
	DB	00H
	DB	00H
	DB	00H
	DB	00H
	DB	00H
	DB	00H
	DB	00H
	DB	00H
	DB	00H
	DB	00H
	DB	00H
	DB	00H
	DB	00H
	DB	00H
	DB	00H
	DB	00H
	DB	00H
	DB	00H
	DB	00H
	DB	00H
	DB	00H
	DB	00H
	DB	00H
	DB	00H
	DB	00H
	DB	00H
	DB	00H
	DB	00H
	DB	00H
	DB	00H
	DB	00H
	DB	00H
	DB	00H
	DB	00H
	DB	00H
	DB	00H
	DB	00H
	DB	00H
	DB	00H
	DB	00H
	DB	00H
	DB	00H
	DB	00H
	DB	00H
	DB	00H
	DB	08H
	DB	00H
	DB	00H
	DB	00H
	DB	020H
	DB	018H
	DB	018H
	DB	018H
	DB	04dH
	DB	088H
	DB	084H
	DB	088H
	DB	0cbH
	DB	098H
	DB	098H
	DB	098H
	DB	0ffH
	DB	098H
	DB	098H
	DB	098H
	DB	0ffH
	DB	0a0H
	DB	098H
	DB	0a0H
	DB	0ffH
	DB	098H
	DB	098H
	DB	098H
	DB	0ffH
	DB	098H
	DB	098H
	DB	098H
	DB	0ffH
	DB	098H
	DB	098H
	DB	098H
	DB	0ffH
	DB	098H
	DB	098H
	DB	098H
	DB	0ffH
	DB	098H
	DB	098H
	DB	098H
	DB	0ffH
	DB	098H
	DB	098H
	DB	098H
	DB	0ffH
	DB	098H
	DB	098H
	DB	098H
	DB	0ffH
	DB	098H
	DB	098H
	DB	098H
	DB	0ffH
	DB	098H
	DB	09cH
	DB	098H
	DB	0ffH
	DB	0a8H
	DB	0a4H
	DB	0a8H
	DB	0ffH
	DB	0b0H
	DB	0b0H
	DB	0b0H
	DB	0f7H
	DB	0b0H
	DB	0b0H
	DB	0b0H
	DB	0f7H
	DB	0a8H
	DB	0a8H
	DB	0a8H
	DB	0ffH
	DB	098H
	DB	098H
	DB	098H
	DB	0ffH
	DB	098H
	DB	098H
	DB	098H
	DB	0ffH
	DB	098H
	DB	098H
	DB	098H
	DB	0ffH
	DB	098H
	DB	098H
	DB	098H
	DB	0ffH
	DB	098H
	DB	098H
	DB	098H
	DB	0ffH
	DB	098H
	DB	098H
	DB	098H
	DB	0ffH
	DB	0a0H
	DB	098H
	DB	0a0H
	DB	0ffH
	DB	098H
	DB	098H
	DB	098H
	DB	0ffH
	DB	098H
	DB	098H
	DB	098H
	DB	0ffH
	DB	0a0H
	DB	098H
	DB	0a0H
	DB	0ffH
	DB	098H
	DB	098H
	DB	098H
	DB	0ffH
	DB	098H
	DB	098H
	DB	098H
	DB	0ffH
	DB	088H
	DB	084H
	DB	088H
	DB	0cfH
	DB	018H
	DB	01cH
	DB	018H
	DB	04dH
	DB	00H
	DB	00H
	DB	00H
	DB	020H
	DB	00H
	DB	00H
	DB	00H
	DB	0cH
	DB	00H
	DB	00H
	DB	00H
	DB	00H
	DB	00H
	DB	00H
	DB	00H
	DB	00H
	DB	00H
	DB	00H
	DB	00H
	DB	00H
	DB	00H
	DB	00H
	DB	00H
	DB	00H
	DB	00H
	DB	00H
	DB	00H
	DB	00H
	DB	00H
	DB	00H
	DB	00H
	DB	00H
	DB	00H
	DB	00H
	DB	00H
	DB	00H
	DB	00H
	DB	00H
	DB	00H
	DB	00H
	DB	00H
	DB	00H
	DB	00H
	DB	00H
	DB	00H
	DB	00H
	DB	00H
	DB	00H
	DB	00H
	DB	00H
	DB	00H
	DB	00H
	DB	00H
	DB	00H
	DB	00H
	DB	00H
	DB	00H
	DB	00H
	DB	00H
	DB	00H
	DB	00H
	DB	00H
	DB	00H
	DB	08H
	DB	00H
	DB	00H
	DB	00H
	DB	01cH
	DB	08H
	DB	08H
	DB	08H
	DB	041H
	DB	078H
	DB	078H
	DB	078H
	DB	0baH
	DB	098H
	DB	098H
	DB	098H
	DB	0ffH
	DB	098H
	DB	098H
	DB	098H
	DB	0ffH
	DB	098H
	DB	098H
	DB	098H
	DB	0ffH
	DB	098H
	DB	098H
	DB	098H
	DB	0ffH
	DB	098H
	DB	098H
	DB	098H
	DB	0ffH
	DB	098H
	DB	098H
	DB	098H
	DB	0ffH
	DB	098H
	DB	098H
	DB	098H
	DB	0ffH
	DB	098H
	DB	098H
	DB	098H
	DB	0ffH
	DB	098H
	DB	098H
	DB	098H
	DB	0ffH
	DB	098H
	DB	098H
	DB	098H
	DB	0ffH
	DB	098H
	DB	098H
	DB	098H
	DB	0ffH
	DB	098H
	DB	098H
	DB	098H
	DB	0ffH
	DB	098H
	DB	098H
	DB	098H
	DB	0ffH
	DB	098H
	DB	098H
	DB	098H
	DB	0ffH
	DB	098H
	DB	098H
	DB	098H
	DB	0ffH
	DB	098H
	DB	098H
	DB	098H
	DB	0ffH
	DB	098H
	DB	098H
	DB	098H
	DB	0ffH
	DB	098H
	DB	098H
	DB	098H
	DB	0ffH
	DB	098H
	DB	098H
	DB	098H
	DB	0ffH
	DB	098H
	DB	098H
	DB	098H
	DB	0ffH
	DB	098H
	DB	098H
	DB	098H
	DB	0ffH
	DB	098H
	DB	098H
	DB	098H
	DB	0ffH
	DB	098H
	DB	098H
	DB	098H
	DB	0ffH
	DB	098H
	DB	098H
	DB	098H
	DB	0ffH
	DB	098H
	DB	098H
	DB	098H
	DB	0ffH
	DB	098H
	DB	098H
	DB	098H
	DB	0ffH
	DB	078H
	DB	078H
	DB	078H
	DB	0baH
	DB	08H
	DB	08H
	DB	08H
	DB	041H
	DB	00H
	DB	00H
	DB	00H
	DB	01cH
	DB	00H
	DB	00H
	DB	00H
	DB	08H
	DB	00H
	DB	00H
	DB	00H
	DB	00H
	DB	00H
	DB	00H
	DB	00H
	DB	00H
	DB	00H
	DB	00H
	DB	00H
	DB	00H
	DB	00H
	DB	00H
	DB	00H
	DB	00H
	DB	00H
	DB	00H
	DB	00H
	DB	00H
	DB	00H
	DB	00H
	DB	00H
	DB	00H
	DB	00H
	DB	00H
	DB	00H
	DB	00H
	DB	00H
	DB	00H
	DB	00H
	DB	00H
	DB	00H
	DB	00H
	DB	00H
	DB	00H
	DB	00H
	DB	00H
	DB	00H
	DB	00H
	DB	00H
	DB	00H
	DB	00H
	DB	00H
	DB	00H
	DB	00H
	DB	00H
	DB	00H
	DB	00H
	DB	00H
	DB	00H
	DB	00H
	DB	00H
	DB	00H
	DB	00H
	DB	00H
	DB	00H
	DB	00H
	DB	00H
	DB	00H
	DB	00H
	DB	00H
	DB	00H
	DB	04H
	DB	00H
	DB	00H
	DB	00H
	DB	018H
	DB	00H
	DB	00H
	DB	00H
	DB	038H
	DB	068H
	DB	068H
	DB	068H
	DB	09eH
	DB	098H
	DB	094H
	DB	098H
	DB	0fbH
	DB	098H
	DB	098H
	DB	098H
	DB	0ffH
	DB	098H
	DB	094H
	DB	098H
	DB	0ffH
	DB	098H
	DB	098H
	DB	098H
	DB	0ffH
	DB	098H
	DB	098H
	DB	098H
	DB	0ffH
	DB	098H
	DB	094H
	DB	098H
	DB	0ffH
	DB	098H
	DB	098H
	DB	098H
	DB	0ffH
	DB	098H
	DB	094H
	DB	098H
	DB	0ffH
	DB	098H
	DB	094H
	DB	098H
	DB	0ffH
	DB	098H
	DB	098H
	DB	098H
	DB	0ffH
	DB	098H
	DB	094H
	DB	098H
	DB	0ffH
	DB	090H
	DB	094H
	DB	090H
	DB	0ffH
	DB	098H
	DB	098H
	DB	098H
	DB	0ffH
	DB	098H
	DB	094H
	DB	098H
	DB	0ffH
	DB	098H
	DB	098H
	DB	098H
	DB	0ffH
	DB	098H
	DB	098H
	DB	098H
	DB	0ffH
	DB	098H
	DB	094H
	DB	098H
	DB	0ffH
	DB	098H
	DB	098H
	DB	098H
	DB	0ffH
	DB	098H
	DB	098H
	DB	098H
	DB	0ffH
	DB	098H
	DB	094H
	DB	098H
	DB	0ffH
	DB	098H
	DB	098H
	DB	098H
	DB	0ffH
	DB	098H
	DB	094H
	DB	098H
	DB	0ffH
	DB	098H
	DB	098H
	DB	098H
	DB	0ffH
	DB	098H
	DB	094H
	DB	098H
	DB	0ffH
	DB	068H
	DB	06cH
	DB	068H
	DB	0a2H
	DB	00H
	DB	00H
	DB	00H
	DB	038H
	DB	00H
	DB	00H
	DB	00H
	DB	018H
	DB	00H
	DB	00H
	DB	00H
	DB	04H
	DB	00H
	DB	00H
	DB	00H
	DB	00H
	DB	00H
	DB	00H
	DB	00H
	DB	00H
	DB	00H
	DB	00H
	DB	00H
	DB	00H
	DB	00H
	DB	00H
	DB	00H
	DB	00H
	DB	00H
	DB	00H
	DB	00H
	DB	00H
	DB	00H
	DB	00H
	DB	00H
	DB	00H
	DB	00H
	DB	00H
	DB	00H
	DB	00H
	DB	00H
	DB	00H
	DB	00H
	DB	00H
	DB	00H
	DB	00H
	DB	00H
	DB	00H
	DB	00H
	DB	00H
	DB	00H
	DB	00H
	DB	00H
	DB	00H
	DB	00H
	DB	00H
	DB	00H
	DB	00H
	DB	00H
	DB	00H
	DB	00H
	DB	00H
	DB	00H
	DB	00H
	DB	00H
	DB	00H
	DB	00H
	DB	00H
	DB	00H
	DB	00H
	DB	00H
	DB	00H
	DB	00H
	DB	00H
	DB	00H
	DB	00H
	DB	00H
	DB	00H
	DB	00H
	DB	00H
	DB	00H
	DB	00H
	DB	00H
	DB	04H
	DB	00H
	DB	00H
	DB	00H
	DB	014H
	DB	00H
	DB	00H
	DB	00H
	DB	034H
	DB	058H
	DB	054H
	DB	058H
	DB	08aH
	DB	090H
	DB	090H
	DB	090H
	DB	0f7H
	DB	090H
	DB	094H
	DB	090H
	DB	0ffH
	DB	098H
	DB	094H
	DB	098H
	DB	0ffH
	DB	090H
	DB	094H
	DB	090H
	DB	0ffH
	DB	090H
	DB	094H
	DB	090H
	DB	0ffH
	DB	098H
	DB	094H
	DB	098H
	DB	0ffH
	DB	090H
	DB	094H
	DB	090H
	DB	0ffH
	DB	090H
	DB	094H
	DB	090H
	DB	0ffH
	DB	090H
	DB	094H
	DB	090H
	DB	0ffH
	DB	090H
	DB	094H
	DB	090H
	DB	0ffH
	DB	090H
	DB	094H
	DB	090H
	DB	0ffH
	DB	090H
	DB	094H
	DB	090H
	DB	0ffH
	DB	090H
	DB	094H
	DB	090H
	DB	0ffH
	DB	090H
	DB	094H
	DB	090H
	DB	0ffH
	DB	090H
	DB	094H
	DB	090H
	DB	0ffH
	DB	090H
	DB	094H
	DB	090H
	DB	0ffH
	DB	090H
	DB	094H
	DB	090H
	DB	0ffH
	DB	098H
	DB	094H
	DB	098H
	DB	0ffH
	DB	090H
	DB	094H
	DB	090H
	DB	0ffH
	DB	090H
	DB	094H
	DB	090H
	DB	0ffH
	DB	090H
	DB	094H
	DB	090H
	DB	0ffH
	DB	090H
	DB	090H
	DB	090H
	DB	0fbH
	DB	058H
	DB	058H
	DB	058H
	DB	08aH
	DB	00H
	DB	00H
	DB	00H
	DB	034H
	DB	00H
	DB	00H
	DB	00H
	DB	014H
	DB	00H
	DB	00H
	DB	00H
	DB	04H
	DB	00H
	DB	00H
	DB	00H
	DB	00H
	DB	00H
	DB	00H
	DB	00H
	DB	00H
	DB	00H
	DB	00H
	DB	00H
	DB	00H
	DB	00H
	DB	00H
	DB	00H
	DB	00H
	DB	00H
	DB	00H
	DB	00H
	DB	00H
	DB	00H
	DB	00H
	DB	00H
	DB	00H
	DB	00H
	DB	00H
	DB	00H
	DB	00H
	DB	00H
	DB	00H
	DB	00H
	DB	00H
	DB	00H
	DB	00H
	DB	00H
	DB	00H
	DB	00H
	DB	00H
	DB	00H
	DB	00H
	DB	00H
	DB	00H
	DB	00H
	DB	00H
	DB	00H
	DB	00H
	DB	00H
	DB	00H
	DB	00H
	DB	00H
	DB	00H
	DB	00H
	DB	00H
	DB	00H
	DB	00H
	DB	00H
	DB	00H
	DB	00H
	DB	00H
	DB	00H
	DB	00H
	DB	00H
	DB	00H
	DB	00H
	DB	00H
	DB	00H
	DB	00H
	DB	00H
	DB	00H
	DB	00H
	DB	00H
	DB	00H
	DB	00H
	DB	00H
	DB	00H
	DB	00H
	DB	00H
	DB	00H
	DB	00H
	DB	04H
	DB	00H
	DB	00H
	DB	00H
	DB	010H
	DB	00H
	DB	00H
	DB	00H
	DB	02cH
	DB	048H
	DB	044H
	DB	048H
	DB	071H
	DB	090H
	DB	08cH
	DB	090H
	DB	0efH
	DB	090H
	DB	094H
	DB	090H
	DB	0ffH
	DB	090H
	DB	094H
	DB	090H
	DB	0ffH
	DB	090H
	DB	094H
	DB	090H
	DB	0ffH
	DB	098H
	DB	094H
	DB	098H
	DB	0ffH
	DB	090H
	DB	094H
	DB	090H
	DB	0ffH
	DB	090H
	DB	094H
	DB	090H
	DB	0ffH
	DB	098H
	DB	094H
	DB	098H
	DB	0ffH
	DB	098H
	DB	094H
	DB	098H
	DB	0ffH
	DB	090H
	DB	094H
	DB	090H
	DB	0ffH
	DB	098H
	DB	094H
	DB	098H
	DB	0ffH
	DB	090H
	DB	094H
	DB	090H
	DB	0ffH
	DB	090H
	DB	094H
	DB	090H
	DB	0ffH
	DB	098H
	DB	094H
	DB	098H
	DB	0ffH
	DB	090H
	DB	094H
	DB	090H
	DB	0ffH
	DB	090H
	DB	094H
	DB	090H
	DB	0ffH
	DB	090H
	DB	094H
	DB	090H
	DB	0ffH
	DB	098H
	DB	094H
	DB	098H
	DB	0ffH
	DB	090H
	DB	094H
	DB	090H
	DB	0ffH
	DB	090H
	DB	08cH
	DB	090H
	DB	0efH
	DB	048H
	DB	048H
	DB	048H
	DB	075H
	DB	00H
	DB	00H
	DB	00H
	DB	02cH
	DB	00H
	DB	00H
	DB	00H
	DB	010H
	DB	00H
	DB	00H
	DB	00H
	DB	04H
	DB	00H
	DB	00H
	DB	00H
	DB	00H
	DB	00H
	DB	00H
	DB	00H
	DB	00H
	DB	00H
	DB	00H
	DB	00H
	DB	00H
	DB	00H
	DB	00H
	DB	00H
	DB	00H
	DB	00H
	DB	00H
	DB	00H
	DB	00H
	DB	00H
	DB	00H
	DB	00H
	DB	00H
	DB	00H
	DB	00H
	DB	00H
	DB	00H
	DB	00H
	DB	00H
	DB	00H
	DB	00H
	DB	00H
	DB	00H
	DB	00H
	DB	00H
	DB	00H
	DB	00H
	DB	00H
	DB	00H
	DB	00H
	DB	00H
	DB	00H
	DB	00H
	DB	00H
	DB	00H
	DB	00H
	DB	00H
	DB	00H
	DB	00H
	DB	00H
	DB	00H
	DB	00H
	DB	00H
	DB	00H
	DB	00H
	DB	00H
	DB	00H
	DB	00H
	DB	00H
	DB	00H
	DB	00H
	DB	00H
	DB	00H
	DB	00H
	DB	00H
	DB	00H
	DB	00H
	DB	00H
	DB	00H
	DB	00H
	DB	00H
	DB	00H
	DB	00H
	DB	00H
	DB	00H
	DB	00H
	DB	00H
	DB	00H
	DB	00H
	DB	00H
	DB	00H
	DB	00H
	DB	00H
	DB	00H
	DB	00H
	DB	00H
	DB	00H
	DB	00H
	DB	00H
	DB	00H
	DB	0cH
	DB	00H
	DB	00H
	DB	00H
	DB	028H
	DB	030H
	DB	030H
	DB	030H
	DB	061H
	DB	088H
	DB	088H
	DB	088H
	DB	0e7H
	DB	090H
	DB	090H
	DB	090H
	DB	0ffH
	DB	090H
	DB	090H
	DB	090H
	DB	0ffH
	DB	090H
	DB	090H
	DB	090H
	DB	0ffH
	DB	090H
	DB	090H
	DB	090H
	DB	0ffH
	DB	090H
	DB	090H
	DB	090H
	DB	0ffH
	DB	090H
	DB	090H
	DB	090H
	DB	0ffH
	DB	090H
	DB	090H
	DB	090H
	DB	0ffH
	DB	090H
	DB	090H
	DB	090H
	DB	0ffH
	DB	098H
	DB	090H
	DB	098H
	DB	0ffH
	DB	090H
	DB	090H
	DB	090H
	DB	0ffH
	DB	090H
	DB	090H
	DB	090H
	DB	0ffH
	DB	098H
	DB	090H
	DB	098H
	DB	0ffH
	DB	090H
	DB	090H
	DB	090H
	DB	0ffH
	DB	090H
	DB	090H
	DB	090H
	DB	0ffH
	DB	098H
	DB	090H
	DB	098H
	DB	0ffH
	DB	090H
	DB	090H
	DB	090H
	DB	0ffH
	DB	088H
	DB	088H
	DB	088H
	DB	0e3H
	DB	038H
	DB	034H
	DB	038H
	DB	061H
	DB	00H
	DB	00H
	DB	00H
	DB	028H
	DB	00H
	DB	00H
	DB	00H
	DB	0cH
	DB	00H
	DB	00H
	DB	00H
	DB	04H
	DB	00H
	DB	00H
	DB	00H
	DB	00H
	DB	00H
	DB	00H
	DB	00H
	DB	00H
	DB	00H
	DB	00H
	DB	00H
	DB	00H
	DB	00H
	DB	00H
	DB	00H
	DB	00H
	DB	00H
	DB	00H
	DB	00H
	DB	00H
	DB	00H
	DB	00H
	DB	00H
	DB	00H
	DB	00H
	DB	00H
	DB	00H
	DB	00H
	DB	00H
	DB	00H
	DB	00H
	DB	00H
	DB	00H
	DB	00H
	DB	00H
	DB	00H
	DB	00H
	DB	00H
	DB	00H
	DB	00H
	DB	00H
	DB	00H
	DB	00H
	DB	00H
	DB	00H
	DB	00H
	DB	00H
	DB	00H
	DB	00H
	DB	00H
	DB	00H
	DB	00H
	DB	00H
	DB	00H
	DB	00H
	DB	00H
	DB	00H
	DB	00H
	DB	00H
	DB	00H
	DB	00H
	DB	00H
	DB	00H
	DB	00H
	DB	00H
	DB	00H
	DB	00H
	DB	00H
	DB	00H
	DB	00H
	DB	00H
	DB	00H
	DB	00H
	DB	00H
	DB	00H
	DB	00H
	DB	00H
	DB	00H
	DB	00H
	DB	00H
	DB	00H
	DB	00H
	DB	00H
	DB	00H
	DB	00H
	DB	00H
	DB	00H
	DB	00H
	DB	00H
	DB	00H
	DB	00H
	DB	00H
	DB	00H
	DB	00H
	DB	00H
	DB	00H
	DB	00H
	DB	00H
	DB	00H
	DB	0cH
	DB	00H
	DB	00H
	DB	00H
	DB	024H
	DB	020H
	DB	01cH
	DB	020H
	DB	051H
	DB	080H
	DB	080H
	DB	080H
	DB	0d3H
	DB	090H
	DB	090H
	DB	090H
	DB	0ffH
	DB	090H
	DB	090H
	DB	090H
	DB	0ffH
	DB	090H
	DB	090H
	DB	090H
	DB	0ffH
	DB	090H
	DB	090H
	DB	090H
	DB	0ffH
	DB	090H
	DB	090H
	DB	090H
	DB	0ffH
	DB	090H
	DB	090H
	DB	090H
	DB	0ffH
	DB	090H
	DB	090H
	DB	090H
	DB	0ffH
	DB	090H
	DB	090H
	DB	090H
	DB	0ffH
	DB	090H
	DB	090H
	DB	090H
	DB	0ffH
	DB	090H
	DB	090H
	DB	090H
	DB	0ffH
	DB	090H
	DB	090H
	DB	090H
	DB	0ffH
	DB	090H
	DB	090H
	DB	090H
	DB	0ffH
	DB	090H
	DB	090H
	DB	090H
	DB	0ffH
	DB	090H
	DB	090H
	DB	090H
	DB	0ffH
	DB	080H
	DB	080H
	DB	080H
	DB	0d7H
	DB	020H
	DB	020H
	DB	020H
	DB	051H
	DB	00H
	DB	00H
	DB	00H
	DB	024H
	DB	00H
	DB	00H
	DB	00H
	DB	0cH
	DB	00H
	DB	00H
	DB	00H
	DB	00H
	DB	00H
	DB	00H
	DB	00H
	DB	00H
	DB	00H
	DB	00H
	DB	00H
	DB	00H
	DB	00H
	DB	00H
	DB	00H
	DB	00H
	DB	00H
	DB	00H
	DB	00H
	DB	00H
	DB	00H
	DB	00H
	DB	00H
	DB	00H
	DB	00H
	DB	00H
	DB	00H
	DB	00H
	DB	00H
	DB	00H
	DB	00H
	DB	00H
	DB	00H
	DB	00H
	DB	00H
	DB	00H
	DB	00H
	DB	00H
	DB	00H
	DB	00H
	DB	00H
	DB	00H
	DB	00H
	DB	00H
	DB	00H
	DB	00H
	DB	00H
	DB	00H
	DB	00H
	DB	00H
	DB	00H
	DB	00H
	DB	00H
	DB	00H
	DB	00H
	DB	00H
	DB	00H
	DB	00H
	DB	00H
	DB	00H
	DB	00H
	DB	00H
	DB	00H
	DB	00H
	DB	00H
	DB	00H
	DB	00H
	DB	00H
	DB	00H
	DB	00H
	DB	00H
	DB	00H
	DB	00H
	DB	00H
	DB	00H
	DB	00H
	DB	00H
	DB	00H
	DB	00H
	DB	00H
	DB	00H
	DB	00H
	DB	00H
	DB	00H
	DB	00H
	DB	00H
	DB	00H
	DB	00H
	DB	00H
	DB	00H
	DB	00H
	DB	00H
	DB	00H
	DB	00H
	DB	00H
	DB	00H
	DB	00H
	DB	00H
	DB	00H
	DB	00H
	DB	00H
	DB	00H
	DB	00H
	DB	00H
	DB	00H
	DB	00H
	DB	00H
	DB	00H
	DB	00H
	DB	00H
	DB	00H
	DB	08H
	DB	00H
	DB	00H
	DB	00H
	DB	01cH
	DB	010H
	DB	0cH
	DB	010H
	DB	045H
	DB	078H
	DB	078H
	DB	078H
	DB	0beH
	DB	090H
	DB	090H
	DB	090H
	DB	0ffH
	DB	090H
	DB	090H
	DB	090H
	DB	0ffH
	DB	090H
	DB	090H
	DB	090H
	DB	0ffH
	DB	090H
	DB	090H
	DB	090H
	DB	0ffH
	DB	090H
	DB	090H
	DB	090H
	DB	0ffH
	DB	090H
	DB	090H
	DB	090H
	DB	0ffH
	DB	090H
	DB	090H
	DB	090H
	DB	0ffH
	DB	090H
	DB	090H
	DB	090H
	DB	0ffH
	DB	090H
	DB	090H
	DB	090H
	DB	0ffH
	DB	090H
	DB	090H
	DB	090H
	DB	0ffH
	DB	090H
	DB	090H
	DB	090H
	DB	0ffH
	DB	090H
	DB	090H
	DB	090H
	DB	0ffH
	DB	078H
	DB	078H
	DB	078H
	DB	0c3H
	DB	010H
	DB	010H
	DB	010H
	DB	045H
	DB	00H
	DB	00H
	DB	00H
	DB	020H
	DB	00H
	DB	00H
	DB	00H
	DB	08H
	DB	00H
	DB	00H
	DB	00H
	DB	00H
	DB	00H
	DB	00H
	DB	00H
	DB	00H
	DB	00H
	DB	00H
	DB	00H
	DB	00H
	DB	00H
	DB	00H
	DB	00H
	DB	00H
	DB	00H
	DB	00H
	DB	00H
	DB	00H
	DB	00H
	DB	00H
	DB	00H
	DB	00H
	DB	00H
	DB	00H
	DB	00H
	DB	00H
	DB	00H
	DB	00H
	DB	00H
	DB	00H
	DB	00H
	DB	00H
	DB	00H
	DB	00H
	DB	00H
	DB	00H
	DB	00H
	DB	00H
	DB	00H
	DB	00H
	DB	00H
	DB	00H
	DB	00H
	DB	00H
	DB	00H
	DB	00H
	DB	00H
	DB	00H
	DB	00H
	DB	00H
	DB	00H
	DB	00H
	DB	00H
	DB	00H
	DB	00H
	DB	00H
	DB	00H
	DB	00H
	DB	00H
	DB	00H
	DB	00H
	DB	00H
	DB	00H
	DB	00H
	DB	00H
	DB	00H
	DB	00H
	DB	00H
	DB	00H
	DB	00H
	DB	00H
	DB	00H
	DB	00H
	DB	00H
	DB	00H
	DB	00H
	DB	00H
	DB	00H
	DB	00H
	DB	00H
	DB	00H
	DB	00H
	DB	00H
	DB	00H
	DB	00H
	DB	00H
	DB	00H
	DB	00H
	DB	00H
	DB	00H
	DB	00H
	DB	00H
	DB	00H
	DB	00H
	DB	00H
	DB	00H
	DB	00H
	DB	00H
	DB	00H
	DB	00H
	DB	00H
	DB	00H
	DB	00H
	DB	00H
	DB	00H
	DB	00H
	DB	00H
	DB	00H
	DB	00H
	DB	00H
	DB	00H
	DB	00H
	DB	00H
	DB	00H
	DB	00H
	DB	00H
	DB	00H
	DB	04H
	DB	00H
	DB	00H
	DB	00H
	DB	01cH
	DB	00H
	DB	00H
	DB	00H
	DB	03cH
	DB	068H
	DB	068H
	DB	068H
	DB	0a6H
	DB	090H
	DB	08cH
	DB	090H
	DB	0ffH
	DB	090H
	DB	090H
	DB	090H
	DB	0ffH
	DB	090H
	DB	090H
	DB	090H
	DB	0ffH
	DB	090H
	DB	08cH
	DB	090H
	DB	0ffH
	DB	090H
	DB	090H
	DB	090H
	DB	0ffH
	DB	090H
	DB	090H
	DB	090H
	DB	0ffH
	DB	090H
	DB	08cH
	DB	090H
	DB	0ffH
	DB	090H
	DB	090H
	DB	090H
	DB	0ffH
	DB	090H
	DB	08cH
	DB	090H
	DB	0ffH
	DB	090H
	DB	08cH
	DB	090H
	DB	0ffH
	DB	068H
	DB	06cH
	DB	068H
	DB	0aaH
	DB	00H
	DB	04H
	DB	00H
	DB	03cH
	DB	00H
	DB	00H
	DB	00H
	DB	018H
	DB	00H
	DB	00H
	DB	00H
	DB	04H
	DB	00H
	DB	00H
	DB	00H
	DB	00H
	DB	00H
	DB	00H
	DB	00H
	DB	00H
	DB	00H
	DB	00H
	DB	00H
	DB	00H
	DB	00H
	DB	00H
	DB	00H
	DB	00H
	DB	00H
	DB	00H
	DB	00H
	DB	00H
	DB	00H
	DB	00H
	DB	00H
	DB	00H
	DB	00H
	DB	00H
	DB	00H
	DB	00H
	DB	00H
	DB	00H
	DB	00H
	DB	00H
	DB	00H
	DB	00H
	DB	00H
	DB	00H
	DB	00H
	DB	00H
	DB	00H
	DB	00H
	DB	00H
	DB	00H
	DB	00H
	DB	00H
	DB	00H
	DB	00H
	DB	00H
	DB	00H
	DB	00H
	DB	00H
	DB	00H
	DB	00H
	DB	00H
	DB	00H
	DB	00H
	DB	00H
	DB	00H
	DB	00H
	DB	00H
	DB	00H
	DB	00H
	DB	00H
	DB	00H
	DB	00H
	DB	00H
	DB	00H
	DB	00H
	DB	00H
	DB	00H
	DB	00H
	DB	00H
	DB	00H
	DB	00H
	DB	00H
	DB	00H
	DB	00H
	DB	00H
	DB	00H
	DB	00H
	DB	00H
	DB	00H
	DB	00H
	DB	00H
	DB	00H
	DB	00H
	DB	00H
	DB	00H
	DB	00H
	DB	00H
	DB	00H
	DB	00H
	DB	00H
	DB	00H
	DB	00H
	DB	00H
	DB	00H
	DB	00H
	DB	00H
	DB	00H
	DB	00H
	DB	00H
	DB	00H
	DB	00H
	DB	00H
	DB	00H
	DB	00H
	DB	00H
	DB	00H
	DB	00H
	DB	00H
	DB	00H
	DB	00H
	DB	00H
	DB	00H
	DB	00H
	DB	00H
	DB	00H
	DB	00H
	DB	00H
	DB	00H
	DB	00H
	DB	00H
	DB	00H
	DB	00H
	DB	00H
	DB	00H
	DB	00H
	DB	04H
	DB	00H
	DB	00H
	DB	00H
	DB	014H
	DB	00H
	DB	00H
	DB	00H
	DB	034H
	DB	058H
	DB	058H
	DB	058H
	DB	092H
	DB	088H
	DB	08cH
	DB	088H
	DB	0fbH
	DB	090H
	DB	08cH
	DB	090H
	DB	0ffH
	DB	090H
	DB	08cH
	DB	090H
	DB	0ffH
	DB	088H
	DB	08cH
	DB	088H
	DB	0ffH
	DB	090H
	DB	08cH
	DB	090H
	DB	0ffH
	DB	088H
	DB	08cH
	DB	088H
	DB	0ffH
	DB	090H
	DB	08cH
	DB	090H
	DB	0ffH
	DB	088H
	DB	08cH
	DB	088H
	DB	0fbH
	DB	058H
	DB	05cH
	DB	058H
	DB	092H
	DB	00H
	DB	00H
	DB	00H
	DB	034H
	DB	00H
	DB	00H
	DB	00H
	DB	014H
	DB	00H
	DB	00H
	DB	00H
	DB	04H
	DB	00H
	DB	00H
	DB	00H
	DB	00H
	DB	00H
	DB	00H
	DB	00H
	DB	00H
	DB	00H
	DB	00H
	DB	00H
	DB	00H
	DB	00H
	DB	00H
	DB	00H
	DB	00H
	DB	00H
	DB	00H
	DB	00H
	DB	00H
	DB	00H
	DB	00H
	DB	00H
	DB	00H
	DB	00H
	DB	00H
	DB	00H
	DB	00H
	DB	00H
	DB	00H
	DB	00H
	DB	00H
	DB	00H
	DB	00H
	DB	00H
	DB	00H
	DB	00H
	DB	00H
	DB	00H
	DB	00H
	DB	00H
	DB	00H
	DB	00H
	DB	00H
	DB	00H
	DB	00H
	DB	00H
	DB	00H
	DB	00H
	DB	00H
	DB	00H
	DB	00H
	DB	00H
	DB	00H
	DB	00H
	DB	00H
	DB	00H
	DB	00H
	DB	00H
	DB	00H
	DB	00H
	DB	00H
	DB	00H
	DB	00H
	DB	00H
	DB	00H
	DB	00H
	DB	00H
	DB	00H
	DB	00H
	DB	00H
	DB	00H
	DB	00H
	DB	00H
	DB	00H
	DB	00H
	DB	00H
	DB	00H
	DB	00H
	DB	00H
	DB	00H
	DB	00H
	DB	00H
	DB	00H
	DB	00H
	DB	00H
	DB	00H
	DB	00H
	DB	00H
	DB	00H
	DB	00H
	DB	00H
	DB	00H
	DB	00H
	DB	00H
	DB	00H
	DB	00H
	DB	00H
	DB	00H
	DB	00H
	DB	00H
	DB	00H
	DB	00H
	DB	00H
	DB	00H
	DB	00H
	DB	00H
	DB	00H
	DB	00H
	DB	00H
	DB	00H
	DB	00H
	DB	00H
	DB	00H
	DB	00H
	DB	00H
	DB	00H
	DB	00H
	DB	00H
	DB	00H
	DB	00H
	DB	00H
	DB	00H
	DB	00H
	DB	00H
	DB	00H
	DB	00H
	DB	00H
	DB	00H
	DB	00H
	DB	00H
	DB	00H
	DB	00H
	DB	00H
	DB	00H
	DB	04H
	DB	00H
	DB	00H
	DB	00H
	DB	010H
	DB	00H
	DB	00H
	DB	00H
	DB	030H
	DB	048H
	DB	048H
	DB	048H
	DB	079H
	DB	088H
	DB	088H
	DB	088H
	DB	0f3H
	DB	088H
	DB	08cH
	DB	088H
	DB	0ffH
	DB	088H
	DB	08cH
	DB	088H
	DB	0ffH
	DB	090H
	DB	08cH
	DB	090H
	DB	0ffH
	DB	088H
	DB	08cH
	DB	088H
	DB	0ffH
	DB	088H
	DB	088H
	DB	088H
	DB	0f3H
	DB	048H
	DB	04cH
	DB	048H
	DB	07dH
	DB	00H
	DB	00H
	DB	00H
	DB	030H
	DB	00H
	DB	00H
	DB	00H
	DB	014H
	DB	00H
	DB	00H
	DB	00H
	DB	04H
	DB	00H
	DB	00H
	DB	00H
	DB	00H
	DB	00H
	DB	00H
	DB	00H
	DB	00H
	DB	00H
	DB	00H
	DB	00H
	DB	00H
	DB	00H
	DB	00H
	DB	00H
	DB	00H
	DB	00H
	DB	00H
	DB	00H
	DB	00H
	DB	00H
	DB	00H
	DB	00H
	DB	00H
	DB	00H
	DB	00H
	DB	00H
	DB	00H
	DB	00H
	DB	00H
	DB	00H
	DB	00H
	DB	00H
	DB	00H
	DB	00H
	DB	00H
	DB	00H
	DB	00H
	DB	00H
	DB	00H
	DB	00H
	DB	00H
	DB	00H
	DB	00H
	DB	00H
	DB	00H
	DB	00H
	DB	00H
	DB	00H
	DB	00H
	DB	00H
	DB	00H
	DB	00H
	DB	00H
	DB	00H
	DB	00H
	DB	00H
	DB	00H
	DB	00H
	DB	00H
	DB	00H
	DB	00H
	DB	00H
	DB	00H
	DB	00H
	DB	00H
	DB	00H
	DB	00H
	DB	00H
	DB	00H
	DB	00H
	DB	00H
	DB	00H
	DB	00H
	DB	00H
	DB	00H
	DB	00H
	DB	00H
	DB	00H
	DB	00H
	DB	00H
	DB	00H
	DB	00H
	DB	00H
	DB	00H
	DB	00H
	DB	00H
	DB	00H
	DB	00H
	DB	00H
	DB	00H
	DB	00H
	DB	00H
	DB	00H
	DB	00H
	DB	00H
	DB	00H
	DB	00H
	DB	00H
	DB	00H
	DB	00H
	DB	00H
	DB	00H
	DB	00H
	DB	00H
	DB	00H
	DB	00H
	DB	00H
	DB	00H
	DB	00H
	DB	00H
	DB	00H
	DB	00H
	DB	00H
	DB	00H
	DB	00H
	DB	00H
	DB	00H
	DB	00H
	DB	00H
	DB	00H
	DB	00H
	DB	00H
	DB	00H
	DB	00H
	DB	00H
	DB	00H
	DB	00H
	DB	00H
	DB	00H
	DB	00H
	DB	00H
	DB	00H
	DB	00H
	DB	00H
	DB	00H
	DB	00H
	DB	00H
	DB	00H
	DB	00H
	DB	00H
	DB	00H
	DB	00H
	DB	04H
	DB	00H
	DB	00H
	DB	00H
	DB	0cH
	DB	00H
	DB	00H
	DB	00H
	DB	028H
	DB	028H
	DB	024H
	DB	028H
	DB	059H
	DB	070H
	DB	074H
	DB	070H
	DB	0beH
	DB	088H
	DB	088H
	DB	088H
	DB	0f7H
	DB	088H
	DB	088H
	DB	088H
	DB	0f3H
	DB	070H
	DB	074H
	DB	070H
	DB	0beH
	DB	028H
	DB	028H
	DB	028H
	DB	05dH
	DB	00H
	DB	00H
	DB	00H
	DB	028H
	DB	00H
	DB	00H
	DB	00H
	DB	010H
	DB	00H
	DB	00H
	DB	00H
	DB	04H
	DB	00H
	DB	00H
	DB	00H
	DB	00H
	DB	00H
	DB	00H
	DB	00H
	DB	00H
	DB	00H
	DB	00H
	DB	00H
	DB	00H
	DB	00H
	DB	00H
	DB	00H
	DB	00H
	DB	00H
	DB	00H
	DB	00H
	DB	00H
	DB	00H
	DB	00H
	DB	00H
	DB	00H
	DB	00H
	DB	00H
	DB	00H
	DB	00H
	DB	00H
	DB	00H
	DB	00H
	DB	00H
	DB	00H
	DB	00H
	DB	00H
	DB	00H
	DB	00H
	DB	00H
	DB	00H
	DB	00H
	DB	00H
	DB	00H
	DB	00H
	DB	00H
	DB	00H
	DB	00H
	DB	00H
	DB	00H
	DB	00H
	DB	00H
	DB	00H
	DB	00H
	DB	00H
	DB	00H
	DB	00H
	DB	00H
	DB	00H
	DB	00H
	DB	00H
	DB	00H
	DB	00H
	DB	00H
	DB	00H
	DB	00H
	DB	00H
	DB	00H
	DB	00H
	DB	00H
	DB	00H
	DB	00H
	DB	00H
	DB	00H
	DB	00H
	DB	00H
	DB	00H
	DB	00H
	DB	00H
	DB	00H
	DB	00H
	DB	00H
	DB	00H
	DB	00H
	DB	00H
	DB	00H
	DB	00H
	DB	00H
	DB	00H
	DB	00H
	DB	00H
	DB	00H
	DB	00H
	DB	00H
	DB	00H
	DB	00H
	DB	00H
	DB	00H
	DB	00H
	DB	00H
	DB	00H
	DB	00H
	DB	00H
	DB	00H
	DB	00H
	DB	00H
	DB	00H
	DB	00H
	DB	00H
	DB	00H
	DB	00H
	DB	00H
	DB	00H
	DB	00H
	DB	00H
	DB	00H
	DB	00H
	DB	00H
	DB	00H
	DB	00H
	DB	00H
	DB	00H
	DB	00H
	DB	00H
	DB	00H
	DB	00H
	DB	00H
	DB	00H
	DB	00H
	DB	00H
	DB	00H
	DB	00H
	DB	00H
	DB	00H
	DB	00H
	DB	00H
	DB	00H
	DB	00H
	DB	00H
	DB	00H
	DB	00H
	DB	00H
	DB	00H
	DB	00H
	DB	00H
	DB	00H
	DB	00H
	DB	00H
	DB	00H
	DB	00H
	DB	00H
	DB	00H
	DB	00H
	DB	04H
	DB	00H
	DB	00H
	DB	00H
	DB	08H
	DB	00H
	DB	00H
	DB	00H
	DB	020H
	DB	00H
	DB	00H
	DB	00H
	DB	038H
	DB	00H
	DB	00H
	DB	00H
	DB	049H
	DB	00H
	DB	00H
	DB	00H
	DB	049H
	DB	00H
	DB	00H
	DB	00H
	DB	038H
	DB	00H
	DB	00H
	DB	00H
	DB	020H
	DB	00H
	DB	00H
	DB	00H
	DB	0cH
	DB	00H
	DB	00H
	DB	00H
	DB	00H
	DB	00H
	DB	00H
	DB	00H
	DB	00H
	DB	00H
	DB	00H
	DB	00H
	DB	00H
	DB	00H
	DB	00H
	DB	00H
	DB	00H
	DB	00H
	DB	00H
	DB	00H
	DB	00H
	DB	00H
	DB	00H
	DB	00H
	DB	00H
	DB	00H
	DB	00H
	DB	00H
	DB	00H
	DB	00H
	DB	00H
	DB	00H
	DB	00H
	DB	00H
	DB	00H
	DB	00H
	DB	00H
	DB	00H
	DB	00H
	DB	00H
	DB	00H
	DB	00H
	DB	00H
	DB	00H
	DB	00H
	DB	00H
	DB	00H
	DB	00H
	DB	00H
	DB	00H
	DB	00H
	DB	00H
	DB	00H
	DB	00H
	DB	00H
	DB	00H
	DB	00H
	DB	00H
	DB	00H
	DB	00H
	DB	00H
	DB	00H
	DB	00H
	DB	00H
	DB	00H
	DB	00H
	DB	00H
	DB	00H
	DB	00H
	DB	00H
	DB	00H
	DB	00H
	DB	00H
	DB	00H
	DB	00H
	DB	00H
	DB	00H
	DB	00H
	DB	00H
	DB	00H
	DB	00H
	DB	00H
	DB	00H
	DB	00H
	DB	00H
	DB	00H
	DB	00H
	DB	00H
	DB	00H
	DB	00H
	DB	00H
	DB	00H
	DB	00H
	DB	00H
	DB	00H
	DB	00H
	DB	00H
	DB	00H
	DB	00H
	DB	00H
	DB	00H
	DB	00H
	DB	00H
	DB	00H
	DB	00H
	DB	00H
	DB	00H
	DB	00H
	DB	00H
	DB	00H
	DB	00H
	DB	00H
	DB	00H
	DB	00H
	DB	00H
	DB	00H
	DB	00H
	DB	00H
	DB	00H
	DB	00H
	DB	00H
	DB	00H
	DB	00H
	DB	00H
	DB	00H
	DB	00H
	DB	00H
	DB	00H
	DB	00H
	DB	00H
	DB	00H
	DB	00H
	DB	00H
	DB	00H
	DB	00H
	DB	00H
	DB	00H
	DB	00H
	DB	00H
	DB	00H
	DB	00H
	DB	00H
	DB	00H
	DB	00H
	DB	00H
	DB	00H
	DB	00H
	DB	00H
	DB	00H
	DB	00H
	DB	00H
	DB	00H
	DB	00H
	DB	00H
	DB	00H
	DB	00H
	DB	00H
	DB	00H
	DB	00H
	DB	00H
	DB	00H
	DB	00H
	DB	00H
	DB	00H
	DB	00H
	DB	00H
	DB	00H
	DB	00H
	DB	04H
	DB	00H
	DB	00H
	DB	00H
	DB	010H
	DB	00H
	DB	00H
	DB	00H
	DB	018H
	DB	00H
	DB	00H
	DB	00H
	DB	018H
	DB	00H
	DB	00H
	DB	00H
	DB	010H
	DB	00H
	DB	00H
	DB	00H
	DB	04H
	DB	00H
	DB	00H
	DB	00H
	DB	00H
	DB	00H
	DB	00H
	DB	00H
	DB	00H
	DB	00H
	DB	00H
	DB	00H
	DB	00H
	DB	00H
	DB	00H
	DB	00H
	DB	00H
	DB	00H
	DB	00H
	DB	00H
	DB	00H
	DB	00H
	DB	00H
	DB	00H
	DB	00H
	DB	00H
	DB	00H
	DB	00H
	DB	00H
	DB	00H
	DB	00H
	DB	00H
	DB	00H
	DB	00H
	DB	00H
	DB	00H
	DB	00H
	DB	00H
	DB	00H
	DB	00H
	DB	00H
	DB	00H
	DB	00H
	DB	00H
	DB	00H
	DB	00H
	DB	00H
	DB	00H
	DB	00H
	DB	00H
	DB	00H
	DB	00H
	DB	00H
	DB	00H
	DB	00H
	DB	00H
	DB	00H
	DB	00H
	DB	00H
	DB	00H
	DB	00H
	DB	00H
	DB	00H
	DB	00H
	DB	00H
	DB	00H
	DB	00H
	DB	00H
	DB	00H
	DB	00H
	DB	00H
	DB	00H
	DB	00H
	DB	00H
	DB	00H
	DB	00H
	DB	00H
	DB	00H
	DB	00H
	DB	00H
	DB	00H
	DB	00H
	DB	00H
	DB	00H
	DB	00H
CONST	ENDS
END
